BL51 BANKED LINKER/LOCATER V6.22                                                        06/24/2016  11:44:38  PAGE 1


BL51 BANKED LINKER/LOCATER V6.22, INVOKED BY:
D:\KEIL51\C51\BIN\BL51.EXE main.obj, delay.obj, tuxinghua.obj, adc.obj, BUZZ.obj, basal.obj, walking.obj, jiewu.obj, tic
>> ao.obj, qianshou.obj, qiaoxiyang.obj, HT1621.obj TO ProjectTarget RAMSIZE (256)




PROGRAM RECURSIONS REMOVED FROM CALL TREE
=========================================
+--> ?PR?PWM_24?MAIN
<--+ ?PR?ADC_ADJUST?ADC


+--> ?PR?_P_TO_P?BASAL
|  | ?PR?PWM_24?MAIN
|  | ?PR?ADC_ADJUST?ADC
<--+ ?PR?HPQ?BASAL


+--> ?PR?_P_TO_P?BASAL
|  | ?PR?PWM_24?MAIN
|  | ?PR?ADC_ADJUST?ADC
<--+ ?PR?QIANPQ?BASAL



MEMORY MODEL: LARGE WITH FLOATING POINT ARITHMETIC


INPUT MODULES INCLUDED:
  main.obj (MAIN)
  delay.obj (DELAY)
  tuxinghua.obj (TUXINGHUA)
  adc.obj (ADC)
  BUZZ.obj (BUZZ)
  basal.obj (BASAL)
  walking.obj (WALKING)
  jiewu.obj (JIEWU)
  ticao.obj (TICAO)
  qianshou.obj (QIANSHOU)
  qiaoxiyang.obj (QIAOXIYANG)
  HT1621.obj (HT1621)
  D:\KEIL51\C51\LIB\C51FPL.LIB (?C?FPMUL)
  D:\KEIL51\C51\LIB\C51FPL.LIB (?C?FPDIV)
  D:\KEIL51\C51\LIB\C51FPL.LIB (?C?FCAST)
  D:\KEIL51\C51\LIB\C51FPL.LIB (?C?CASTF)
  D:\KEIL51\C51\LIB\C51FPL.LIB (PRINTF)
  D:\KEIL51\C51\LIB\C51FPL.LIB (?C?FPGETOPN)
  D:\KEIL51\C51\LIB\C51FPL.LIB (?C?FPROUND)
  D:\KEIL51\C51\LIB\C51FPL.LIB (?C?FPCONVERT)
  D:\KEIL51\C51\LIB\C51FPL.LIB (?C?FPADD)
  D:\KEIL51\C51\LIB\C51FPL.LIB (?C?FTNPWR)
  D:\KEIL51\C51\LIB\C51L.LIB (?C_STARTUP)
  D:\KEIL51\C51\LIB\C51L.LIB (?C?COPY)
  D:\KEIL51\C51\LIB\C51L.LIB (?C?CLDPTR)
  D:\KEIL51\C51\LIB\C51L.LIB (?C?CLDOPTR)
  D:\KEIL51\C51\LIB\C51L.LIB (?C?CSTPTR)
  D:\KEIL51\C51\LIB\C51L.LIB (?C?IMUL)
BL51 BANKED LINKER/LOCATER V6.22                                                      06/24/2016  11:44:38  PAGE 2


  D:\KEIL51\C51\LIB\C51L.LIB (?C?UIDIV)
  D:\KEIL51\C51\LIB\C51L.LIB (?C?IILDX)
  D:\KEIL51\C51\LIB\C51L.LIB (?C?ILDPTR)
  D:\KEIL51\C51\LIB\C51L.LIB (?C?IILDPTR)
  D:\KEIL51\C51\LIB\C51L.LIB (?C?ISTPTR)
  D:\KEIL51\C51\LIB\C51L.LIB (?C?LNEG)
  D:\KEIL51\C51\LIB\C51L.LIB (?C?SLCMP)
  D:\KEIL51\C51\LIB\C51L.LIB (?C?ULCMP)
  D:\KEIL51\C51\LIB\C51L.LIB (?C?ULSHR)
  D:\KEIL51\C51\LIB\C51L.LIB (?C?LSHL)
  D:\KEIL51\C51\LIB\C51L.LIB (?C?LLDPTR)
  D:\KEIL51\C51\LIB\C51L.LIB (?C?LSTXDATA)
  D:\KEIL51\C51\LIB\C51L.LIB (?C?LSTKXDATA)
  D:\KEIL51\C51\LIB\C51L.LIB (?C?PLDIXDATA)
  D:\KEIL51\C51\LIB\C51L.LIB (?C?PSTXDATA)
  D:\KEIL51\C51\LIB\C51L.LIB (?C?CCASE)
  D:\KEIL51\C51\LIB\C51L.LIB (?C?ICASE)
  D:\KEIL51\C51\LIB\C51L.LIB (PUTCHAR)
  D:\KEIL51\C51\LIB\C51L.LIB (ABS)
  D:\KEIL51\C51\LIB\C51L.LIB (?C?STRCPY)
  D:\KEIL51\C51\LIB\C51L.LIB (SETJMP)
  D:\KEIL51\C51\LIB\C51L.LIB (?C_INIT)
  D:\KEIL51\C51\LIB\C51L.LIB (?C?CSTOPTR)
  D:\KEIL51\C51\LIB\C51L.LIB (?C?ILDOPTR)
  D:\KEIL51\C51\LIB\C51L.LIB (?C?ISTOPTR)
  D:\KEIL51\C51\LIB\C51L.LIB (?C?LLDIDATA)
  D:\KEIL51\C51\LIB\C51L.LIB (?C?LLDXDATA)
  D:\KEIL51\C51\LIB\C51L.LIB (?C?LLDPDATA)
  D:\KEIL51\C51\LIB\C51L.LIB (?C?LLDCODE)
  D:\KEIL51\C51\LIB\C51L.LIB (?C_XBP)
  D:\KEIL51\C51\LIB\C51L.LIB (?C_IBP)
  D:\KEIL51\C51\LIB\C51L.LIB (?C_PBP)


LINK MAP OF MODULE:  ProjectTarget (MAIN)


            TYPE    BASE      LENGTH    RELOCATION   SEGMENT NAME
            -----------------------------------------------------

            * * * * * * *   D A T A   M E M O R Y   * * * * * * *
            REG     0000H     0008H     ABSOLUTE     "REG BANK 0"
            DATA    0008H     0005H     UNIT         _DATA_GROUP_
            DATA    000DH     0004H     UNIT         ?C?LIB_DATA
                    0011H     000FH                  *** GAP ***
            BIT     0020H.0   0001H.2   UNIT         _BIT_GROUP_
            BIT     0021H.2   0001H.1   UNIT         ?BI?MAIN
            BIT     0022H.3   0000H.4   UNIT         ?BI?HT1621
                    0022H.7   0000H.1                *** GAP ***
            IDATA   0023H     0001H     UNIT         ?STACK

            * * * * * * *  X D A T A   M E M O R Y  * * * * * * *
            XDATA   0000H     01D9H     UNIT         ?XD?MAIN
            XDATA   01D9H     009DH     UNIT         _XDATA_GROUP_
            XDATA   0276H     0074H     UNIT         ?XD?BASAL
            XDATA   02EAH     0030H     UNIT         ?XD?TUXINGHUA
            XDATA   031AH     0014H     UNIT         ?XD?ADC
BL51 BANKED LINKER/LOCATER V6.22                                                      06/24/2016  11:44:38  PAGE 3


            XDATA   032EH     0008H     UNIT         ?XD?HT1621
            XDATA   0336H     0002H     UNIT         ?XD?_FM300MS?BUZZ
            XDATA   0338H     0002H     UNIT         ?XD?_FM50MS?BUZZ
            XDATA   033AH     0002H     UNIT         ?XD?_FM1MS?BUZZ
            XDATA   033CH     0002H     UNIT         ?XD?_LEFT_UP_1?WALKING
            XDATA   033EH     0001H     UNIT         ?XD?_RIGHT_UP_1?WALKING
            XDATA   033FH     0001H     UNIT         ?XD?TABU1?WALKING

            * * * * * * *   C O D E   M E M O R Y   * * * * * * *
            CODE    0000H     0003H     ABSOLUTE     
            CODE    0003H     0003H     ABSOLUTE     
            CODE    0006H     0004H     UNIT         ?PR?DELAY1US_PSX?MAIN
            CODE    000AH     0001H     UNIT         ?PR?QIMA?WALKING
            CODE    000BH     0003H     ABSOLUTE     
            CODE    000EH     000DH     UNIT         ?PR?UART4_RESETBAUTERATE?MAIN
            CODE    001BH     0003H     ABSOLUTE     
            CODE    001EH     0001H     UNIT         ?PR?XIYANG_1?QIAOXIYANG
            CODE    001FH     0001H     UNIT         ?PR?XIYANG_2?QIAOXIYANG
            CODE    0020H     0001H     UNIT         ?PR?XIYANG_3?QIAOXIYANG
            CODE    0021H     0001H     UNIT         ?PR?XIYANG_4?QIAOXIYANG
                    0022H     0001H                  *** GAP ***
            CODE    0023H     0003H     ABSOLUTE     
                    0026H     0005H                  *** GAP ***
            CODE    002BH     0003H     ABSOLUTE     
            CODE    002EH     0013H     UNIT         ?PR?_DELAY500US?DELAY
                    0041H     0002H                  *** GAP ***
            CODE    0043H     0003H     ABSOLUTE     
            CODE    0046H     0045H     UNIT         ?PR?_CH376READBLOCK?MAIN
            CODE    008BH     0003H     ABSOLUTE     
                    008EH     0005H                  *** GAP ***
            CODE    0093H     0003H     ABSOLUTE     
            CODE    0096H     0EAEH     UNIT         ?PR?MAIN?MAIN
            CODE    0F44H     0C0CH     UNIT         ?PR?WUDAO?BASAL
            CODE    1B50H     0A2BH     UNIT         ?C?LIB_CODE
            CODE    257BH     0503H     UNIT         ?PR?DAOLI?BASAL
            CODE    2A7EH     04D4H     UNIT         ?PR?_LOCATION?TUXINGHUA
            CODE    2F52H     049CH     UNIT         ?PR?XIYANG_6?QIAOXIYANG
            CODE    33EEH     0483H     UNIT         ?PR?PRINTF?PRINTF
            CODE    3871H     0467H     UNIT         ?PR?MAIN1?TUXINGHUA
            CODE    3CD8H     041AH     UNIT         ?PR?_CYC?TUXINGHUA
            CODE    40F2H     0417H     UNIT         ?PR?XQ_TD?TICAO
            CODE    4509H     03F3H     UNIT         ?PR?_FWC?BASAL
            CODE    48FCH     03F2H     UNIT         ?PR?HGF?BASAL
            CODE    4CEEH     03D4H     UNIT         ?PR?OBTAIN_PSXCODE?MAIN
            CODE    50C2H     03C2H     UNIT         ?PR?QGF?BASAL
            CODE    5484H     039AH     UNIT         ?PR?XIYANG_7?QIAOXIYANG
            CODE    581EH     035FH     UNIT         ?PR?_SHOU_DD?JIEWU
            CODE    5B7DH     034FH     UNIT         ?PR?_L_PYI?BASAL
            CODE    5ECCH     034FH     UNIT         ?PR?_R_PYI?BASAL
            CODE    621BH     033EH     UNIT         ?PR?_QIANSHOU_7?QIANSHOU
            CODE    6559H     0313H     UNIT         ?PR?TICE_YD?TICAO
            CODE    686CH     02C2H     UNIT         ?PR?_TURN_RIGHT?BASAL
            CODE    6B2EH     02BCH     UNIT         ?PR?_TURN_LEFT?BASAL
            CODE    6DEAH     0296H     UNIT         ?PR?_GOAL_L?BASAL
            CODE    7080H     0292H     UNIT         ?PR?_GOAL_R?BASAL
            CODE    7312H     0288H     UNIT         ?PR?QIANPQ?BASAL
            CODE    759AH     0278H     UNIT         ?PR?_P_TO_P?BASAL
BL51 BANKED LINKER/LOCATER V6.22                                                      06/24/2016  11:44:38  PAGE 4


            CODE    7812H     026AH     UNIT         ?C_INITSEG
            CODE    7A7CH     0264H     UNIT         ?PR?XIYANG_9?QIAOXIYANG
            CODE    7CE0H     0264H     UNIT         ?PR?XIYANG_10?QIAOXIYANG
            CODE    7F44H     0252H     UNIT         ?PR?KUAIZOU2?WALKING
            CODE    8196H     0251H     UNIT         ?PR?HOUTUI2?WALKING
            CODE    83E7H     0243H     UNIT         ?PR?HOUTUI1?WALKING
            CODE    862AH     0237H     UNIT         ?PR?ADC_ADJUST?ADC
            CODE    8861H     0235H     UNIT         ?PR?YAOBIBAITOU?JIEWU
            CODE    8A96H     0222H     UNIT         ?PR?PCH?BASAL
            CODE    8CB8H     0210H     UNIT         ?PR?QIANSHOU_6?QIANSHOU
            CODE    8EC8H     020EH     UNIT         ?PR?_QIANSHOU_4?QIANSHOU
            CODE    90D6H     020EH     UNIT         ?PR?_QIANSHOU_10?QIANSHOU
            CODE    92E4H     020DH     UNIT         ?PR?PWM_24?MAIN
            CODE    94F1H     020BH     UNIT         ?PR?QHZY_NIU?JIEWU
            CODE    96FCH     01F8H     UNIT         ?PR?PY_SS_LEFT?TICAO
            CODE    98F4H     01F8H     UNIT         ?PR?PY_SS_RIGHT?TICAO
            CODE    9AECH     01F4H     UNIT         ?PR?SHENZHAN?TICAO
            CODE    9CE0H     01E4H     UNIT         ?PR?HP?BASAL
            CODE    9EC4H     01CEH     UNIT         ?PR?HFH_R?JIEWU
            CODE    A092H     01CEH     UNIT         ?PR?HFH_L?JIEWU
            CODE    A260H     01B6H     UNIT         ?PR?KUAIZOU1?WALKING
            CODE    A416H     01B4H     UNIT         ?PR?QIANPAXIA?BASAL
            CODE    A5CAH     01A1H     UNIT         ?PR?_WDL_PYI?JIEWU
            CODE    A76BH     01A1H     UNIT         ?PR?_WDR_PYI?JIEWU
            CODE    A90CH     0194H     UNIT         ?PR?XIYANG_5?QIAOXIYANG
            CODE    AAA0H     0187H     UNIT         ?PR?HPQ?BASAL
            CODE    AC27H     015FH     UNIT         ?PR?CS_XD_LEFT?TICAO
            CODE    AD86H     015FH     UNIT         ?PR?CS_XD_RIGHT?TICAO
            CODE    AEE5H     0141H     UNIT         ?PR?_YANGWOQIZUO?BASAL
            CODE    B026H     013BH     UNIT         ?PR?DPZHCH?JIEWU
            CODE    B161H     013BH     UNIT         ?PR?QIANSHOU_1?QIANSHOU
            CODE    B29CH     0137H     UNIT         ?PR?ADC_INT?ADC
            CODE    B3D3H     0134H     UNIT         ?PR?ZUOGOUQIU?BASAL
            CODE    B507H     0132H     UNIT         ?PR?YOUGOUQIU?BASAL
            CODE    B639H     0125H     UNIT         ?PR?_QIANSHOU_9?QIANSHOU
            CODE    B75EH     011CH     UNIT         ?PR?_QIANSHOU_3?QIANSHOU
            CODE    B87AH     010DH     UNIT         ?PR?UART2_INTERRUPT?MAIN
            CODE    B987H     0106H     UNIT         ?PR?_INITIAL_POSITION_SLOWONE?BASAL
            CODE    BA8DH     0106H     UNIT         ?PR?DT_L?BASAL
            CODE    BB93H     0106H     UNIT         ?PR?DT_R?BASAL
            CODE    BC99H     0102H     UNIT         ?PR?_READSDCARDFILEALLBYTES?MAIN
            CODE    BD9BH     0102H     UNIT         ?PR?QIANSHOU_8?QIANSHOU
            CODE    BE9DH     00F8H     UNIT         ?PR?_CH376SETFILENAME?MAIN
            CODE    BF95H     00F3H     UNIT         ?PR?_DPZC_1?JIEWU
            CODE    C088H     00EDH     UNIT         ?PR?KUOXIONG?TICAO
            CODE    C175H     00EAH     UNIT         ?PR?_RELATIVE?BASAL
            CODE    C25FH     00D6H     UNIT         ?PR?TIMER1_INTERRUPT?HT1621
            CODE    C335H     00CFH     UNIT         ?PR?JIEWU?JIEWU
            CODE    C404H     00C8H     UNIT         ?PR?ARRAY?BASAL
            CODE    C4CCH     00C7H     UNIT         ?PR?_CH376SEPARATEPATH?MAIN
            CODE    C593H     00C4H     UNIT         ?PR?_WALK?WALKING
            CODE    C657H     00C4H     UNIT         ?PR?_HOUTUI?WALKING
            CODE    C71BH     00BDH     UNIT         ?PR?QIANSHOU?QIANSHOU
            CODE    C7D8H     00BAH     UNIT         ?PR?TAIJIAOZI?BASAL
            CODE    C892H     00B9H     UNIT         ?PR?JINGLI_L?BASAL
            CODE    C94BH     00B4H     UNIT         ?PR?JINGLI_R?BASAL
            CODE    C9FFH     00B4H     UNIT         ?PR?XIYANG_8?QIAOXIYANG
BL51 BANKED LINKER/LOCATER V6.22                                                      06/24/2016  11:44:38  PAGE 5


            CODE    CAB3H     00B0H     UNIT         ?PR?INITIAL_POSITION?BASAL
            CODE    CB63H     009FH     UNIT         ?PR?TICAO?TICAO
            CODE    CC02H     0095H     UNIT         ?PR?_CREATESDCARDFILE?MAIN
            CODE    CC97H     0094H     UNIT         ?PR?_QIANSHOU_5?QIANSHOU
            CODE    CD2BH     008FH     UNIT         ?PR?_CH376FILEOPENDIR?MAIN
            CODE    CDBAH     008DH     UNIT         ?PR?_START_STATUS?WALKING
            CODE    CE47H     008CH     UNIT         ?C_C51STARTUP
            CODE    CED3H     008AH     UNIT         ?PR?QIANSHOU_2?QIANSHOU
            CODE    CF5DH     0089H     UNIT         ?PR?_MP3_SETPLAY?MAIN
            CODE    CFE6H     0086H     UNIT         ?PR?_QHZY_NIU_2?JIEWU
            CODE    D06CH     0083H     UNIT         ?PR?_CH376BYTEREAD?MAIN
            CODE    D0EFH     0080H     UNIT         ?PR?CH376READ32BITDAT?MAIN
            CODE    D16FH     0077H     UNIT         ?PR?_CH376BYTEWRITE?MAIN
            CODE    D1E6H     0073H     UNIT         ?PR?_MAX?BASAL
            CODE    D259H     006BH     UNIT         ?PR?CLEAR_PSXBUFF?MAIN
            CODE    D2C4H     0063H     UNIT         ?PR?PSXKEY_FILTER?MAIN
            CODE    D327H     005FH     UNIT         ?PR?SETJMP?SETJMP
            CODE    D386H     005EH     UNIT         ?PR?FUWEI?BASAL
            CODE    D3E4H     0059H     UNIT         ?PR?READRAM?TUXINGHUA
            CODE    D43DH     0058H     UNIT         ?PR?XREADCH376DATA?MAIN
            CODE    D495H     0058H     UNIT         ?PR?_XIYANG_XIAO7?QIAOXIYANG
            CODE    D4EDH     0055H     UNIT         ?PR?UART1_INTERRUPT?MAIN
            CODE    D542H     0055H     UNIT         ?PR?_LEFT_UP_1?WALKING
            CODE    D597H     0053H     UNIT         ?PR?WAIT376INTERRUPT?MAIN
            CODE    D5EAH     0052H     UNIT         ?PR?SETVALUEPARAS?MAIN
            CODE    D63CH     0050H     UNIT         ?PR?CPU_INIT?MAIN
            CODE    D68CH     004FH     UNIT         ?PR?_CH376WRITEVAR32?MAIN
            CODE    D6DBH     0049H     UNIT         ?PR?_LEFT_UP?WALKING
            CODE    D724H     0049H     UNIT         ?PR?_RIGHT_UP?WALKING
            CODE    D76DH     0049H     UNIT         ?PR?_LEFT_DOWN?WALKING
            CODE    D7B6H     0049H     UNIT         ?PR?_RIGHT_DOWN?WALKING
            CODE    D7FFH     0045H     UNIT         ?PR?_CH376FILEOPEN?MAIN
            CODE    D844H     0042H     UNIT         ?PR?_WRITESDCARDFILEBUFFBYTES?MAIN
            CODE    D886H     0042H     UNIT         ?PR?_LOW_LEVEL_500U?BASAL
            CODE    D8C8H     0042H     UNIT         ?PR?_SIT_DOWN?BASAL
            CODE    D90AH     0042H     UNIT         ?PR?_STAND_UP?BASAL
            CODE    D94CH     0042H     UNIT         ?PR?TABU1?WALKING
            CODE    D98EH     0041H     UNIT         ?PR?BACKDELAY?BASAL
            CODE    D9CFH     0041H     UNIT         ?PR?INITIAL_POSITION_SLOW?BASAL
            CODE    DA10H     0040H     UNIT         ?PR?_XSETCH376CMDDATA?MAIN
            CODE    DA50H     003DH     UNIT         ?PR?_READSDCARDFILE32BYTES?MAIN
            CODE    DA8DH     003CH     UNIT         ?PR?FORWARDDELAY?BASAL
            CODE    DAC9H     003CH     UNIT         ?PR?_LEFT_FORWARD?WALKING
            CODE    DB05H     003CH     UNIT         ?PR?_RIGHT_FORWARD?WALKING
            CODE    DB41H     003BH     UNIT         ?PR?_CH376BYTELOCATE?MAIN
            CODE    DB7CH     003AH     UNIT         ?PR?QIANSHOU_DOINIT?MAIN
            CODE    DBB6H     0039H     UNIT         ?PR?UART_INIT?MAIN
            CODE    DBEFH     0038H     UNIT         ?PR?_CH376WRITEREQBLOCK?MAIN
            CODE    DC27H     0038H     UNIT         ?PR?DOCHECKOUT_ONLINE?MAIN
            CODE    DC5FH     0038H     UNIT         ?PR?_LEFT_CS?WALKING
            CODE    DC97H     0038H     UNIT         ?PR?_RIGHT_CS?WALKING
            CODE    DCCFH     0036H     UNIT         ?PR?_DELAY1S?DELAY
            CODE    DD05H     0035H     UNIT         ?PR?GET_BALANCE_VALUE?ADC
            CODE    DD3AH     0034H     UNIT         ?PR?_XSETCH376CMD?MAIN
            CODE    DD6EH     0033H     UNIT         ?PR?ONLINE_DOINIT?MAIN
            CODE    DDA1H     0032H     UNIT         ?PR?_UART1_PRINTARRAYBYTES?MAIN
            CODE    DDD3H     002EH     UNIT         ?PR?_DUOJI?TUXINGHUA
BL51 BANKED LINKER/LOCATER V6.22                                                      06/24/2016  11:44:38  PAGE 6


            CODE    DE01H     002DH     UNIT         ?PR?UART1SEND_INITPOSITON?MAIN
            CODE    DE2EH     002CH     UNIT         ?PR?MINITCH376HOST?MAIN
            CODE    DE5AH     002AH     UNIT         ?PR?_XWRITECH376CMD?MAIN
            CODE    DE84H     002AH     UNIT         ?PR?_FM300MS?BUZZ
            CODE    DEAEH     002AH     UNIT         ?PR?_FM200MS?BUZZ
            CODE    DED8H     002AH     UNIT         ?PR?_FM100MS?BUZZ
            CODE    DF02H     002AH     UNIT         ?PR?_FM50MS?BUZZ
            CODE    DF2CH     002AH     UNIT         ?PR?_FM1MS?BUZZ
            CODE    DF56H     0028H     UNIT         ?PR?_MP3_SETVOLUME?MAIN
            CODE    DF7EH     0028H     UNIT         ?PR?_DELAY10MS?DELAY
            CODE    DFA6H     0028H     UNIT         ?PR?_DELAY500MS?DELAY
            CODE    DFCEH     0027H     UNIT         ?PR?PUTCHAR?PUTCHAR
            CODE    DFF5H     0025H     UNIT         ?PR?_XWRITECH376DATA?MAIN
            CODE    E01AH     0022H     UNIT         ?PR?UART4_INTERRUPT?MAIN
            CODE    E03CH     0022H     UNIT         ?CO?MAIN
            CODE    E05EH     0022H     UNIT         ?CO?TUXINGHUA
            CODE    E080H     0021H     UNIT         ?PR?QIAOXIYANG?QIAOXIYANG
            CODE    E0A1H     0020H     UNIT         ?PR?UART3_INTERRUPT?MAIN
            CODE    E0C1H     001FH     UNIT         ?PR?GET_PRESENT_VALUE?ADC
            CODE    E0E0H     001EH     UNIT         ?PR?INT0_INTERRUPT?HT1621
            CODE    E0FEH     0019H     UNIT         ?PR?_DELAY100US?DELAY
            CODE    E117H     0019H     UNIT         ?PR?_DELAY1MS?DELAY
            CODE    E130H     0019H     UNIT         ?PR?T0_INTERRUPT?BASAL
            CODE    E149H     0018H     UNIT         ?PR?_UART1_PRINTSTRING?MAIN
            CODE    E161H     0018H     UNIT         ?PR?T0_INIT?BASAL
            CODE    E179H     0017H     UNIT         ?PR?_UART3_PRINTBYTE?MAIN
            CODE    E190H     0016H     UNIT         ?PR?ACCEL_INIT?MAIN
            CODE    E1A6H     0016H     UNIT         ?PR?INF_INIT?HT1621
            CODE    E1BCH     0013H     UNIT         ?PR?_LOW_LEVEL_T0?BASAL
            CODE    E1CFH     0012H     UNIT         ?PR?INIT_SPI?MAIN
            CODE    E1E1H     0012H     UNIT         ?PR?_DELAY8US?DELAY
            CODE    E1F3H     0012H     UNIT         ?PR?_DELAY10US?DELAY
            CODE    E205H     0011H     UNIT         ?PR?_CH376WRITEVAR8?MAIN
            CODE    E216H     0011H     UNIT         ?PR?INITIAL_ADC?ADC
            CODE    E227H     0010H     UNIT         ?PR?_CH376READVAR8?MAIN
            CODE    E237H     0010H     UNIT         ?PR?_CH376READVAR32?MAIN
            CODE    E247H     0010H     UNIT         ?PR?_CH376SENDCMDDATWAITINT?MAIN
            CODE    E257H     000EH     UNIT         ?PR?_CH376FILECREATE?MAIN
            CODE    E265H     000CH     UNIT         ?PR?START_ADC?ADC
            CODE    E271H     000CH     UNIT         ?PR?_ABS?ABS
            CODE    E27DH     000BH     UNIT         ?PR?QUERY376INTERRUPT?MAIN
            CODE    E288H     000AH     UNIT         ?PR?_UART1_PRINTBYTE?MAIN
            CODE    E292H     0009H     UNIT         ?PR?CH376GETINTSTATUS?MAIN
            CODE    E29BH     0008H     UNIT         ?PR?DELAY3US_PSX?MAIN
            CODE    E2A3H     0008H     UNIT         ?CO?BASAL
            CODE    E2ABH     0007H     UNIT         ?PR?CH376ENDDIRINFO?MAIN
            CODE    E2B2H     0007H     UNIT         ?PR?_CH376SENDCMDWAITINT?MAIN
            CODE    E2B9H     0006H     UNIT         ?PR?CH376GETFILESIZE?MAIN
            CODE    E2BFH     0006H     UNIT         ?PR?CH376GETDISKSTATUS?MAIN
            CODE    E2C5H     0006H     UNIT         ?PR?_RIGHT_UP_1?WALKING
            CODE    E2CBH     0006H     UNIT         ?PR?_WALK1?WALKING



OVERLAY MAP OF MODULE:   ProjectTarget (MAIN)


BL51 BANKED LINKER/LOCATER V6.22                                                      06/24/2016  11:44:38  PAGE 7


SEGMENT                                        BIT_GROUP          DATA_GROUP          XDATA_GROUP
  +--> CALLED SEGMENT                       START    LENGTH     START    LENGTH     START    LENGTH
---------------------------------------------------------------------------------------------------
?PR?ADC_INT?ADC                             -----    -----      -----    -----      01D9H    0003H

*** NEW ROOT ***************************************************

?C_C51STARTUP                               -----    -----      -----    -----      -----    -----
  +--> ?PR?MAIN?MAIN
  +--> ?C_INITSEG

?PR?MAIN?MAIN                               -----    -----      -----    -----      01DCH    0007H
  +--> ?PR?CPU_INIT?MAIN
  +--> ?PR?_FM100MS?BUZZ
  +--> ?PR?QIANSHOU_DOINIT?MAIN
  +--> ?PR?INITIAL_POSITION?BASAL
  +--> ?PR?ACCEL_INIT?MAIN
  +--> ?PR?_MP3_SETVOLUME?MAIN
  +--> ?PR?_FM200MS?BUZZ
  +--> ?PR?_MP3_SETPLAY?MAIN
  +--> ?PR?SETJMP?SETJMP
  +--> ?PR?DOCHECKOUT_ONLINE?MAIN
  +--> ?PR?ONLINE_DOINIT?MAIN
  +--> ?PR?_DELAY1S?DELAY
  +--> ?PR?MAIN1?TUXINGHUA
  +--> ?PR?_START_STATUS?WALKING
  +--> ?PR?KUAIZOU2?WALKING
  +--> ?PR?KUAIZOU1?WALKING
  +--> ?PR?HOUTUI2?WALKING
  +--> ?PR?HOUTUI1?WALKING
  +--> ?PR?_TURN_LEFT?BASAL
  +--> ?PR?_TURN_RIGHT?BASAL
  +--> ?PR?QGF?BASAL
  +--> ?PR?HGF?BASAL
  +--> ?PR?_L_PYI?BASAL
  +--> ?PR?_R_PYI?BASAL
  +--> ?PR?_INITIAL_POSITION_SLOWONE?BASAL
  +--> ?PR?_LOCATION?TUXINGHUA
  +--> ?PR?ADC_ADJUST?ADC
  +--> ?PR?_DELAY100US?DELAY
  +--> ?PR?OBTAIN_PSXCODE?MAIN
  +--> ?PR?PSXKEY_FILTER?MAIN
  +--> ?PR?_FWC?BASAL
  +--> ?PR?YOUGOUQIU?BASAL
  +--> ?PR?ZUOGOUQIU?BASAL
  +--> ?PR?_YANGWOQIZUO?BASAL
  +--> ?PR?_GOAL_R?BASAL
  +--> ?PR?_GOAL_L?BASAL
  +--> ?PR?CLEAR_PSXBUFF?MAIN
  +--> ?PR?JIEWU?JIEWU
  +--> ?PR?TICAO?TICAO
  +--> ?PR?QIANSHOU?QIANSHOU
  +--> ?PR?QIAOXIYANG?QIAOXIYANG
  +--> ?PR?DT_L?BASAL
  +--> ?PR?DT_R?BASAL
  +--> ?PR?WUDAO?BASAL
  +--> ?PR?QIANPAXIA?BASAL
BL51 BANKED LINKER/LOCATER V6.22                                                      06/24/2016  11:44:38  PAGE 8


  +--> ?PR?QIANPQ?BASAL
  +--> ?PR?DAOLI?BASAL
  +--> ?PR?HP?BASAL
  +--> ?PR?HPQ?BASAL
  +--> ?PR?PCH?BASAL
  +--> ?PR?SETVALUEPARAS?MAIN
  +--> ?PR?_WALK?WALKING
  +--> ?PR?_RELATIVE?BASAL
  +--> ?PR?_HOUTUI?WALKING
  +--> ?PR?_P_TO_P?BASAL
  +--> ?PR?_DELAY10MS?DELAY

?PR?CPU_INIT?MAIN                           -----    -----      -----    -----      -----    -----
  +--> ?PR?UART_INIT?MAIN
  +--> ?PR?INF_INIT?HT1621
  +--> ?PR?T0_INIT?BASAL
  +--> ?PR?INIT_SPI?MAIN
  +--> ?PR?MINITCH376HOST?MAIN

?PR?MINITCH376HOST?MAIN                     -----    -----      -----    -----      -----    -----
  +--> ?PR?_XSETCH376CMDDATA?MAIN
  +--> ?PR?_XSETCH376CMD?MAIN
  +--> ?PR?_XWRITECH376CMD?MAIN
  +--> ?PR?_XWRITECH376DATA?MAIN
  +--> ?PR?UART4_RESETBAUTERATE?MAIN
  +--> ?PR?XREADCH376DATA?MAIN

?PR?XREADCH376DATA?MAIN                     -----    -----      -----    -----      0238H    0004H
  +--> ?PR?_XWRITECH376CMD?MAIN

?PR?_FM100MS?BUZZ                           -----    -----      -----    -----      01F6H    0002H
  +--> ?PR?_DELAY10MS?DELAY

?PR?_DELAY10MS?DELAY                        -----    -----      -----    -----      0249H    0002H
  +--> ?PR?_DELAY1MS?DELAY

?PR?_DELAY1MS?DELAY                         -----    -----      -----    -----      -----    -----
  +--> ?PR?_DELAY10US?DELAY

?PR?QIANSHOU_DOINIT?MAIN                    -----    -----      -----    -----      01E3H    000AH
  +--> ?CO?MAIN
  +--> ?PR?_READSDCARDFILE32BYTES?MAIN

?PR?_READSDCARDFILE32BYTES?MAIN             -----    -----      -----    -----      0226H    0002H
  +--> ?PR?_CH376FILEOPENDIR?MAIN
  +--> ?PR?_CH376BYTELOCATE?MAIN
  +--> ?PR?_CH376BYTEREAD?MAIN
  +--> ?PR?_CH376SENDCMDDATWAITINT?MAIN

?PR?_CH376FILEOPENDIR?MAIN                  -----    -----      -----    -----      0228H    0005H
  +--> ?PR?_CH376FILEOPEN?MAIN

?PR?_CH376FILEOPEN?MAIN                     -----    -----      -----    -----      022DH    0003H
  +--> ?PR?_CH376SETFILENAME?MAIN
  +--> ?PR?_CH376WRITEVAR32?MAIN
  +--> ?PR?_CH376SENDCMDWAITINT?MAIN

BL51 BANKED LINKER/LOCATER V6.22                                                      06/24/2016  11:44:38  PAGE 9


?PR?_CH376SETFILENAME?MAIN                  -----    -----      -----    -----      0230H    0004H
  +--> ?PR?_XWRITECH376CMD?MAIN
  +--> ?PR?XREADCH376DATA?MAIN
  +--> ?PR?_CH376READVAR8?MAIN
  +--> ?PR?_XWRITECH376DATA?MAIN
  +--> ?PR?_CH376SENDCMDWAITINT?MAIN
  +--> ?PR?_CH376READVAR32?MAIN
  +--> ?PR?_CH376WRITEVAR32?MAIN

?PR?_CH376READVAR8?MAIN                     -----    -----      -----    -----      -----    -----
  +--> ?PR?_XWRITECH376CMD?MAIN
  +--> ?PR?_XWRITECH376DATA?MAIN
  +--> ?PR?XREADCH376DATA?MAIN

?PR?_CH376SENDCMDWAITINT?MAIN               -----    -----      -----    -----      -----    -----
  +--> ?PR?_XWRITECH376CMD?MAIN
  +--> ?PR?WAIT376INTERRUPT?MAIN

?PR?WAIT376INTERRUPT?MAIN                   -----    -----      -----    -----      0234H    0004H
  +--> ?PR?QUERY376INTERRUPT?MAIN
  +--> ?PR?CH376GETINTSTATUS?MAIN

?PR?CH376GETINTSTATUS?MAIN                  -----    -----      -----    -----      -----    -----
  +--> ?PR?_XWRITECH376CMD?MAIN
  +--> ?PR?XREADCH376DATA?MAIN

?PR?_CH376READVAR32?MAIN                    -----    -----      -----    -----      -----    -----
  +--> ?PR?_XWRITECH376CMD?MAIN
  +--> ?PR?_XWRITECH376DATA?MAIN
  +--> ?PR?CH376READ32BITDAT?MAIN

?PR?CH376READ32BITDAT?MAIN                  -----    -----      -----    -----      0234H    0004H
  +--> ?PR?XREADCH376DATA?MAIN

?PR?_CH376WRITEVAR32?MAIN                   -----    -----      -----    -----      0234H    0005H
  +--> ?PR?_XWRITECH376CMD?MAIN
  +--> ?PR?_XWRITECH376DATA?MAIN

?PR?_CH376BYTELOCATE?MAIN                   -----    -----      -----    -----      0228H    0004H
  +--> ?PR?_XWRITECH376CMD?MAIN
  +--> ?PR?_XWRITECH376DATA?MAIN
  +--> ?PR?WAIT376INTERRUPT?MAIN

?PR?_CH376BYTEREAD?MAIN                     -----    -----      -----    -----      0228H    0008H
  +--> ?PR?_XWRITECH376CMD?MAIN
  +--> ?PR?_XWRITECH376DATA?MAIN
  +--> ?PR?WAIT376INTERRUPT?MAIN
  +--> ?PR?_CH376READBLOCK?MAIN

?PR?_CH376READBLOCK?MAIN                    -----    -----      -----    -----      0230H    0005H
  +--> ?PR?XREADCH376DATA?MAIN

?PR?_CH376SENDCMDDATWAITINT?MAIN            -----    -----      -----    -----      -----    -----
  +--> ?PR?_XWRITECH376CMD?MAIN
  +--> ?PR?_XWRITECH376DATA?MAIN
  +--> ?PR?WAIT376INTERRUPT?MAIN

BL51 BANKED LINKER/LOCATER V6.22                                                      06/24/2016  11:44:38  PAGE 10


?PR?INITIAL_POSITION?BASAL                  -----    -----      -----    -----      021BH    000BH
  +--> ?CO?BASAL
  +--> ?PR?_READSDCARDFILE32BYTES?MAIN
  +--> ?PR?PWM_24?MAIN
  +--> ?PR?_LOW_LEVEL_500U?BASAL

?PR?PWM_24?MAIN                             -----    -----      -----    -----      0246H    0002H
  +--> ?PR?ARRAY?BASAL
  +--> ?PR?_LOW_LEVEL_T0?BASAL
  +--> ?PR?_DELAY500US?DELAY
  +--> ?PR?_DELAY8US?DELAY
  +--> ?PR?ADC_ADJUST?ADC
  +--> ?PR?SETJMP?SETJMP

?PR?ADC_ADJUST?ADC                          -----    -----      -----    -----      0248H    0001H
  +--> ?PR?GET_PRESENT_VALUE?ADC
  +--> ?PR?_DELAY500US?DELAY
  +--> ?PR?_DELAY500MS?DELAY
  +--> ?PR?HPQ?BASAL
  +--> ?PR?QIANPQ?BASAL

?PR?GET_PRESENT_VALUE?ADC                   -----    -----      -----    -----      -----    -----
  +--> ?PR?START_ADC?ADC

?PR?_DELAY500MS?DELAY                       -----    -----      -----    -----      0249H    0002H
  +--> ?PR?_DELAY1MS?DELAY

?PR?HPQ?BASAL                               -----    -----      -----    -----      -----    -----
  +--> ?PR?_RELATIVE?BASAL
  +--> ?PR?_DELAY10MS?DELAY

?PR?_RELATIVE?BASAL                         -----    -----      -----    -----      0249H    002DH

?PR?QIANPQ?BASAL                            -----    -----      -----    -----      -----    -----
  +--> ?PR?_RELATIVE?BASAL
  +--> ?PR?_DELAY10MS?DELAY

?PR?_LOW_LEVEL_500U?BASAL                   -----    -----      -----    -----      0246H    0004H
  +--> ?PR?_DELAY500US?DELAY

?PR?ACCEL_INIT?MAIN                         -----    -----      -----    -----      -----    -----
  +--> ?PR?_DELAY500US?DELAY
  +--> ?PR?INITIAL_ADC?ADC
  +--> ?PR?GET_BALANCE_VALUE?ADC

?PR?GET_BALANCE_VALUE?ADC                   -----    -----      -----    -----      -----    -----
  +--> ?PR?START_ADC?ADC

?PR?_MP3_SETVOLUME?MAIN                     -----    -----      -----    -----      -----    -----
  +--> ?PR?_UART3_PRINTBYTE?MAIN

?PR?_FM200MS?BUZZ                           -----    -----      -----    -----      01F6H    0002H
  +--> ?PR?_DELAY10MS?DELAY

?PR?_MP3_SETPLAY?MAIN                       -----    -----      -----    -----      -----    -----
  +--> ?PR?_UART3_PRINTBYTE?MAIN

BL51 BANKED LINKER/LOCATER V6.22                                                      06/24/2016  11:44:38  PAGE 11


?PR?DOCHECKOUT_ONLINE?MAIN                  -----    -----      -----    -----      01E3H    0002H
  +--> ?PR?READRAM?TUXINGHUA
  +--> ?PR?_DELAY10MS?DELAY

?PR?ONLINE_DOINIT?MAIN                      -----    -----      -----    -----      01E3H    000AH
  +--> ?PR?_UART1_PRINTBYTE?MAIN
  +--> ?PR?_DELAY1S?DELAY
  +--> ?CO?MAIN
  +--> ?PR?_READSDCARDFILE32BYTES?MAIN
  +--> ?PR?UART1SEND_INITPOSITON?MAIN

?PR?_DELAY1S?DELAY                          -----    -----      -----    -----      021EH    0003H
  +--> ?PR?_DELAY10MS?DELAY

?PR?UART1SEND_INITPOSITON?MAIN              -----    -----      -----    -----      01EDH    0001H
  +--> ?PR?_UART1_PRINTBYTE?MAIN
  +--> ?PR?_DELAY10MS?DELAY

?PR?MAIN1?TUXINGHUA                         0020H.0  0000H.1    -----    -----      01E3H    0013H
  +--> ?PR?READRAM?TUXINGHUA
  +--> ?CO?TUXINGHUA
  +--> ?PR?PRINTF?PRINTF
  +--> ?PR?_CH376FILEOPENDIR?MAIN
  +--> ?PR?_CH376READVAR32?MAIN
  +--> ?PR?_WRITESDCARDFILEBUFFBYTES?MAIN
  +--> ?PR?_DUOJI?TUXINGHUA
  +--> ?PR?_FM200MS?BUZZ
  +--> ?PR?_UART1_PRINTBYTE?MAIN
  +--> ?PR?_READSDCARDFILEALLBYTES?MAIN
  +--> ?PR?_DELAY10MS?DELAY
  +--> ?PR?_FM100MS?BUZZ
  +--> ?PR?_DELAY500MS?DELAY
  +--> ?PR?_CREATESDCARDFILE?MAIN
  +--> ?PR?_P_TO_P?BASAL

?PR?PRINTF?PRINTF                           0020H.1  0001H.1    0008H    0005H      0204H    0030H
  +--> ?PR?PUTCHAR?PUTCHAR

?PR?_WRITESDCARDFILEBUFFBYTES?MAIN          -----    -----      -----    -----      01F6H    0004H
  +--> ?PR?_CH376FILEOPENDIR?MAIN
  +--> ?PR?_CH376BYTELOCATE?MAIN
  +--> ?PR?_CH376BYTEWRITE?MAIN
  +--> ?PR?_CH376SENDCMDDATWAITINT?MAIN

?PR?_CH376BYTEWRITE?MAIN                    -----    -----      -----    -----      01FAH    0008H
  +--> ?PR?_XWRITECH376CMD?MAIN
  +--> ?PR?_XWRITECH376DATA?MAIN
  +--> ?PR?WAIT376INTERRUPT?MAIN
  +--> ?PR?_CH376WRITEREQBLOCK?MAIN

?PR?_CH376WRITEREQBLOCK?MAIN                -----    -----      -----    -----      0202H    0003H
  +--> ?PR?XREADCH376DATA?MAIN
  +--> ?PR?_XWRITECH376DATA?MAIN

?PR?_DUOJI?TUXINGHUA                        -----    -----      -----    -----      -----    -----
  +--> ?PR?_P_TO_P?BASAL

BL51 BANKED LINKER/LOCATER V6.22                                                      06/24/2016  11:44:38  PAGE 12


?PR?_P_TO_P?BASAL                           -----    -----      -----    -----      021EH    0028H
  +--> ?PR?_MAX?BASAL
  +--> ?PR?PWM_24?MAIN
  +--> ?PR?_LOW_LEVEL_500U?BASAL

?PR?_MAX?BASAL                              -----    -----      -----    -----      0246H    0004H
  +--> ?PR?_ABS?ABS

?PR?_READSDCARDFILEALLBYTES?MAIN            -----    -----      -----    -----      01F6H    000EH
  +--> ?PR?_CH376FILEOPENDIR?MAIN
  +--> ?PR?CH376GETFILESIZE?MAIN
  +--> ?PR?_CH376BYTELOCATE?MAIN
  +--> ?PR?_CH376BYTEREAD?MAIN
  +--> ?PR?_UART1_PRINTARRAYBYTES?MAIN
  +--> ?PR?_CH376SENDCMDDATWAITINT?MAIN

?PR?CH376GETFILESIZE?MAIN                   -----    -----      -----    -----      -----    -----
  +--> ?PR?_CH376READVAR32?MAIN

?PR?_UART1_PRINTARRAYBYTES?MAIN             -----    -----      -----    -----      0204H    0002H

?PR?_CREATESDCARDFILE?MAIN                  -----    -----      -----    -----      01F6H    0009H
  +--> ?PR?_CH376SEPARATEPATH?MAIN
  +--> ?PR?_CH376FILEOPENDIR?MAIN
  +--> ?PR?_CH376READVAR32?MAIN
  +--> ?PR?_CH376FILECREATE?MAIN
  +--> ?PR?_CH376SENDCMDDATWAITINT?MAIN

?PR?_CH376SEPARATEPATH?MAIN                 -----    -----      -----    -----      01FFH    0006H

?PR?_CH376FILECREATE?MAIN                   -----    -----      -----    -----      -----    -----
  +--> ?PR?_CH376SETFILENAME?MAIN
  +--> ?PR?_CH376SENDCMDWAITINT?MAIN

?PR?_START_STATUS?WALKING                   -----    -----      -----    -----      01E3H    0001H
  +--> ?PR?_RELATIVE?BASAL
  +--> ?PR?_P_TO_P?BASAL

?PR?KUAIZOU2?WALKING                        -----    -----      -----    -----      01E3H    0001H
  +--> ?PR?_RELATIVE?BASAL
  +--> ?PR?_P_TO_P?BASAL

?PR?KUAIZOU1?WALKING                        -----    -----      -----    -----      01E3H    0001H
  +--> ?PR?_RELATIVE?BASAL
  +--> ?PR?_P_TO_P?BASAL

?PR?HOUTUI2?WALKING                         -----    -----      -----    -----      01E3H    0001H
  +--> ?PR?_RELATIVE?BASAL
  +--> ?PR?_P_TO_P?BASAL

?PR?HOUTUI1?WALKING                         -----    -----      -----    -----      01E3H    0001H
  +--> ?PR?_RELATIVE?BASAL
  +--> ?PR?_P_TO_P?BASAL

?PR?_TURN_LEFT?BASAL                        -----    -----      -----    -----      0217H    0002H
  +--> ?PR?_RELATIVE?BASAL
  +--> ?PR?_P_TO_P?BASAL
BL51 BANKED LINKER/LOCATER V6.22                                                      06/24/2016  11:44:38  PAGE 13



?PR?_TURN_RIGHT?BASAL                       -----    -----      -----    -----      0217H    0002H
  +--> ?PR?_RELATIVE?BASAL
  +--> ?PR?_P_TO_P?BASAL

?PR?QGF?BASAL                               -----    -----      -----    -----      -----    -----
  +--> ?PR?_RELATIVE?BASAL
  +--> ?PR?_P_TO_P?BASAL

?PR?HGF?BASAL                               -----    -----      -----    -----      -----    -----
  +--> ?PR?_RELATIVE?BASAL
  +--> ?PR?_P_TO_P?BASAL
  +--> ?PR?_DELAY10MS?DELAY

?PR?_L_PYI?BASAL                            -----    -----      -----    -----      0217H    0002H
  +--> ?PR?_RELATIVE?BASAL
  +--> ?PR?_P_TO_P?BASAL

?PR?_R_PYI?BASAL                            -----    -----      -----    -----      0217H    0002H
  +--> ?PR?_RELATIVE?BASAL
  +--> ?PR?_P_TO_P?BASAL

?PR?_INITIAL_POSITION_SLOWONE?BASAL         -----    -----      -----    -----      01E3H    0001H
  +--> ?PR?_RELATIVE?BASAL
  +--> ?PR?_P_TO_P?BASAL

?PR?_LOCATION?TUXINGHUA                     -----    -----      -----    -----      01E3H    0021H
  +--> ?CO?TUXINGHUA
  +--> ?PR?PRINTF?PRINTF
  +--> ?PR?_CH376FILEOPENDIR?MAIN
  +--> ?PR?_CH376READVAR32?MAIN
  +--> ?PR?_CH376BYTELOCATE?MAIN
  +--> ?PR?_CH376BYTEREAD?MAIN
  +--> ?PR?_UART3_PRINTBYTE?MAIN
  +--> ?PR?DAOLI?BASAL
  +--> ?PR?PCH?BASAL
  +--> ?PR?_TURN_LEFT?BASAL
  +--> ?PR?_WALK?WALKING
  +--> ?PR?_TURN_RIGHT?BASAL
  +--> ?PR?_L_PYI?BASAL
  +--> ?PR?_FWC?BASAL
  +--> ?PR?_R_PYI?BASAL
  +--> ?PR?_GOAL_L?BASAL
  +--> ?PR?_YANGWOQIZUO?BASAL
  +--> ?PR?_GOAL_R?BASAL
  +--> ?PR?JINGLI_L?BASAL
  +--> ?PR?JINGLI_R?BASAL
  +--> ?PR?QIAOXIYANG?QIAOXIYANG
  +--> ?PR?JIEWU?JIEWU
  +--> ?PR?QIANSHOU?QIANSHOU
  +--> ?PR?TICAO?TICAO
  +--> ?PR?QGF?BASAL
  +--> ?PR?HGF?BASAL
  +--> ?PR?QIANPAXIA?BASAL
  +--> ?PR?QIANPQ?BASAL
  +--> ?PR?HP?BASAL
  +--> ?PR?HPQ?BASAL
BL51 BANKED LINKER/LOCATER V6.22                                                      06/24/2016  11:44:38  PAGE 14


  +--> ?PR?TAIJIAOZI?BASAL
  +--> ?PR?_P_TO_P?BASAL
  +--> ?PR?_DELAY10MS?DELAY
  +--> ?PR?_CYC?TUXINGHUA
  +--> ?PR?_CH376SENDCMDDATWAITINT?MAIN

?PR?DAOLI?BASAL                             -----    -----      -----    -----      0217H    0002H
  +--> ?PR?INITIAL_POSITION?BASAL
  +--> ?PR?_RELATIVE?BASAL
  +--> ?PR?_P_TO_P?BASAL
  +--> ?PR?_DELAY1S?DELAY

?PR?PCH?BASAL                               -----    -----      -----    -----      -----    -----
  +--> ?PR?_RELATIVE?BASAL
  +--> ?PR?_P_TO_P?BASAL
  +--> ?PR?_DELAY1S?DELAY

?PR?_WALK?WALKING                           -----    -----      -----    -----      0217H    0002H
  +--> ?PR?_SIT_DOWN?BASAL
  +--> ?PR?_DELAY500MS?DELAY
  +--> ?PR?_LEFT_CS?WALKING
  +--> ?PR?_RIGHT_UP?WALKING
  +--> ?PR?_RIGHT_FORWARD?WALKING
  +--> ?PR?_RIGHT_DOWN?WALKING
  +--> ?PR?_RIGHT_CS?WALKING
  +--> ?PR?_LEFT_UP?WALKING
  +--> ?PR?_LEFT_FORWARD?WALKING
  +--> ?PR?_LEFT_DOWN?WALKING
  +--> ?PR?_STAND_UP?BASAL

?PR?_SIT_DOWN?BASAL                         -----    -----      -----    -----      021AH    0002H
  +--> ?PR?PWM_24?MAIN
  +--> ?PR?_LOW_LEVEL_500U?BASAL

?PR?_LEFT_CS?WALKING                        -----    -----      -----    -----      0219H    0002H
  +--> ?PR?PWM_24?MAIN
  +--> ?PR?_LOW_LEVEL_500U?BASAL

?PR?_RIGHT_UP?WALKING                       -----    -----      -----    -----      0219H    0002H
  +--> ?PR?PWM_24?MAIN
  +--> ?PR?_LOW_LEVEL_500U?BASAL

?PR?_RIGHT_FORWARD?WALKING                  -----    -----      -----    -----      0219H    0002H
  +--> ?PR?PWM_24?MAIN
  +--> ?PR?_LOW_LEVEL_500U?BASAL

?PR?_RIGHT_DOWN?WALKING                     -----    -----      -----    -----      0219H    0002H
  +--> ?PR?PWM_24?MAIN
  +--> ?PR?_LOW_LEVEL_500U?BASAL

?PR?_RIGHT_CS?WALKING                       -----    -----      -----    -----      0219H    0002H
  +--> ?PR?PWM_24?MAIN
  +--> ?PR?_LOW_LEVEL_500U?BASAL

?PR?_LEFT_UP?WALKING                        -----    -----      -----    -----      0219H    0002H
  +--> ?PR?PWM_24?MAIN
  +--> ?PR?_LOW_LEVEL_500U?BASAL
BL51 BANKED LINKER/LOCATER V6.22                                                      06/24/2016  11:44:38  PAGE 15



?PR?_LEFT_FORWARD?WALKING                   -----    -----      -----    -----      0219H    0002H
  +--> ?PR?PWM_24?MAIN
  +--> ?PR?_LOW_LEVEL_500U?BASAL

?PR?_LEFT_DOWN?WALKING                      -----    -----      -----    -----      0219H    0002H
  +--> ?PR?PWM_24?MAIN
  +--> ?PR?_LOW_LEVEL_500U?BASAL

?PR?_STAND_UP?BASAL                         -----    -----      -----    -----      021AH    0002H
  +--> ?PR?PWM_24?MAIN
  +--> ?PR?_LOW_LEVEL_500U?BASAL

?PR?_FWC?BASAL                              -----    -----      -----    -----      0217H    0003H
  +--> ?PR?INITIAL_POSITION?BASAL
  +--> ?PR?_RELATIVE?BASAL
  +--> ?PR?_P_TO_P?BASAL
  +--> ?PR?PWM_24?MAIN
  +--> ?PR?_LOW_LEVEL_500U?BASAL
  +--> ?PR?_DELAY10MS?DELAY

?PR?_GOAL_L?BASAL                           -----    -----      -----    -----      0217H    0002H
  +--> ?PR?_RELATIVE?BASAL
  +--> ?PR?_P_TO_P?BASAL
  +--> ?PR?_DELAY500MS?DELAY

?PR?_YANGWOQIZUO?BASAL                      -----    -----      -----    -----      0217H    0003H
  +--> ?PR?HP?BASAL
  +--> ?PR?_DELAY10MS?DELAY
  +--> ?PR?PWM_24?MAIN
  +--> ?PR?_LOW_LEVEL_500U?BASAL
  +--> ?PR?_DELAY1MS?DELAY
  +--> ?PR?_RELATIVE?BASAL
  +--> ?PR?_P_TO_P?BASAL
  +--> ?PR?HPQ?BASAL

?PR?HP?BASAL                                -----    -----      -----    -----      -----    -----
  +--> ?PR?_RELATIVE?BASAL
  +--> ?PR?_P_TO_P?BASAL
  +--> ?PR?_DELAY10MS?DELAY
  +--> ?PR?INITIAL_POSITION?BASAL

?PR?_GOAL_R?BASAL                           -----    -----      -----    -----      0217H    0002H
  +--> ?PR?_RELATIVE?BASAL
  +--> ?PR?_P_TO_P?BASAL
  +--> ?PR?_DELAY500MS?DELAY

?PR?JINGLI_L?BASAL                          -----    -----      -----    -----      0219H    0001H
  +--> ?PR?_STAND_UP?BASAL
  +--> ?PR?PWM_24?MAIN
  +--> ?PR?_LOW_LEVEL_500U?BASAL
  +--> ?PR?_DELAY500MS?DELAY
  +--> ?PR?_SIT_DOWN?BASAL

?PR?JINGLI_R?BASAL                          -----    -----      -----    -----      0217H    0001H
  +--> ?PR?_STAND_UP?BASAL
  +--> ?PR?PWM_24?MAIN
BL51 BANKED LINKER/LOCATER V6.22                                                      06/24/2016  11:44:38  PAGE 16


  +--> ?PR?_LOW_LEVEL_500U?BASAL
  +--> ?PR?_DELAY1S?DELAY
  +--> ?PR?_SIT_DOWN?BASAL

?PR?QIAOXIYANG?QIAOXIYANG                   -----    -----      -----    -----      -----    -----
  +--> ?PR?XIYANG_6?QIAOXIYANG
  +--> ?PR?XIYANG_4?QIAOXIYANG
  +--> ?PR?XIYANG_3?QIAOXIYANG
  +--> ?PR?XIYANG_5?QIAOXIYANG
  +--> ?PR?XIYANG_2?QIAOXIYANG
  +--> ?PR?XIYANG_9?QIAOXIYANG
  +--> ?PR?XIYANG_1?QIAOXIYANG
  +--> ?PR?XIYANG_7?QIAOXIYANG
  +--> ?PR?XIYANG_10?QIAOXIYANG
  +--> ?PR?XIYANG_8?QIAOXIYANG

?PR?XIYANG_6?QIAOXIYANG                     -----    -----      -----    -----      0217H    0004H
  +--> ?PR?PWM_24?MAIN
  +--> ?PR?_LOW_LEVEL_500U?BASAL
  +--> ?PR?_DELAY10MS?DELAY
  +--> ?PR?_DELAY500MS?DELAY
  +--> ?PR?INITIAL_POSITION?BASAL

?PR?XIYANG_5?QIAOXIYANG                     -----    -----      -----    -----      0217H    0002H
  +--> ?PR?PWM_24?MAIN
  +--> ?PR?_LOW_LEVEL_500U?BASAL
  +--> ?PR?_DELAY10MS?DELAY
  +--> ?PR?FORWARDDELAY?BASAL
  +--> ?PR?_DELAY500MS?DELAY
  +--> ?PR?BACKDELAY?BASAL
  +--> ?PR?INITIAL_POSITION?BASAL

?PR?FORWARDDELAY?BASAL                      -----    -----      -----    -----      021EH    0001H
  +--> ?PR?_DELAY10MS?DELAY

?PR?BACKDELAY?BASAL                         -----    -----      -----    -----      021EH    0001H
  +--> ?PR?_DELAY10MS?DELAY

?PR?XIYANG_9?QIAOXIYANG                     -----    -----      -----    -----      0217H    0002H
  +--> ?PR?PWM_24?MAIN
  +--> ?PR?_LOW_LEVEL_500U?BASAL
  +--> ?PR?_DELAY10MS?DELAY
  +--> ?PR?INITIAL_POSITION?BASAL

?PR?XIYANG_7?QIAOXIYANG                     -----    -----      -----    -----      0217H    0003H
  +--> ?PR?PWM_24?MAIN
  +--> ?PR?_LOW_LEVEL_500U?BASAL
  +--> ?PR?_XIYANG_XIAO7?QIAOXIYANG
  +--> ?PR?_DELAY10MS?DELAY
  +--> ?PR?_DELAY500MS?DELAY
  +--> ?PR?INITIAL_POSITION?BASAL

?PR?_XIYANG_XIAO7?QIAOXIYANG                -----    -----      -----    -----      021AH    0002H
  +--> ?PR?PWM_24?MAIN
  +--> ?PR?_LOW_LEVEL_500U?BASAL

?PR?XIYANG_10?QIAOXIYANG                    -----    -----      -----    -----      0217H    0002H
BL51 BANKED LINKER/LOCATER V6.22                                                      06/24/2016  11:44:38  PAGE 17


  +--> ?PR?PWM_24?MAIN
  +--> ?PR?_LOW_LEVEL_500U?BASAL
  +--> ?PR?_DELAY10MS?DELAY
  +--> ?PR?INITIAL_POSITION?BASAL

?PR?XIYANG_8?QIAOXIYANG                     -----    -----      -----    -----      0217H    0001H
  +--> ?PR?PWM_24?MAIN
  +--> ?PR?_LOW_LEVEL_500U?BASAL
  +--> ?PR?_DELAY1S?DELAY
  +--> ?PR?INITIAL_POSITION?BASAL

?PR?JIEWU?JIEWU                             -----    -----      -----    -----      -----    -----
  +--> ?PR?INITIAL_POSITION?BASAL
  +--> ?PR?_DELAY500MS?DELAY
  +--> ?PR?YAOBIBAITOU?JIEWU
  +--> ?PR?DPZHCH?JIEWU
  +--> ?PR?_SHOU_DD?JIEWU
  +--> ?PR?QHZY_NIU?JIEWU
  +--> ?PR?_WDL_PYI?JIEWU
  +--> ?PR?_FWC?BASAL
  +--> ?PR?HFH_R?JIEWU
  +--> ?PR?_WDR_PYI?JIEWU
  +--> ?PR?HFH_L?JIEWU
  +--> ?PR?JINGLI_R?BASAL
  +--> ?PR?JINGLI_L?BASAL

?PR?YAOBIBAITOU?JIEWU                       -----    -----      -----    -----      0217H    0003H
  +--> ?PR?PWM_24?MAIN
  +--> ?PR?_LOW_LEVEL_500U?BASAL
  +--> ?PR?_DELAY10MS?DELAY

?PR?DPZHCH?JIEWU                            -----    -----      -----    -----      0217H    0003H
  +--> ?PR?_SIT_DOWN?BASAL
  +--> ?PR?PWM_24?MAIN
  +--> ?PR?_LOW_LEVEL_500U?BASAL
  +--> ?PR?_DPZC_1?JIEWU
  +--> ?PR?_STAND_UP?BASAL

?PR?_DPZC_1?JIEWU                           -----    -----      -----    -----      021AH    0002H
  +--> ?PR?PWM_24?MAIN
  +--> ?PR?_LOW_LEVEL_500U?BASAL

?PR?_SHOU_DD?JIEWU                          -----    -----      -----    -----      0217H    0004H
  +--> ?PR?PWM_24?MAIN
  +--> ?PR?_LOW_LEVEL_500U?BASAL

?PR?QHZY_NIU?JIEWU                          -----    -----      -----    -----      0217H    0002H
  +--> ?PR?_SIT_DOWN?BASAL
  +--> ?PR?PWM_24?MAIN
  +--> ?PR?_LOW_LEVEL_500U?BASAL
  +--> ?PR?_DELAY1S?DELAY
  +--> ?PR?_DELAY500MS?DELAY
  +--> ?PR?_QHZY_NIU_2?JIEWU
  +--> ?PR?_STAND_UP?BASAL

?PR?_QHZY_NIU_2?JIEWU                       -----    -----      -----    -----      0219H    0003H
  +--> ?PR?PWM_24?MAIN
BL51 BANKED LINKER/LOCATER V6.22                                                      06/24/2016  11:44:38  PAGE 18


  +--> ?PR?_LOW_LEVEL_500U?BASAL

?PR?_WDL_PYI?JIEWU                          -----    -----      -----    -----      0217H    0003H
  +--> ?PR?_SIT_DOWN?BASAL
  +--> ?PR?PWM_24?MAIN
  +--> ?PR?_LOW_LEVEL_500U?BASAL
  +--> ?PR?_DELAY500MS?DELAY
  +--> ?PR?_STAND_UP?BASAL

?PR?HFH_R?JIEWU                             -----    -----      -----    -----      0217H    0002H
  +--> ?PR?PWM_24?MAIN
  +--> ?PR?_LOW_LEVEL_500U?BASAL
  +--> ?PR?_SIT_DOWN?BASAL
  +--> ?PR?_DELAY10MS?DELAY
  +--> ?PR?_STAND_UP?BASAL
  +--> ?PR?INITIAL_POSITION?BASAL

?PR?_WDR_PYI?JIEWU                          -----    -----      -----    -----      0217H    0003H
  +--> ?PR?_SIT_DOWN?BASAL
  +--> ?PR?PWM_24?MAIN
  +--> ?PR?_LOW_LEVEL_500U?BASAL
  +--> ?PR?_DELAY500MS?DELAY
  +--> ?PR?_STAND_UP?BASAL

?PR?HFH_L?JIEWU                             -----    -----      -----    -----      0217H    0002H
  +--> ?PR?PWM_24?MAIN
  +--> ?PR?_LOW_LEVEL_500U?BASAL
  +--> ?PR?_SIT_DOWN?BASAL
  +--> ?PR?_DELAY10MS?DELAY
  +--> ?PR?_STAND_UP?BASAL
  +--> ?PR?INITIAL_POSITION?BASAL

?PR?QIANSHOU?QIANSHOU                       -----    -----      -----    -----      0217H    0001H
  +--> ?PR?PWM_24?MAIN
  +--> ?PR?_LOW_LEVEL_500U?BASAL
  +--> ?PR?_DELAY1S?DELAY
  +--> ?PR?QIANSHOU_1?QIANSHOU
  +--> ?PR?QIANSHOU_2?QIANSHOU
  +--> ?PR?_QIANSHOU_3?QIANSHOU
  +--> ?PR?_QIANSHOU_4?QIANSHOU
  +--> ?PR?_QIANSHOU_9?QIANSHOU
  +--> ?PR?_QIANSHOU_10?QIANSHOU
  +--> ?PR?_QIANSHOU_5?QIANSHOU
  +--> ?PR?_DELAY500MS?DELAY
  +--> ?PR?QIANSHOU_6?QIANSHOU
  +--> ?PR?_QIANSHOU_7?QIANSHOU
  +--> ?PR?QIANSHOU_8?QIANSHOU

?PR?QIANSHOU_1?QIANSHOU                     -----    -----      -----    -----      0218H    0001H
  +--> ?PR?PWM_24?MAIN
  +--> ?PR?_LOW_LEVEL_500U?BASAL
  +--> ?PR?_DELAY500MS?DELAY

?PR?QIANSHOU_2?QIANSHOU                     -----    -----      -----    -----      0218H    0001H
  +--> ?PR?FORWARDDELAY?BASAL
  +--> ?PR?PWM_24?MAIN
  +--> ?PR?_LOW_LEVEL_500U?BASAL
BL51 BANKED LINKER/LOCATER V6.22                                                      06/24/2016  11:44:38  PAGE 19


  +--> ?PR?BACKDELAY?BASAL

?PR?_QIANSHOU_3?QIANSHOU                    -----    -----      -----    -----      0218H    0003H
  +--> ?PR?PWM_24?MAIN
  +--> ?PR?_LOW_LEVEL_500U?BASAL
  +--> ?PR?FORWARDDELAY?BASAL
  +--> ?PR?_DELAY1S?DELAY
  +--> ?PR?BACKDELAY?BASAL

?PR?_QIANSHOU_4?QIANSHOU                    -----    -----      -----    -----      0218H    0003H
  +--> ?PR?PWM_24?MAIN
  +--> ?PR?_LOW_LEVEL_500U?BASAL
  +--> ?PR?FORWARDDELAY?BASAL
  +--> ?PR?BACKDELAY?BASAL

?PR?_QIANSHOU_9?QIANSHOU                    -----    -----      -----    -----      0218H    0003H
  +--> ?PR?FORWARDDELAY?BASAL
  +--> ?PR?PWM_24?MAIN
  +--> ?PR?_LOW_LEVEL_500U?BASAL
  +--> ?PR?BACKDELAY?BASAL

?PR?_QIANSHOU_10?QIANSHOU                   -----    -----      -----    -----      0218H    0003H
  +--> ?PR?PWM_24?MAIN
  +--> ?PR?_LOW_LEVEL_500U?BASAL
  +--> ?PR?FORWARDDELAY?BASAL
  +--> ?PR?BACKDELAY?BASAL

?PR?_QIANSHOU_5?QIANSHOU                    -----    -----      -----    -----      0218H    0004H
  +--> ?PR?PWM_24?MAIN
  +--> ?PR?_LOW_LEVEL_500U?BASAL

?PR?QIANSHOU_6?QIANSHOU                     -----    -----      -----    -----      0218H    0006H
  +--> ?PR?FORWARDDELAY?BASAL
  +--> ?PR?_RELATIVE?BASAL
  +--> ?PR?_P_TO_P?BASAL
  +--> ?PR?BACKDELAY?BASAL
  +--> ?PR?_DELAY1S?DELAY
  +--> ?PR?_DELAY500MS?DELAY

?PR?_QIANSHOU_7?QIANSHOU                    -----    -----      -----    -----      0218H    0003H
  +--> ?PR?PWM_24?MAIN
  +--> ?PR?_LOW_LEVEL_500U?BASAL
  +--> ?PR?FORWARDDELAY?BASAL
  +--> ?PR?BACKDELAY?BASAL
  +--> ?PR?_DELAY10MS?DELAY

?PR?QIANSHOU_8?QIANSHOU                     -----    -----      -----    -----      0218H    0001H
  +--> ?PR?PWM_24?MAIN
  +--> ?PR?_LOW_LEVEL_500U?BASAL
  +--> ?PR?FORWARDDELAY?BASAL
  +--> ?PR?_DELAY1S?DELAY
  +--> ?PR?BACKDELAY?BASAL

?PR?TICAO?TICAO                             -----    -----      -----    -----      -----    -----
  +--> ?PR?INITIAL_POSITION?BASAL
  +--> ?PR?_DELAY10MS?DELAY
  +--> ?PR?JINGLI_R?BASAL
BL51 BANKED LINKER/LOCATER V6.22                                                      06/24/2016  11:44:38  PAGE 20


  +--> ?PR?_DELAY500MS?DELAY
  +--> ?PR?TICE_YD?TICAO
  +--> ?PR?CS_XD_LEFT?TICAO
  +--> ?PR?SHENZHAN?TICAO
  +--> ?PR?KUOXIONG?TICAO
  +--> ?PR?CS_XD_RIGHT?TICAO
  +--> ?PR?PY_SS_LEFT?TICAO
  +--> ?PR?PY_SS_RIGHT?TICAO
  +--> ?PR?XQ_TD?TICAO

?PR?TICE_YD?TICAO                           -----    -----      -----    -----      0217H    0002H
  +--> ?PR?PWM_24?MAIN
  +--> ?PR?_LOW_LEVEL_500U?BASAL
  +--> ?PR?_DELAY10MS?DELAY
  +--> ?PR?_DELAY1S?DELAY
  +--> ?PR?_DELAY500MS?DELAY

?PR?CS_XD_LEFT?TICAO                        -----    -----      -----    -----      0217H    0001H
  +--> ?PR?PWM_24?MAIN
  +--> ?PR?_LOW_LEVEL_500U?BASAL

?PR?SHENZHAN?TICAO                          -----    -----      -----    -----      0217H    0001H
  +--> ?PR?_P_TO_P?BASAL
  +--> ?PR?_DELAY500MS?DELAY
  +--> ?PR?_DELAY10MS?DELAY

?PR?KUOXIONG?TICAO                          -----    -----      -----    -----      0217H    0001H
  +--> ?PR?_P_TO_P?BASAL
  +--> ?PR?_DELAY10MS?DELAY
  +--> ?PR?_DELAY1S?DELAY

?PR?CS_XD_RIGHT?TICAO                       -----    -----      -----    -----      0217H    0001H
  +--> ?PR?PWM_24?MAIN
  +--> ?PR?_LOW_LEVEL_500U?BASAL

?PR?PY_SS_LEFT?TICAO                        -----    -----      -----    -----      0217H    0002H
  +--> ?PR?_SIT_DOWN?BASAL
  +--> ?PR?PWM_24?MAIN
  +--> ?PR?_LOW_LEVEL_500U?BASAL
  +--> ?PR?_STAND_UP?BASAL

?PR?PY_SS_RIGHT?TICAO                       -----    -----      -----    -----      0217H    0002H
  +--> ?PR?_SIT_DOWN?BASAL
  +--> ?PR?PWM_24?MAIN
  +--> ?PR?_LOW_LEVEL_500U?BASAL
  +--> ?PR?_STAND_UP?BASAL

?PR?XQ_TD?TICAO                             -----    -----      -----    -----      0217H    0002H
  +--> ?PR?PWM_24?MAIN
  +--> ?PR?_LOW_LEVEL_500U?BASAL
  +--> ?PR?_DELAY10MS?DELAY
  +--> ?PR?_P_TO_P?BASAL
  +--> ?PR?JINGLI_L?BASAL

?PR?QIANPAXIA?BASAL                         -----    -----      -----    -----      0217H    0001H
  +--> ?PR?_RELATIVE?BASAL
  +--> ?PR?_P_TO_P?BASAL
BL51 BANKED LINKER/LOCATER V6.22                                                      06/24/2016  11:44:38  PAGE 21


  +--> ?PR?PWM_24?MAIN
  +--> ?PR?_LOW_LEVEL_500U?BASAL
  +--> ?PR?_DELAY1S?DELAY

?PR?TAIJIAOZI?BASAL                         -----    -----      -----    -----      0217H    0001H
  +--> ?PR?_P_TO_P?BASAL
  +--> ?PR?_WALK1?WALKING

?PR?_WALK1?WALKING                          -----    -----      -----    -----      0218H    0001H

?PR?_CYC?TUXINGHUA                          -----    -----      -----    -----      0204H    0013H
  +--> ?PR?_CH376BYTELOCATE?MAIN
  +--> ?PR?_CH376BYTEREAD?MAIN
  +--> ?PR?_UART3_PRINTBYTE?MAIN
  +--> ?PR?DAOLI?BASAL
  +--> ?PR?PCH?BASAL
  +--> ?PR?_TURN_LEFT?BASAL
  +--> ?PR?_WALK?WALKING
  +--> ?PR?_TURN_RIGHT?BASAL
  +--> ?PR?_L_PYI?BASAL
  +--> ?PR?_FWC?BASAL
  +--> ?PR?_R_PYI?BASAL
  +--> ?PR?_GOAL_L?BASAL
  +--> ?PR?_YANGWOQIZUO?BASAL
  +--> ?PR?_GOAL_R?BASAL
  +--> ?PR?JINGLI_L?BASAL
  +--> ?PR?JINGLI_R?BASAL
  +--> ?PR?QIAOXIYANG?QIAOXIYANG
  +--> ?PR?JIEWU?JIEWU
  +--> ?PR?QIANSHOU?QIANSHOU
  +--> ?PR?TICAO?TICAO
  +--> ?PR?QGF?BASAL
  +--> ?PR?HGF?BASAL
  +--> ?PR?QIANPAXIA?BASAL
  +--> ?PR?QIANPQ?BASAL
  +--> ?PR?HP?BASAL
  +--> ?PR?HPQ?BASAL
  +--> ?PR?TAIJIAOZI?BASAL
  +--> ?PR?_P_TO_P?BASAL
  +--> ?PR?_DELAY10MS?DELAY

?PR?_DELAY100US?DELAY                       -----    -----      -----    -----      -----    -----
  +--> ?PR?_DELAY10US?DELAY

?PR?OBTAIN_PSXCODE?MAIN                     -----    -----      -----    -----      01E3H    000BH
  +--> ?CO?MAIN
  +--> ?PR?DELAY1US_PSX?MAIN
  +--> ?PR?DELAY3US_PSX?MAIN

?PR?YOUGOUQIU?BASAL                         -----    -----      -----    -----      -----    -----
  +--> ?PR?_RELATIVE?BASAL
  +--> ?PR?_P_TO_P?BASAL

?PR?ZUOGOUQIU?BASAL                         -----    -----      -----    -----      -----    -----
  +--> ?PR?_RELATIVE?BASAL
  +--> ?PR?_P_TO_P?BASAL

BL51 BANKED LINKER/LOCATER V6.22                                                      06/24/2016  11:44:38  PAGE 22


?PR?CLEAR_PSXBUFF?MAIN                      -----    -----      -----    -----      01E3H    000BH
  +--> ?CO?MAIN
  +--> ?PR?DELAY1US_PSX?MAIN
  +--> ?PR?DELAY3US_PSX?MAIN

?PR?DT_L?BASAL                              -----    -----      -----    -----      01E3H    0001H
  +--> ?PR?_RELATIVE?BASAL
  +--> ?PR?_P_TO_P?BASAL
  +--> ?PR?PWM_24?MAIN
  +--> ?PR?_LOW_LEVEL_500U?BASAL
  +--> ?PR?_DELAY10MS?DELAY
  +--> ?PR?_DELAY1S?DELAY
  +--> ?PR?INITIAL_POSITION?BASAL

?PR?DT_R?BASAL                              -----    -----      -----    -----      01E3H    0001H
  +--> ?PR?_RELATIVE?BASAL
  +--> ?PR?_P_TO_P?BASAL
  +--> ?PR?PWM_24?MAIN
  +--> ?PR?_LOW_LEVEL_500U?BASAL
  +--> ?PR?_DELAY10MS?DELAY
  +--> ?PR?_DELAY1S?DELAY
  +--> ?PR?INITIAL_POSITION?BASAL

?PR?WUDAO?BASAL                             -----    -----      -----    -----      01E3H    0001H
  +--> ?PR?_RELATIVE?BASAL
  +--> ?PR?_P_TO_P?BASAL
  +--> ?PR?_DELAY10MS?DELAY
  +--> ?PR?PWM_24?MAIN
  +--> ?PR?_LOW_LEVEL_500U?BASAL

?PR?SETVALUEPARAS?MAIN                      -----    -----      -----    -----      01E3H    000BH
  +--> ?PR?_MP3_SETVOLUME?MAIN
  +--> ?CO?MAIN
  +--> ?PR?_CH376FILEOPENDIR?MAIN
  +--> ?PR?_WRITESDCARDFILEBUFFBYTES?MAIN

?PR?_HOUTUI?WALKING                         -----    -----      -----    -----      01E3H    0002H
  +--> ?PR?_SIT_DOWN?BASAL
  +--> ?PR?_DELAY500MS?DELAY
  +--> ?PR?_LEFT_CS?WALKING
  +--> ?PR?_RIGHT_UP?WALKING
  +--> ?PR?_LEFT_FORWARD?WALKING
  +--> ?PR?_RIGHT_DOWN?WALKING
  +--> ?PR?_RIGHT_CS?WALKING
  +--> ?PR?_LEFT_UP?WALKING
  +--> ?PR?_RIGHT_FORWARD?WALKING
  +--> ?PR?_LEFT_DOWN?WALKING
  +--> ?PR?_STAND_UP?BASAL



SYMBOL TABLE OF MODULE:  ProjectTarget (MAIN)

  VALUE           TYPE          NAME
  ----------------------------------

  -------         MODULE        MAIN
BL51 BANKED LINKER/LOCATER V6.22                                                      06/24/2016  11:44:38  PAGE 23


  C:0000H         SYMBOL        _ICE_DUMMY_
  D:0092H         PUBLIC        P1M0
  D:0093H         PUBLIC        P0M1
  D:0096H         PUBLIC        P2M0
  D:0091H         PUBLIC        P1M1
  D:0080H         PUBLIC        P0
  D:00B2H         PUBLIC        P3M0
  D:0095H         PUBLIC        P2M1
  D:0090H         PUBLIC        P1
  D:00B4H         PUBLIC        P4M0
  D:00B1H         PUBLIC        P3M1
  D:00A0H         PUBLIC        P2
  D:00CAH         PUBLIC        P5M0
  D:00B3H         PUBLIC        P4M1
  D:00B0H         PUBLIC        P3
  D:00CCH         PUBLIC        P6M0
  D:00C9H         PUBLIC        P5M1
  D:00C0H         PUBLIC        P4
  C:E292H         PUBLIC        CH376GetIntStatus
  D:00E2H         PUBLIC        P7M0
  D:00CBH         PUBLIC        P6M1
  D:00C8H         PUBLIC        P5
  B:00A8H.7       PUBLIC        EA
  D:00E1H         PUBLIC        P7M1
  D:00E8H         PUBLIC        P6
  D:00F8H         PUBLIC        P7
  X:0000H         PUBLIC        psx_key
  C:E257H         PUBLIC        _CH376FileCreate
  D:00CEH         PUBLIC        SPCTL
  X:0001H         PUBLIC        envbuf
  X:0008H         PUBLIC        psx_key_buff_flag
  D:00A2H         PUBLIC        P_SW1
  C:D597H         PUBLIC        Wait376Interrupt
  D:00BAH         PUBLIC        P_SW2
  X:0009H         PUBLIC        psx_key_buff
  D:00A8H         PUBLIC        IE
  C:E227H         PUBLIC        _CH376ReadVar8
  C:E27DH         PUBLIC        Query376Interrupt
  B:0021H.2       PUBLIC        anjian_bit_flag
  C:DD6EH         PUBLIC        Online_DoInit
  B:00C8H.4       PUBLIC        SPISS
  C:E2B2H         PUBLIC        _CH376SendCmdWaitInt
  C:DBB6H         PUBLIC        Uart_Init
  X:000AH         PUBLIC        RX2_in
  B:0021H.3       PUBLIC        anjian_bit
  B:00A8H.4       PUBLIC        ES
  D:00B8H         PUBLIC        IP
  C:0046H         PUBLIC        _CH376ReadBlock
  X:000BH         PUBLIC        RX1_Buffer
  X:019BH         PUBLIC        RX2_Buffer
  B:0098H.0       PUBLIC        RI
  X:01ABH         PUBLIC        volume
  X:01ACH         PUBLIC        RX3_Buffer
  X:01ADH         PUBLIC        RX4_Buffer
  B:0098H.1       PUBLIC        TI
  C:E205H         PUBLIC        _CH376WriteVar8
  D:0097H         PUBLIC        CLK_DIV
BL51 BANKED LINKER/LOCATER V6.22                                                      06/24/2016  11:44:38  PAGE 24


  C:DB4CH         PUBLIC        _CH376ByteLocate
  X:01AEH         PUBLIC        naqiu
  C:D440H         PUBLIC        xReadCH376Data
  C:D4EDH         PUBLIC        UART1_Interrupt
  C:B87AH         PUBLIC        UART2_Interrupt
  D:00D8H         PUBLIC        CCON
  C:E0A1H         PUBLIC        UART3_Interrupt
  C:E01AH         PUBLIC        UART4_Interrupt
  C:0096H         PUBLIC        main
  C:D5F0H         PUBLIC        SetValueParas
  X:01AFH         PUBLIC        flag_power
  C:CC02H         PUBLIC        _CreateSdcardFile
  C:E24BH         PUBLIC        _CH376SendCmdDatWaitInt
  C:E006H         PUBLIC        _xWriteCH376Data
  D:0099H         PUBLIC        SBUF
  D:0098H         PUBLIC        SCON
  B:00C0H.0       PUBLIC        P40
  D:0088H         PUBLIC        TCON
  C:DC27H         PUBLIC        DoCheckout_Online
  C:92E4H         PUBLIC        PWM_24
  C:4CEEH         PUBLIC        Obtain_PSXCode
  C:E237H         PUBLIC        _CH376ReadVar32
  D:00AFH         PUBLIC        IE2
  D:008EH         PUBLIC        AUXR
  D:00F0H         PUBLIC        B
  C:D078H         PUBLIC        _CH376ByteRead
  C:E04CH         SYMBOL        _?ix1000
  C:E055H         SYMBOL        _?ix1001
  C:D7FFH         PUBLIC        _CH376FileOpen
  C:DA50H         PUBLIC        _ReadSdcardFile32Bytes
  B:0021H.4       PUBLIC        acc_bit
  C:DE5AH         PUBLIC        _xWriteCH376Cmd
  C:D259H         PUBLIC        Clear_PSXBuff
  C:D68CH         PUBLIC        _CH376WriteVar32
  B:00A8H.0       PUBLIC        EX0
  D:00D6H         PUBLIC        T2H
  D:00D2H         PUBLIC        T4H
  C:E190H         PUBLIC        Accel_Init
  X:01B0H         PUBLIC        zhuangtai
  C:D16FH         PUBLIC        _CH376ByteWrite
  C:DE2EH         PUBLIC        mInitCH376Host
  D:00D7H         PUBLIC        T2L
  C:DBEFH         PUBLIC        _CH376WriteReqBlock
  D:00D3H         PUBLIC        T4L
  B:0088H.4       PUBLIC        TR0
  X:01B1H         PUBLIC        in
  B:0088H.6       PUBLIC        TR1
  C:DB7CH         PUBLIC        QianShou_DoInit
  B:0021H.5       PUBLIC        RX1_flag
  B:0021H.6       PUBLIC        RX2_flag
  X:01B3H         PUBLIC        out
  X:01B5H         PUBLIC        SdcardBuff
  C:DF56H         PUBLIC        _MP3_SetVolume
  C:E149H         PUBLIC        _UART1_PrintString
  B:0021H.7       PUBLIC        RX4_flag
  C:000EH         PUBLIC        UART4_ResetBauteRate
  D:00D1H         PUBLIC        T4T3M
BL51 BANKED LINKER/LOCATER V6.22                                                      06/24/2016  11:44:38  PAGE 25


  C:D63CH         PUBLIC        CPU_Init
  B:0022H.0       PUBLIC        psx_mode_flag
  C:BE9DH         PUBLIC        _CH376SetFileName
  D:00CDH         PUBLIC        SPSTAT
  C:E1CFH         PUBLIC        Init_SPI
  B:0022H.1       PUBLIC        RX1_mode
  D:009BH         PUBLIC        S2BUF
  C:DE01H         PUBLIC        UART1Send_InitPositon
  X:01D5H         PUBLIC        psx_mode
  D:00ADH         PUBLIC        S3BUF
  C:CD2BH         PUBLIC        _CH376FileOpenDir
  C:E2BFH         PUBLIC        CH376GetDiskStatus
  D:0085H         PUBLIC        S4BUF
  C:DA10H         PUBLIC        _xSetCH376CmdData
  D:009AH         PUBLIC        S2CON
  X:01D6H         PUBLIC        RX2_Key
  D:00ACH         PUBLIC        S3CON
  D:0084H         PUBLIC        S4CON
  C:0006H         PUBLIC        Delay1us_PSX
  C:DD3AH         PUBLIC        _xSetCH376Cmd
  C:E29BH         PUBLIC        Delay3us_PSX
  C:D0EFH         PUBLIC        CH376Read32bitDat
  C:DDA1H         PUBLIC        _UART1_PrintArrayBytes
  C:E2B9H         PUBLIC        CH376GetFileSize
  B:0022H.2       PUBLIC        flag_acc_enable
  C:D2C4H         PUBLIC        PSXKey_Filter
  X:01D8H         PUBLIC        anjian
  C:E2ABH         PUBLIC        CH376EndDirInfo
  C:E288H         PUBLIC        _UART1_PrintByte
  C:D844H         PUBLIC        _WriteSdcardFileBuffBytes
  C:C4CCH         PUBLIC        _CH376SeparatePath
  C:CF67H         PUBLIC        _MP3_SetPlay
  C:E17CH         PUBLIC        _UART3_PrintByte
  D:00D0H         PUBLIC        PSW
  C:BC99H         PUBLIC        _ReadSdcardFileAllBytes
  D:00CFH         PUBLIC        SPDAT
  D:0094H         PUBLIC        P0M0
  -------         PROC          UART_INIT
  C:DBB6H         LINE#         75
  C:DBB6H         LINE#         76
  C:DBB6H         LINE#         77
  C:DBB9H         LINE#         79
  C:DBBCH         LINE#         80
  C:DBBFH         LINE#         82
  C:DBC2H         LINE#         83
  C:DBC5H         LINE#         85
  C:DBC8H         LINE#         87
  C:DBCBH         LINE#         88
  C:DBCEH         LINE#         89
  C:DBD1H         LINE#         90
  C:DBD4H         LINE#         91
  C:DBD7H         LINE#         93
  C:DBDAH         LINE#         94
  C:DBDDH         LINE#         95
  C:DBE0H         LINE#         97
  C:DBE3H         LINE#         98
  C:DBE6H         LINE#         100
BL51 BANKED LINKER/LOCATER V6.22                                                      06/24/2016  11:44:38  PAGE 26


  C:DBE9H         LINE#         102
  C:DBEBH         LINE#         103
  C:DBEEH         LINE#         104
  -------         ENDPROC       UART_INIT
  -------         PROC          UART4_RESETBAUTERATE
  C:000EH         LINE#         107
  C:000EH         LINE#         108
  C:000EH         LINE#         109
  C:0011H         LINE#         110
  C:0014H         LINE#         111
  C:0017H         LINE#         112
  C:001AH         LINE#         113
  -------         ENDPROC       UART4_RESETBAUTERATE
  -------         PROC          _UART1_PRINTSTRING
  D:0001H         SYMBOL        str
  C:E149H         LINE#         116
  C:E149H         LINE#         117
  C:E149H         LINE#         118
  C:E14BH         LINE#         119
  C:E150H         LINE#         120
  C:E150H         LINE#         121
  C:E152H         LINE#         122
  C:E155H         LINE#         123
  C:E157H         LINE#         124
  C:E15EH         LINE#         125
  C:E160H         LINE#         126
  -------         ENDPROC       _UART1_PRINTSTRING
  -------         PROC          _UART1_PRINTARRAYBYTES
  D:0001H         SYMBOL        str
  X:0204H         SYMBOL        len
  -------         DO            
  D:0006H         SYMBOL        i
  -------         ENDDO         
  C:DDA1H         LINE#         128
  C:DDA9H         LINE#         129
  C:DDA9H         LINE#         130
  C:DDACH         LINE#         131
  C:DDAEH         LINE#         132
  C:DDBAH         LINE#         133
  C:DDBAH         LINE#         134
  C:DDBFH         LINE#         135
  C:DDC2H         LINE#         136
  C:DDC4H         LINE#         137
  C:DDCBH         LINE#         138
  C:DDD0H         LINE#         139
  C:DDD2H         LINE#         140
  -------         ENDPROC       _UART1_PRINTARRAYBYTES
  -------         PROC          _UART1_PRINTBYTE
  D:0007H         SYMBOL        value
  C:E288H         LINE#         142
  C:E288H         LINE#         143
  C:E288H         LINE#         144
  C:E28AH         LINE#         145
  C:E28CH         LINE#         146
  C:E28FH         LINE#         147
  C:E291H         LINE#         148
  -------         ENDPROC       _UART1_PRINTBYTE
BL51 BANKED LINKER/LOCATER V6.22                                                      06/24/2016  11:44:38  PAGE 27


  -------         PROC          L?0789
  -------         ENDPROC       L?0789
  -------         PROC          _UART3_PRINTBYTE
  D:0007H         SYMBOL        value
  C:E17CH         LINE#         161
  C:E17CH         LINE#         162
  C:E17CH         LINE#         163
  C:E17FH         LINE#         164
  C:E182H         LINE#         165
  C:E184H         LINE#         166
  C:E189H         LINE#         167
  C:E18CH         LINE#         168
  C:E18FH         LINE#         169
  -------         ENDPROC       _UART3_PRINTBYTE
  -------         PROC          _MP3_SETVOLUME
  D:0006H         SYMBOL        volumeValue
  C:DF56H         LINE#         184
  C:DF58H         LINE#         185
  C:DF58H         LINE#         186
  C:DF64H         LINE#         187
  C:DF64H         LINE#         188
  C:DF69H         LINE#         189
  C:DF6EH         LINE#         190
  C:DF73H         LINE#         191
  C:DF78H         LINE#         192
  C:DF7DH         LINE#         193
  C:DF7DH         LINE#         194
  -------         ENDPROC       _MP3_SETVOLUME
  C:CF5DH         SYMBOL        L?0781
  C:CF62H         SYMBOL        L?0782
  -------         PROC          L?0780
  -------         ENDPROC       L?0780
  C:CF5DH         SYMBOL        L?0781
  C:CF62H         SYMBOL        L?0782
  -------         PROC          _MP3_SETPLAY
  D:0006H         SYMBOL        wenjian
  D:0005H         SYMBOL        mulu1
  D:0003H         SYMBOL        mulu2
  -------         DO            
  D:0007H         SYMBOL        i
  D:0006H         SYMBOL        j
  -------         ENDDO         
  C:CF67H         LINE#         196
  C:CF69H         LINE#         197
  C:CF69H         LINE#         199
  C:CF6EH         LINE#         200
  C:CF73H         LINE#         201
  C:CF78H         LINE#         202
  C:CF7DH         LINE#         204
  C:CFA8H         LINE#         205
  C:CFA8H         LINE#         206
  C:CFACH         LINE#         207
  C:CFB0H         LINE#         208
  C:CFB4H         LINE#         209
  C:CFB8H         LINE#         210
  C:CFBCH         LINE#         211
  C:CFC0H         LINE#         212
BL51 BANKED LINKER/LOCATER V6.22                                                      06/24/2016  11:44:38  PAGE 28


  C:CFC5H         LINE#         213
  C:CFC5H         LINE#         215
  C:CFC9H         LINE#         217
  C:CFD0H         LINE#         219
  C:CFD3H         LINE#         220
  C:CFD7H         LINE#         221
  C:CFD7H         LINE#         222
  C:CFDAH         LINE#         224
  C:CFDEH         LINE#         225
  C:CFE1H         LINE#         227
  -------         ENDPROC       _MP3_SETPLAY
  -------         PROC          _XWRITECH376CMD
  D:0007H         SYMBOL        mCmd
  C:DE5AH         LINE#         70
  C:DE5AH         LINE#         71
  C:DE5AH         LINE#         72
  C:DE5DH         LINE#         74
  C:DE60H         LINE#         75
  C:DE63H         LINE#         76
  C:DE68H         LINE#         77
  C:DE6BH         LINE#         78
  C:DE6EH         LINE#         79
  C:DE73H         LINE#         80
  C:DE76H         LINE#         81
  C:DE78H         LINE#         82
  C:DE7DH         LINE#         83
  C:DE80H         LINE#         85
  C:DE83H         LINE#         86
  -------         ENDPROC       _XWRITECH376CMD
  -------         PROC          L?0783
  -------         ENDPROC       L?0783
  -------         PROC          _XWRITECH376DATA
  D:0007H         SYMBOL        mData
  C:E006H         LINE#         95
  C:E006H         LINE#         96
  C:E006H         LINE#         97
  C:E009H         LINE#         99
  C:E00CH         LINE#         100
  C:E00EH         LINE#         101
  C:E013H         LINE#         102
  C:E016H         LINE#         104
  C:E019H         LINE#         105
  -------         ENDPROC       _XWRITECH376DATA
  -------         PROC          L?0788
  -------         ENDPROC       L?0788
  -------         PROC          XREADCH376DATA
  -------         DO            
  X:0238H         SYMBOL        i
  -------         ENDDO         
  C:D440H         LINE#         113
  C:D440H         LINE#         114
  C:D440H         LINE#         118
  C:D466H         LINE#         119
  C:D466H         LINE#         120
  C:D469H         LINE#         121
  C:D469H         LINE#         122
  C:D46BH         LINE#         124
BL51 BANKED LINKER/LOCATER V6.22                                                      06/24/2016  11:44:38  PAGE 29


  C:D471H         LINE#         125
  C:D471H         LINE#         126
  C:D492H         LINE#         128
  C:D494H         LINE#         129
  -------         ENDPROC       XREADCH376DATA
  -------         PROC          _XSETCH376CMDDATA
  D:0007H         SYMBOL        mCmd
  D:0005H         SYMBOL        mData
  -------         DO            
  D:0007H         SYMBOL        res
  -------         ENDDO         
  C:DA10H         LINE#         133
  C:DA10H         LINE#         134
  C:DA10H         LINE#         137
  C:DA13H         LINE#         139
  C:DA16H         LINE#         140
  C:DA19H         LINE#         141
  C:DA1EH         LINE#         142
  C:DA21H         LINE#         143
  C:DA24H         LINE#         144
  C:DA29H         LINE#         145
  C:DA2CH         LINE#         146
  C:DA2EH         LINE#         147
  C:DA33H         LINE#         148
  C:DA36H         LINE#         149
  C:DA3AH         LINE#         150
  C:DA3FH         LINE#         151
  C:DA42H         LINE#         153
  C:DA47H         LINE#         154
  C:DA4AH         LINE#         155
  C:DA4CH         LINE#         157
  C:DA4FH         LINE#         159
  C:DA4FH         LINE#         160
  -------         ENDPROC       _XSETCH376CMDDATA
  -------         PROC          _XSETCH376CMD
  D:0007H         SYMBOL        mCmd
  -------         DO            
  D:0007H         SYMBOL        res
  -------         ENDDO         
  C:DD3AH         LINE#         163
  C:DD3AH         LINE#         164
  C:DD3AH         LINE#         167
  C:DD3DH         LINE#         169
  C:DD40H         LINE#         170
  C:DD43H         LINE#         171
  C:DD48H         LINE#         172
  C:DD4BH         LINE#         173
  C:DD4EH         LINE#         174
  C:DD53H         LINE#         175
  C:DD56H         LINE#         176
  C:DD58H         LINE#         177
  C:DD5DH         LINE#         178
  C:DD60H         LINE#         180
  C:DD65H         LINE#         181
  C:DD68H         LINE#         182
  C:DD6AH         LINE#         184
  C:DD6DH         LINE#         186
BL51 BANKED LINKER/LOCATER V6.22                                                      06/24/2016  11:44:38  PAGE 30


  C:DD6DH         LINE#         187
  -------         ENDPROC       _XSETCH376CMD
  -------         PROC          QUERY376INTERRUPT
  C:E27DH         LINE#         197
  C:E27DH         LINE#         198
  C:E27DH         LINE#         203
  C:E280H         LINE#         204
  C:E280H         LINE#         205
  C:E282H         LINE#         207
  C:E285H         LINE#         208
  C:E285H         LINE#         210
  C:E285H         LINE#         211
  C:E287H         LINE#         212
  C:E287H         LINE#         214
  -------         ENDPROC       QUERY376INTERRUPT
  -------         PROC          MINITCH376HOST
  -------         DO            
  D:0007H         SYMBOL        res
  -------         ENDDO         
  C:DE2EH         LINE#         224
  C:DE2EH         LINE#         225
  C:DE2EH         LINE#         227
  C:DE35H         LINE#         229
  C:DE3CH         LINE#         231
  C:DE41H         LINE#         233
  C:DE45H         LINE#         234
  C:DE45H         LINE#         235
  C:DE4AH         LINE#         236
  C:DE4EH         LINE#         237
  C:DE53H         LINE#         238
  C:DE56H         LINE#         239
  C:DE59H         LINE#         240
  C:DE59H         LINE#         242
  C:DE59H         LINE#         244
  -------         ENDPROC       MINITCH376HOST
  -------         PROC          _CH376READBLOCK
  X:0230H         SYMBOL        buf
  -------         DO            
  X:0233H         SYMBOL        s
  X:0234H         SYMBOL        l
  -------         ENDDO         
  C:0046H         LINE#         253
  C:0051H         LINE#         254
  C:0051H         LINE#         257
  C:0053H         LINE#         258
  C:005FH         LINE#         259
  C:0061H         LINE#         260
  C:0061H         LINE#         262
  C:0061H         LINE#         263
  C:0073H         LINE#         264
  C:007DH         LINE#         265
  C:0085H         LINE#         266
  C:0085H         LINE#         267
  C:008AH         LINE#         268
  -------         ENDPROC       _CH376READBLOCK
  -------         PROC          _CH376WRITEREQBLOCK
  X:0202H         SYMBOL        buf
BL51 BANKED LINKER/LOCATER V6.22                                                      06/24/2016  11:44:38  PAGE 31


  -------         DO            
  D:0005H         SYMBOL        s
  D:0006H         SYMBOL        l
  -------         ENDDO         
  C:DBEFH         LINE#         277
  C:DBFAH         LINE#         278
  C:DBFAH         LINE#         281
  C:DBFCH         LINE#         282
  C:DC03H         LINE#         283
  C:DC06H         LINE#         284
  C:DC06H         LINE#         286
  C:DC06H         LINE#         287
  C:DC18H         LINE#         288
  C:DC22H         LINE#         289
  C:DC24H         LINE#         290
  C:DC24H         LINE#         292
  C:DC26H         LINE#         293
  -------         ENDPROC       _CH376WRITEREQBLOCK
  -------         PROC          CH376READ32BITDAT
  -------         DO            
  X:0234H         SYMBOL        c0
  X:0235H         SYMBOL        c1
  X:0236H         SYMBOL        c2
  X:0237H         SYMBOL        c3
  -------         ENDDO         
  C:D0EFH         LINE#         301
  C:D0EFH         LINE#         302
  C:D0EFH         LINE#         305
  C:D0F7H         LINE#         306
  C:D0FFH         LINE#         307
  C:D107H         LINE#         308
  C:D10FH         LINE#         309
  C:D16EH         LINE#         310
  -------         ENDPROC       CH376READ32BITDAT
  -------         PROC          _CH376READVAR8
  D:0006H         SYMBOL        var
  -------         DO            
  D:0007H         SYMBOL        c0
  -------         ENDDO         
  C:E227H         LINE#         318
  C:E229H         LINE#         319
  C:E229H         LINE#         322
  C:E22EH         LINE#         323
  C:E233H         LINE#         324
  C:E236H         LINE#         325
  C:E236H         LINE#         326
  -------         ENDPROC       _CH376READVAR8
  -------         PROC          _CH376WRITEVAR8
  D:0006H         SYMBOL        var
  D:0005H         SYMBOL        dat
  C:E205H         LINE#         337
  C:E207H         LINE#         338
  C:E207H         LINE#         339
  C:E20CH         LINE#         340
  C:E211H         LINE#         341
  -------         ENDPROC       _CH376WRITEVAR8
  -------         PROC          _CH376READVAR32
BL51 BANKED LINKER/LOCATER V6.22                                                      06/24/2016  11:44:38  PAGE 32


  D:0006H         SYMBOL        var
  C:E237H         LINE#         351
  C:E239H         LINE#         352
  C:E239H         LINE#         353
  C:E23EH         LINE#         354
  C:E243H         LINE#         355
  C:E246H         LINE#         356
  -------         ENDPROC       _CH376READVAR32
  -------         PROC          _CH376WRITEVAR32
  D:0006H         SYMBOL        var
  X:0235H         SYMBOL        dat
  C:D68CH         LINE#         367
  C:D68EH         LINE#         368
  C:D68EH         LINE#         369
  C:D693H         LINE#         370
  C:D698H         LINE#         371
  C:D6A3H         LINE#         372
  C:D6AFH         LINE#         373
  C:D6C5H         LINE#         374
  -------         ENDPROC       _CH376WRITEVAR32
  -------         PROC          CH376ENDDIRINFO
  C:E2ABH         LINE#         383
  C:E2ABH         LINE#         384
  C:E2ABH         LINE#         385
  -------         ENDPROC       CH376ENDDIRINFO
  -------         PROC          CH376GETFILESIZE
  C:E2B9H         LINE#         394
  C:E2B9H         LINE#         395
  C:E2B9H         LINE#         396
  C:E2BEH         LINE#         397
  -------         ENDPROC       CH376GETFILESIZE
  -------         PROC          CH376GETDISKSTATUS
  C:E2BFH         LINE#         405
  C:E2BFH         LINE#         406
  C:E2BFH         LINE#         407
  C:E2C4H         LINE#         408
  -------         ENDPROC       CH376GETDISKSTATUS
  -------         PROC          CH376GETINTSTATUS
  -------         DO            
  D:0007H         SYMBOL        s
  -------         ENDDO         
  C:E292H         LINE#         417
  C:E292H         LINE#         418
  C:E292H         LINE#         421
  C:E297H         LINE#         422
  C:E29AH         LINE#         423
  C:E29AH         LINE#         424
  -------         ENDPROC       CH376GETINTSTATUS
  -------         PROC          WAIT376INTERRUPT
  -------         DO            
  X:0234H         SYMBOL        i
  -------         ENDDO         
  C:D597H         LINE#         434
  C:D597H         LINE#         435
  C:D597H         LINE#         456
  C:D5BDH         LINE#         457
  C:D5BDH         LINE#         458
BL51 BANKED LINKER/LOCATER V6.22                                                      06/24/2016  11:44:38  PAGE 33


  C:D5C3H         LINE#         459
  C:D5C3H         LINE#         460
  C:D5C6H         LINE#         461
  C:D5C6H         LINE#         463
  C:D5E7H         LINE#         464
  C:D5E9H         LINE#         466
  -------         ENDPROC       WAIT376INTERRUPT
  -------         PROC          _CH376SENDCMDWAITINT
  D:0007H         SYMBOL        mCmd
  C:E2B2H         LINE#         476
  C:E2B2H         LINE#         477
  C:E2B2H         LINE#         478
  C:E2B5H         LINE#         479
  C:E2B8H         LINE#         480
  -------         ENDPROC       _CH376SENDCMDWAITINT
  C:E247H         SYMBOL        L?0785
  -------         PROC          L?0784
  -------         ENDPROC       L?0784
  C:E247H         SYMBOL        L?0785
  -------         PROC          _CH376SENDCMDDATWAITINT
  D:0007H         SYMBOL        mCmd
  D:0005H         SYMBOL        mDat
  C:E24BH         LINE#         488
  C:E24BH         LINE#         489
  C:E24BH         LINE#         490
  C:E24EH         LINE#         491
  C:E253H         LINE#         492
  C:E256H         LINE#         493
  -------         ENDPROC       _CH376SENDCMDDATWAITINT
  -------         PROC          _CH376SETFILENAME
  X:0230H         SYMBOL        name
  -------         DO            
  D:0006H         SYMBOL        c
  X:0233H         SYMBOL        s
  D:0007H         SYMBOL        i
  -------         ENDDO         
  C:BE9DH         LINE#         545
  C:BEA8H         LINE#         546
  C:BEA8H         LINE#         553
  C:BEADH         LINE#         554
  C:BEB0H         LINE#         556
  C:BEB9H         LINE#         557
  C:BEB9H         LINE#         558
  C:BEC7H         LINE#         559
  C:BEC7H         LINE#         560
  C:BECCH         LINE#         561
  C:BED1H         LINE#         562
  C:BEDBH         LINE#         563
  C:BEDFH         LINE#         564
  C:BEDFH         LINE#         565
  C:BEE9H         LINE#         566
  C:BEEBH         LINE#         567
  C:BEEBH         LINE#         568
  C:BF16H         LINE#         569
  C:BF41H         LINE#         570
  C:BF50H         LINE#         571
  C:BF50H         LINE#         572
BL51 BANKED LINKER/LOCATER V6.22                                                      06/24/2016  11:44:38  PAGE 34


  C:BF50H         LINE#         573
  C:BF50H         LINE#         574
  C:BF50H         LINE#         576
  C:BF55H         LINE#         577
  C:BF64H         LINE#         578
  C:BF67H         LINE#         579
  C:BF6AH         LINE#         580
  C:BF6AH         LINE#         581
  C:BF74H         LINE#         582
  C:BF83H         LINE#         583
  C:BF8BH         LINE#         584
  C:BF8BH         LINE#         585
  C:BF8DH         LINE#         586
  C:BF8DH         LINE#         587
  C:BF92H         LINE#         588
  C:BF94H         LINE#         589
  -------         ENDPROC       _CH376SETFILENAME
  -------         PROC          _CH376FILEOPEN
  X:022DH         SYMBOL        name
  C:D7FFH         LINE#         597
  C:D80AH         LINE#         598
  C:D80AH         LINE#         599
  C:D818H         LINE#         601
  C:D82FH         LINE#         602
  C:D82FH         LINE#         603
  C:D83EH         LINE#         604
  C:D83EH         LINE#         606
  C:D843H         LINE#         607
  -------         ENDPROC       _CH376FILEOPEN
  -------         PROC          _CH376FILECREATE
  D:0001H         SYMBOL        name
  C:E257H         LINE#         615
  C:E257H         LINE#         616
  C:E257H         LINE#         617
  C:E25CH         LINE#         618
  C:E25CH         LINE#         619
  C:E25FH         LINE#         620
  C:E25FH         LINE#         621
  C:E264H         LINE#         622
  -------         ENDPROC       _CH376FILECREATE
  -------         PROC          _CH376SEPARATEPATH
  X:01FFH         SYMBOL        path
  -------         DO            
  X:0202H         SYMBOL        pName
  -------         ENDDO         
  C:C4CCH         LINE#         649
  C:C4D7H         LINE#         650
  C:C4D7H         LINE#         653
  C:C4FCH         LINE#         654
  C:C541H         LINE#         655
  C:C541H         LINE#         656
  C:C54BH         LINE#         657
  C:C54DH         LINE#         658
  C:C57AH         LINE#         659
  C:C57AH         LINE#         660
  C:C584H         LINE#         661
  C:C584H         LINE#         662
BL51 BANKED LINKER/LOCATER V6.22                                                      06/24/2016  11:44:38  PAGE 35


  C:C592H         LINE#         663
  -------         ENDPROC       _CH376SEPARATEPATH
  -------         PROC          _CH376FILEOPENDIR
  X:0228H         SYMBOL        PathName
  X:022BH         SYMBOL        StopName
  -------         DO            
  X:022CH         SYMBOL        i
  D:0007H         SYMBOL        s
  -------         ENDDO         
  C:CD2BH         LINE#         675
  C:CD39H         LINE#         676
  C:CD39H         LINE#         679
  C:CD3BH         LINE#         680
  C:CD3EH         LINE#         681
  C:CD3EH         LINE#         682
  C:CD3EH         LINE#         683
  C:CD62H         LINE#         684
  C:CD62H         LINE#         685
  C:CD68H         LINE#         686
  C:CD6AH         LINE#         688
  C:CD6DH         LINE#         689
  C:CD6DH         LINE#         690
  C:CD73H         LINE#         691
  C:CD75H         LINE#         693
  C:CD75H         LINE#         694
  C:CD7AH         LINE#         695
  C:CD7AH         LINE#         697
  C:CD8EH         LINE#         699
  C:CD9EH         LINE#         700
  C:CD9EH         LINE#         701
  C:CDA3H         LINE#         702
  C:CDA3H         LINE#         703
  C:CDA7H         LINE#         704
  C:CDA7H         LINE#         705
  C:CDAAH         LINE#         706
  C:CDAAH         LINE#         707
  C:CDAEH         LINE#         708
  C:CDAEH         LINE#         709
  C:CDB1H         LINE#         710
  C:CDB1H         LINE#         712
  C:CDB1H         LINE#         713
  C:CDB2H         LINE#         714
  C:CDB2H         LINE#         715
  C:CDB2H         LINE#         716
  C:CDB7H         LINE#         717
  C:CDB9H         LINE#         719
  C:CDB9H         LINE#         720
  C:CDB9H         LINE#         721
  C:CDB9H         LINE#         722
  C:CDB9H         LINE#         723
  -------         ENDPROC       _CH376FILEOPENDIR
  -------         PROC          L?0787
  -------         ENDPROC       L?0787
  -------         PROC          _CH376BYTELOCATE
  X:0228H         SYMBOL        offset
  C:DB4CH         LINE#         745
  C:DB52H         LINE#         746
BL51 BANKED LINKER/LOCATER V6.22                                                      06/24/2016  11:44:38  PAGE 36


  C:DB52H         LINE#         747
  C:DB57H         LINE#         748
  C:DB62H         LINE#         749
  C:DB6EH         LINE#         750
  C:DB73H         LINE#         751
  C:DB78H         LINE#         753
  C:DB7BH         LINE#         754
  -------         ENDPROC       _CH376BYTELOCATE
  -------         PROC          L?0786
  -------         ENDPROC       L?0786
  -------         PROC          _CH376BYTEREAD
  X:0228H         SYMBOL        buf
  D:0004H         SYMBOL        ReqCount
  X:022DH         SYMBOL        RealCount
  -------         DO            
  D:0006H         SYMBOL        s
  -------         ENDDO         
  C:D078H         LINE#         767
  C:D083H         LINE#         768
  C:D083H         LINE#         771
  C:D088H         LINE#         772
  C:D08DH         LINE#         773
  C:D092H         LINE#         775
  C:D0A2H         LINE#         776
  C:D0A2H         LINE#         777
  C:D0A8H         LINE#         778
  C:D0A8H         LINE#         780
  C:D0A8H         LINE#         781
  C:D0A8H         LINE#         782
  C:D0ADH         LINE#         783
  C:D0B2H         LINE#         784
  C:D0B2H         LINE#         785
  C:D0C2H         LINE#         786
  C:D0C7H         LINE#         788
  C:D0D4H         LINE#         789
  C:D0E4H         LINE#         790
  C:D0E4H         LINE#         791
  C:D0EAH         LINE#         792
  C:D0EAH         LINE#         793
  C:D0ECH         LINE#         795
  C:D0ECH         LINE#         796
  C:D0EEH         LINE#         797
  C:D0EEH         LINE#         798
  C:D0EEH         LINE#         800
  -------         ENDPROC       _CH376BYTEREAD
  -------         PROC          _CH376BYTEWRITE
  X:01FAH         SYMBOL        buf
  D:0004H         SYMBOL        ReqCount
  X:01FFH         SYMBOL        RealCount
  -------         DO            
  D:0006H         SYMBOL        s
  -------         ENDDO         
  C:D16FH         LINE#         813
  C:D17AH         LINE#         814
  C:D17AH         LINE#         817
  C:D17FH         LINE#         818
  C:D184H         LINE#         819
BL51 BANKED LINKER/LOCATER V6.22                                                      06/24/2016  11:44:38  PAGE 37


  C:D189H         LINE#         821
  C:D199H         LINE#         822
  C:D199H         LINE#         823
  C:D19FH         LINE#         824
  C:D19FH         LINE#         826
  C:D19FH         LINE#         827
  C:D19FH         LINE#         828
  C:D1A4H         LINE#         829
  C:D1A9H         LINE#         830
  C:D1A9H         LINE#         831
  C:D1B9H         LINE#         832
  C:D1BEH         LINE#         834
  C:D1CBH         LINE#         835
  C:D1E1H         LINE#         836
  C:D1E3H         LINE#         838
  C:D1E3H         LINE#         839
  C:D1E5H         LINE#         840
  C:D1E5H         LINE#         841
  C:D1E5H         LINE#         842
  -------         ENDPROC       _CH376BYTEWRITE
  -------         PROC          _CREATESDCARDFILE
  X:01F6H         SYMBOL        TarFileName
  -------         DO            
  X:01F9H         SYMBOL        s
  X:01FAH         SYMBOL        TarName
  X:01FBH         SYMBOL        TarUpDirClust
  -------         ENDDO         
  C:CC02H         LINE#         985
  C:CC0DH         LINE#         986
  C:CC0DH         LINE#         991
  C:CC15H         LINE#         992
  C:CC17H         LINE#         993
  C:CC17H         LINE#         994
  C:CC2FH         LINE#         995
  C:CC33H         LINE#         996
  C:CC33H         LINE#         997
  C:CC38H         LINE#         998
  C:CC38H         LINE#         999
  C:CC3BH         LINE#         1000
  C:CC3BH         LINE#         1001
  C:CC3FH         LINE#         1002
  C:CC3FH         LINE#         1003
  C:CC42H         LINE#         1004
  C:CC42H         LINE#         1006
  C:CC42H         LINE#         1007
  C:CC44H         LINE#         1008
  C:CC44H         LINE#         1009
  C:CC44H         LINE#         1010
  C:CC4FH         LINE#         1011
  C:CC51H         LINE#         1013
  C:CC51H         LINE#         1014
  C:CC5BH         LINE#         1015
  C:CC5BH         LINE#         1021
  C:CC7BH         LINE#         1022
  C:CC7FH         LINE#         1023
  C:CC7FH         LINE#         1024
  C:CC82H         LINE#         1025
BL51 BANKED LINKER/LOCATER V6.22                                                      06/24/2016  11:44:38  PAGE 38


  C:CC82H         LINE#         1028
  C:CC8AH         LINE#         1029
  C:CC8EH         LINE#         1030
  C:CC8EH         LINE#         1031
  C:CC91H         LINE#         1032
  C:CC91H         LINE#         1034
  C:CC96H         LINE#         1035
  -------         ENDPROC       _CREATESDCARDFILE
  -------         PROC          _WRITESDCARDFILEBUFFBYTES
  D:0001H         SYMBOL        SrcFileName
  X:01F6H         SYMBOL        ByteCount
  -------         DO            
  D:0007H         SYMBOL        s
  -------         ENDDO         
  C:D844H         LINE#         1041
  C:D84AH         LINE#         1042
  C:D84AH         LINE#         1046
  C:D84FH         LINE#         1047
  C:D854H         LINE#         1048
  C:D855H         LINE#         1050
  C:D85BH         LINE#         1051
  C:D860H         LINE#         1052
  C:D861H         LINE#         1054
  C:D876H         LINE#         1055
  C:D87BH         LINE#         1056
  C:D87CH         LINE#         1059
  C:D87FH         LINE#         1060
  C:D884H         LINE#         1061
  C:D885H         LINE#         1063
  C:D885H         LINE#         1064
  -------         ENDPROC       _WRITESDCARDFILEBUFFBYTES
  -------         PROC          _READSDCARDFILEALLBYTES
  X:01F6H         SYMBOL        SrcFileName
  -------         DO            
  X:01F9H         SYMBOL        s
  X:01FAH         SYMBOL        ThisLen
  X:01FCH         SYMBOL        FileSize
  X:0200H         SYMBOL        ByteCount
  -------         ENDDO         
  C:BC99H         LINE#         1069
  C:BCA4H         LINE#         1070
  C:BCA4H         LINE#         1073
  C:BCAEH         LINE#         1076
  C:BCAEH         LINE#         1078
  C:BCC3H         LINE#         1079
  C:BCC7H         LINE#         1080
  C:BCCAH         LINE#         1082
  C:BCE3H         LINE#         1083
  C:BCE3H         LINE#         1084
  C:BCECH         LINE#         1085
  C:BCEEH         LINE#         1087
  C:BCEEH         LINE#         1088
  C:BCF9H         LINE#         1089
  C:BCFDH         LINE#         1090
  C:BD00H         LINE#         1091
  C:BD00H         LINE#         1093
  C:BD14H         LINE#         1094
BL51 BANKED LINKER/LOCATER V6.22                                                      06/24/2016  11:44:38  PAGE 39


  C:BD18H         LINE#         1095
  C:BD1BH         LINE#         1097
  C:BD46H         LINE#         1099
  C:BD57H         LINE#         1101
  C:BD66H         LINE#         1102
  C:BD66H         LINE#         1103
  C:BD66H         LINE#         1104
  C:BD66H         LINE#         1106
  C:BD89H         LINE#         1109
  C:BD91H         LINE#         1110
  C:BD95H         LINE#         1111
  C:BD95H         LINE#         1112
  C:BD98H         LINE#         1113
  C:BD98H         LINE#         1115
  C:BD9AH         LINE#         1116
  -------         ENDPROC       _READSDCARDFILEALLBYTES
  -------         PROC          _READSDCARDFILE32BYTES
  D:0001H         SYMBOL        SrcFileName
  -------         DO            
  D:0007H         SYMBOL        s
  X:0226H         SYMBOL        ThisLen
  -------         ENDDO         
  C:DA50H         LINE#         1121
  C:DA50H         LINE#         1122
  C:DA50H         LINE#         1127
  C:DA55H         LINE#         1128
  C:DA5AH         LINE#         1129
  C:DA5BH         LINE#         1131
  C:DA66H         LINE#         1132
  C:DA6BH         LINE#         1133
  C:DA6CH         LINE#         1135
  C:DA7BH         LINE#         1136
  C:DA80H         LINE#         1137
  C:DA81H         LINE#         1140
  C:DA84H         LINE#         1141
  C:DA89H         LINE#         1142
  C:DA8AH         LINE#         1144
  C:DA8CH         LINE#         1145
  -------         ENDPROC       _READSDCARDFILE32BYTES
  -------         PROC          DELAY3US_PSX
  -------         DO            
  D:0007H         SYMBOL        i
  -------         ENDDO         
  C:E29BH         LINE#         38
  C:E29BH         LINE#         39
  C:E29BH         LINE#         42
  C:E29CH         LINE#         43
  C:E29DH         LINE#         44
  C:E29EH         LINE#         45
  C:E2A0H         LINE#         46
  C:E2A2H         LINE#         47
  -------         ENDPROC       DELAY3US_PSX
  -------         PROC          DELAY1US_PSX
  C:0006H         LINE#         49
  C:0006H         LINE#         50
  C:0006H         LINE#         51
  C:0007H         LINE#         52
BL51 BANKED LINKER/LOCATER V6.22                                                      06/24/2016  11:44:38  PAGE 40


  C:0008H         LINE#         53
  C:0009H         LINE#         54
  -------         ENDPROC       DELAY1US_PSX
  -------         PROC          INIT_SPI
  C:E1CFH         LINE#         57
  C:E1CFH         LINE#         58
  C:E1CFH         LINE#         60
  C:E1D2H         LINE#         61
  C:E1D5H         LINE#         62
  C:E1D8H         LINE#         63
  C:E1DBH         LINE#         65
  C:E1DDH         LINE#         66
  C:E1E0H         LINE#         67
  -------         ENDPROC       INIT_SPI
  -------         PROC          CLEAR_PSXBUFF
  -------         DO            
  X:01E3H         SYMBOL        i
  X:01E4H         SYMBOL        j
  X:01E5H         SYMBOL        psx_buff
  -------         ENDDO         
  C:D259H         LINE#         70
  C:D259H         LINE#         71
  C:D259H         LINE#         72
  C:D260H         LINE#         73
  C:D272H         LINE#         75
  C:D274H         LINE#         76
  C:D277H         LINE#         77
  C:D281H         LINE#         78
  C:D281H         LINE#         79
  C:D284H         LINE#         80
  C:D289H         LINE#         82
  C:D289H         LINE#         83
  C:D290H         LINE#         84
  C:D295H         LINE#         85
  C:D298H         LINE#         86
  C:D298H         LINE#         87
  C:D29EH         LINE#         88
  C:D2A3H         LINE#         89
  C:D2A6H         LINE#         90
  C:D2B6H         LINE#         91
  C:D2B9H         LINE#         92
  C:D2BFH         LINE#         93
  C:D2C1H         LINE#         94
  C:D2C3H         LINE#         95
  -------         ENDPROC       CLEAR_PSXBUFF
  -------         PROC          OBTAIN_PSXCODE
  -------         DO            
  X:01E3H         SYMBOL        i
  X:01E4H         SYMBOL        j
  X:01E5H         SYMBOL        psx_buff
  D:0004H         SYMBOL        psx_key_buff
  -------         ENDDO         
  C:4CEEH         LINE#         97
  C:4CEEH         LINE#         98
  C:4CEEH         LINE#         99
  C:4CF5H         LINE#         100
  C:4D07H         LINE#         101
BL51 BANKED LINKER/LOCATER V6.22                                                      06/24/2016  11:44:38  PAGE 41


  C:4D0AH         LINE#         103
  C:4D0CH         LINE#         104
  C:4D0FH         LINE#         105
  C:4D19H         LINE#         106
  C:4D19H         LINE#         107
  C:4D1CH         LINE#         108
  C:4D21H         LINE#         110
  C:4D21H         LINE#         111
  C:4D28H         LINE#         112
  C:4D2DH         LINE#         113
  C:4D30H         LINE#         114
  C:4D30H         LINE#         115
  C:4D36H         LINE#         116
  C:4D3BH         LINE#         117
  C:4D3EH         LINE#         118
  C:4D4EH         LINE#         119
  C:4D51H         LINE#         120
  C:4D57H         LINE#         121
  C:4D59H         LINE#         122
  C:4D5BH         LINE#         123
  C:4D63H         LINE#         124
  C:4D63H         LINE#         125
  C:4D6CH         LINE#         126
  C:4D6CH         LINE#         127
  C:4D74H         LINE#         128
  C:4D7BH         LINE#         130
  C:4D7BH         LINE#         131
  C:4D7BH         LINE#         132
  C:4D80H         LINE#         133
  C:4D84H         LINE#         134
  C:4D8EH         LINE#         135
  C:4D8EH         LINE#         136
  C:4E4EH         LINE#         137
  C:4E4EH         LINE#         138
  C:4E57H         LINE#         139
  C:4E60H         LINE#         140
  C:4E69H         LINE#         141
  C:4E72H         LINE#         143
  C:4E7BH         LINE#         144
  C:4E84H         LINE#         145
  C:4E8DH         LINE#         146
  C:4E96H         LINE#         148
  C:4E9FH         LINE#         149
  C:4EA8H         LINE#         150
  C:4EB1H         LINE#         151
  C:4EBAH         LINE#         152
  C:4EC3H         LINE#         153
  C:4ECCH         LINE#         154
  C:4ED5H         LINE#         155
  C:4EDEH         LINE#         156
  C:4EE7H         LINE#         157
  C:4EF0H         LINE#         158
  C:4EF9H         LINE#         159
  C:4F02H         LINE#         160
  C:4F0BH         LINE#         161
  C:4F14H         LINE#         162
  C:4F1DH         LINE#         163
BL51 BANKED LINKER/LOCATER V6.22                                                      06/24/2016  11:44:38  PAGE 42


  C:4F26H         LINE#         165
  C:4F2FH         LINE#         166
  C:4F38H         LINE#         167
  C:4F41H         LINE#         168
  C:4F4AH         LINE#         169
  C:4F53H         LINE#         170
  C:4F5BH         LINE#         171
  C:4F63H         LINE#         172
  C:4F6BH         LINE#         173
  C:4F73H         LINE#         174
  C:4F7BH         LINE#         175
  C:4F83H         LINE#         176
  C:4F8BH         LINE#         177
  C:4F93H         LINE#         178
  C:4F9BH         LINE#         179
  C:4FA3H         LINE#         181
  C:4FABH         LINE#         182
  C:4FB3H         LINE#         183
  C:4FBAH         LINE#         184
  C:4FC2H         LINE#         185
  C:4FCAH         LINE#         186
  C:4FD2H         LINE#         188
  C:4FD8H         LINE#         189
  C:4FD8H         LINE#         190
  C:4FE6H         LINE#         193
  C:4FF1H         LINE#         194
  C:4FF1H         LINE#         195
  C:4FF5H         LINE#         196
  C:4FFCH         LINE#         197
  C:5005H         LINE#         199
  C:5005H         LINE#         200
  C:5009H         LINE#         201
  C:5010H         LINE#         202
  C:5010H         LINE#         203
  C:5017H         LINE#         204
  C:5020H         LINE#         206
  C:5020H         LINE#         207
  C:5024H         LINE#         208
  C:502BH         LINE#         209
  C:502BH         LINE#         210
  C:5032H         LINE#         211
  C:503BH         LINE#         213
  C:503BH         LINE#         214
  C:503FH         LINE#         215
  C:5046H         LINE#         216
  C:5046H         LINE#         217
  C:504DH         LINE#         218
  C:5056H         LINE#         220
  C:5056H         LINE#         221
  C:505AH         LINE#         222
  C:5061H         LINE#         223
  C:5061H         LINE#         224
  C:5083H         LINE#         225
  C:5083H         LINE#         226
  C:508AH         LINE#         227
  C:5091H         LINE#         228
  C:5098H         LINE#         229
BL51 BANKED LINKER/LOCATER V6.22                                                      06/24/2016  11:44:38  PAGE 43


  C:509FH         LINE#         231
  C:50A6H         LINE#         232
  C:50ADH         LINE#         233
  C:50B4H         LINE#         234
  C:50BBH         LINE#         252
  C:50C1H         LINE#         253
  C:50C1H         LINE#         254
  C:50C1H         LINE#         255
  -------         ENDPROC       OBTAIN_PSXCODE
  -------         PROC          PSXKEY_FILTER
  C:D2C4H         LINE#         257
  C:D2C4H         LINE#         258
  C:D2C4H         LINE#         259
  C:D2D1H         LINE#         260
  C:D2D1H         LINE#         261
  C:D2D8H         LINE#         262
  C:D2D8H         LINE#         263
  C:D2E4H         LINE#         264
  C:D2E6H         LINE#         265
  C:D2E8H         LINE#         267
  C:D2E8H         LINE#         268
  C:D2F5H         LINE#         269
  C:D2F7H         LINE#         270
  C:D2F7H         LINE#         271
  C:D303H         LINE#         272
  C:D303H         LINE#         273
  C:D305H         LINE#         274
  C:D30AH         LINE#         275
  C:D30AH         LINE#         276
  C:D30CH         LINE#         278
  C:D30CH         LINE#         279
  C:D312H         LINE#         280
  C:D318H         LINE#         281
  C:D31EH         LINE#         282
  C:D31EH         LINE#         283
  C:D31FH         LINE#         285
  C:D31FH         LINE#         286
  C:D322H         LINE#         287
  C:D322H         LINE#         288
  C:D324H         LINE#         289
  C:D326H         LINE#         290
  C:D326H         LINE#         291
  C:D326H         LINE#         292
  -------         ENDPROC       PSXKEY_FILTER
  -------         PROC          CPU_INIT
  -------         DO            
  D:0007H         SYMBOL        i
  -------         ENDDO         
  C:D63CH         LINE#         45
  C:D63CH         LINE#         46
  C:D63CH         LINE#         49
  C:D63FH         LINE#         56
  C:D642H         LINE#         57
  C:D644H         LINE#         58
  C:D646H         LINE#         59
  C:D648H         LINE#         60
  C:D64AH         LINE#         61
BL51 BANKED LINKER/LOCATER V6.22                                                      06/24/2016  11:44:38  PAGE 44


  C:D64CH         LINE#         62
  C:D64EH         LINE#         63
  C:D650H         LINE#         64
  C:D653H         LINE#         65
  C:D655H         LINE#         66
  C:D658H         LINE#         67
  C:D65AH         LINE#         68
  C:D65CH         LINE#         69
  C:D65EH         LINE#         70
  C:D660H         LINE#         71
  C:D662H         LINE#         73
  C:D665H         LINE#         76
  C:D668H         LINE#         78
  C:D66BH         LINE#         80
  C:D66EH         LINE#         83
  C:D670H         LINE#         85
  C:D676H         LINE#         87
  C:D67DH         LINE#         88
  C:D681H         LINE#         90
  C:D681H         LINE#         91
  C:D68BH         LINE#         92
  -------         ENDPROC       CPU_INIT
  -------         PROC          ACCEL_INIT
  C:E190H         LINE#         95
  C:E190H         LINE#         96
  C:E190H         LINE#         97
  C:E192H         LINE#         98
  C:E195H         LINE#         99
  C:E195H         LINE#         101
  C:E19AH         LINE#         102
  C:E19DH         LINE#         103
  C:E1A2H         LINE#         104
  C:E1A5H         LINE#         105
  C:E1A5H         LINE#         106
  -------         ENDPROC       ACCEL_INIT
  -------         PROC          DOCHECKOUT_ONLINE
  -------         DO            
  X:01E3H         SYMBOL        ii
  X:01E4H         SYMBOL        jj
  -------         ENDDO         
  C:DC27H         LINE#         110
  C:DC27H         LINE#         111
  C:DC27H         LINE#         112
  C:DC2EH         LINE#         113
  C:DC3BH         LINE#         114
  C:DC3BH         LINE#         115
  C:DC43H         LINE#         116
  C:DC43H         LINE#         117
  C:DC48H         LINE#         118
  C:DC4EH         LINE#         119
  C:DC54H         LINE#         120
  C:DC55H         LINE#         122
  C:DC55H         LINE#         124
  C:DC55H         LINE#         127
  C:DC5BH         LINE#         129
  C:DC5BH         LINE#         131
  C:DC5DH         LINE#         132
BL51 BANKED LINKER/LOCATER V6.22                                                      06/24/2016  11:44:38  PAGE 45


  C:DC5EH         LINE#         133
  -------         ENDPROC       DOCHECKOUT_ONLINE
  -------         PROC          UART1SEND_INITPOSITON
  -------         DO            
  X:01EDH         SYMBOL        i
  -------         ENDDO         
  C:DE01H         LINE#         137
  C:DE01H         LINE#         138
  C:DE01H         LINE#         139
  C:DE06H         LINE#         140
  C:DE11H         LINE#         141
  C:DE11H         LINE#         142
  C:DE20H         LINE#         143
  C:DE25H         LINE#         144
  C:DE2DH         LINE#         145
  -------         ENDPROC       UART1SEND_INITPOSITON
  -------         PROC          ONLINE_DOINIT
  -------         DO            
  X:01E3H         SYMBOL        SrcName
  -------         ENDDO         
  C:DD6EH         LINE#         149
  C:DD6EH         LINE#         150
  C:DD6EH         LINE#         152
  C:DD73H         LINE#         153
  C:DD78H         LINE#         154
  C:DD7DH         LINE#         155
  C:DD82H         LINE#         156
  C:DD91H         LINE#         157
  C:DD9DH         LINE#         158
  C:DD9DH         LINE#         159
  C:DDA0H         LINE#         160
  C:DDA0H         LINE#         161
  -------         ENDPROC       ONLINE_DOINIT
  -------         PROC          QIANSHOU_DOINIT
  -------         DO            
  X:01E3H         SYMBOL        SrcName
  -------         ENDDO         
  C:DB7CH         LINE#         164
  C:DB7CH         LINE#         165
  C:DB7CH         LINE#         167
  C:DB8BH         LINE#         168
  C:DB97H         LINE#         169
  C:DB97H         LINE#         170
  C:DB9DH         LINE#         171
  C:DBA5H         LINE#         172
  C:DBADH         LINE#         173
  C:DBB5H         LINE#         174
  C:DBB5H         LINE#         175
  -------         ENDPROC       QIANSHOU_DOINIT
  -------         PROC          L?0790
  -------         ENDPROC       L?0790
  -------         PROC          SETVALUEPARAS
  -------         DO            
  X:01E3H         SYMBOL        i
  X:01E4H         SYMBOL        SrcName
  -------         ENDDO         
  C:D5F0H         LINE#         178
BL51 BANKED LINKER/LOCATER V6.22                                                      06/24/2016  11:44:38  PAGE 46


  C:D5F0H         LINE#         179
  C:D5F0H         LINE#         182
  C:D5F8H         LINE#         183
  C:D600H         LINE#         184
  C:D608H         LINE#         185
  C:D617H         LINE#         186
  C:D625H         LINE#         187
  C:D63BH         LINE#         188
  -------         ENDPROC       SETVALUEPARAS
  -------         PROC          PWM_24
  -------         DO            
  X:0246H         SYMBOL        i
  X:0247H         SYMBOL        j
  -------         ENDDO         
  C:92E4H         LINE#         191
  C:92E4H         LINE#         192
  C:92E4H         LINE#         194
  C:92E9H         LINE#         195
  C:930FH         LINE#         196
  C:9312H         LINE#         197
  C:9319H         LINE#         199
  C:931CH         LINE#         200
  C:9321H         LINE#         201
  C:9326H         LINE#         202
  C:9326H         LINE#         203
  C:934DH         LINE#         204
  C:935AH         LINE#         205
  C:9375H         LINE#         206
  C:9381H         LINE#         207
  C:9387H         LINE#         210
  C:938CH         LINE#         211
  C:93B2H         LINE#         212
  C:93B5H         LINE#         213
  C:93BCH         LINE#         215
  C:93BFH         LINE#         216
  C:93C4H         LINE#         217
  C:93C9H         LINE#         218
  C:93C9H         LINE#         219
  C:93F0H         LINE#         220
  C:93FDH         LINE#         221
  C:9418H         LINE#         222
  C:9424H         LINE#         223
  C:942AH         LINE#         226
  C:942FH         LINE#         227
  C:9455H         LINE#         228
  C:9458H         LINE#         229
  C:945BH         LINE#         230
  C:9462H         LINE#         232
  C:9467H         LINE#         233
  C:946CH         LINE#         234
  C:946CH         LINE#         235
  C:9493H         LINE#         236
  C:94A0H         LINE#         237
  C:94BBH         LINE#         238
  C:94C7H         LINE#         239
  C:94CDH         LINE#         240
  C:94CFH         LINE#         243
BL51 BANKED LINKER/LOCATER V6.22                                                      06/24/2016  11:44:38  PAGE 47


  C:94D2H         LINE#         244
  C:94D2H         LINE#         245
  C:94D9H         LINE#         246
  C:94D9H         LINE#         247
  C:94DCH         LINE#         248
  C:94E3H         LINE#         249
  C:94E3H         LINE#         250
  C:94F0H         LINE#         251
  C:94F0H         LINE#         252
  C:94F0H         LINE#         253
  C:94F0H         LINE#         255
  -------         ENDPROC       PWM_24
  -------         PROC          MAIN
  -------         DO            
  X:01DCH         SYMBOL        i
  X:01DEH         SYMBOL        j
  X:01E0H         SYMBOL        k
  X:01E2H         SYMBOL        n
  -------         ENDDO         
  C:0096H         LINE#         258
  C:0096H         LINE#         259
  C:0096H         LINE#         261
  C:009BH         LINE#         263
  C:009EH         LINE#         264
  C:00A3H         LINE#         265
  C:00A6H         LINE#         266
  C:00A9H         LINE#         267
  C:00ACH         LINE#         268
  C:00B4H         LINE#         269
  C:00B9H         LINE#         270
  C:00C1H         LINE#         271
  C:00CAH         LINE#         272
  C:00CFH         LINE#         274
  C:00D1H         LINE#         275
  C:00D7H         LINE#         276
  C:00DBH         LINE#         277
  C:00DDH         LINE#         278
  C:00DFH         LINE#         280
  C:00DFH         LINE#         281
  C:00DFH         LINE#         284
  C:00F1H         LINE#         285
  C:00F1H         LINE#         286
  C:00F3H         LINE#         287
  C:00F5H         LINE#         288
  C:00FAH         LINE#         289
  C:00FAH         LINE#         290
  C:00FDH         LINE#         291
  C:0105H         LINE#         292
  C:010AH         LINE#         293
  C:010DH         LINE#         294
  C:0115H         LINE#         295
  C:0115H         LINE#         296
  C:0117H         LINE#         297
  C:0119H         LINE#         298
  C:011EH         LINE#         299
  C:011EH         LINE#         301
  C:0124H         LINE#         302
BL51 BANKED LINKER/LOCATER V6.22                                                      06/24/2016  11:44:38  PAGE 48


  C:0124H         LINE#         303
  C:0126H         LINE#         304
  C:0128H         LINE#         305
  C:0170H         LINE#         306
  C:0170H         LINE#         307
  C:0170H         LINE#         308
  C:0177H         LINE#         309
  C:0177H         LINE#         310
  C:017AH         LINE#         311
  C:017AH         LINE#         312
  C:0181H         LINE#         313
  C:0181H         LINE#         314
  C:018AH         LINE#         315
  C:018FH         LINE#         317
  C:0192H         LINE#         318
  C:0192H         LINE#         319
  C:0194H         LINE#         320
  C:0194H         LINE#         321
  C:019BH         LINE#         322
  C:01A4H         LINE#         323
  C:01A9H         LINE#         325
  C:01ACH         LINE#         326
  C:01B2H         LINE#         327
  C:01B5H         LINE#         328
  C:01B5H         LINE#         329
  C:01B5H         LINE#         330
  C:01B8H         LINE#         331
  C:01BDH         LINE#         332
  C:01C0H         LINE#         333
  C:01C0H         LINE#         334
  C:01C0H         LINE#         335
  C:01C3H         LINE#         336
  C:01C8H         LINE#         337
  C:01CBH         LINE#         338
  C:01CBH         LINE#         339
  C:01D0H         LINE#         340
  C:01D8H         LINE#         341
  C:01DBH         LINE#         342
  C:01DEH         LINE#         343
  C:01DEH         LINE#         344
  C:01E3H         LINE#         345
  C:01EBH         LINE#         346
  C:01EEH         LINE#         347
  C:01F1H         LINE#         348
  C:01F1H         LINE#         349
  C:01F6H         LINE#         350
  C:01FEH         LINE#         351
  C:0203H         LINE#         352
  C:0206H         LINE#         353
  C:0206H         LINE#         354
  C:020BH         LINE#         355
  C:0213H         LINE#         356
  C:0218H         LINE#         357
  C:021BH         LINE#         358
  C:021BH         LINE#         359
  C:021DH         LINE#         360
  C:0220H         LINE#         361
BL51 BANKED LINKER/LOCATER V6.22                                                      06/24/2016  11:44:38  PAGE 49


  C:0224H         LINE#         363
  C:0224H         LINE#         364
  C:0235H         LINE#         365
  C:0237H         LINE#         366
  C:0237H         LINE#         367
  C:0239H         LINE#         368
  C:023BH         LINE#         369
  C:023DH         LINE#         371
  C:023DH         LINE#         372
  C:023FH         LINE#         373
  C:0244H         LINE#         374
  C:0244H         LINE#         375
  C:0244H         LINE#         376
  C:0247H         LINE#         377
  C:0247H         LINE#         378
  C:024CH         LINE#         379
  C:0255H         LINE#         380
  C:025AH         LINE#         381
  C:025FH         LINE#         382
  C:0261H         LINE#         383
  C:0261H         LINE#         384
  C:0266H         LINE#         385
  C:026EH         LINE#         386
  C:0270H         LINE#         387
  C:0270H         LINE#         388
  C:0277H         LINE#         389
  C:027EH         LINE#         390
  C:0285H         LINE#         391
  C:028CH         LINE#         392
  C:0293H         LINE#         393
  C:0295H         LINE#         394
  C:0297H         LINE#         395
  C:0297H         LINE#         396
  C:029EH         LINE#         397
  C:02A5H         LINE#         398
  C:02ACH         LINE#         399
  C:02B3H         LINE#         400
  C:02B9H         LINE#         401
  C:02BDH         LINE#         402
  C:02BFH         LINE#         403
  C:02BFH         LINE#         404
  C:02CFH         LINE#         405
  C:02CFH         LINE#         406
  C:02DAH         LINE#         407
  C:02DAH         LINE#         408
  C:02DAH         LINE#         409
  C:02DAH         LINE#         411
  C:02DCH         LINE#         412
  C:02DEH         LINE#         413
  C:02E0H         LINE#         414
  C:02E5H         LINE#         415
  C:02E5H         LINE#         418
  C:02E8H         LINE#         419
  C:02E8H         LINE#         420
  C:02EBH         LINE#         421
  C:02EBH         LINE#         422
  C:02F0H         LINE#         425
BL51 BANKED LINKER/LOCATER V6.22                                                      06/24/2016  11:44:38  PAGE 50


  C:02F3H         LINE#         426
  C:02F6H         LINE#         427
  C:0301H         LINE#         428
  C:0301H         LINE#         429
  C:0303H         LINE#         430
  C:0305H         LINE#         431
  C:030AH         LINE#         432
  C:030EH         LINE#         433
  C:0314H         LINE#         434
  C:0314H         LINE#         435
  C:03C0H         LINE#         436
  C:03C0H         LINE#         437
  C:03C0H         LINE#         438
  C:03C0H         LINE#         439
  C:03C0H         LINE#         440
  C:03C9H         LINE#         441
  C:03C9H         LINE#         442
  C:03D0H         LINE#         443
  C:03D9H         LINE#         444
  C:03DFH         LINE#         446
  C:03E2H         LINE#         447
  C:03E2H         LINE#         448
  C:03E2H         LINE#         449
  C:03E5H         LINE#         450
  C:03E5H         LINE#         451
  C:03EEH         LINE#         452
  C:03F1H         LINE#         453
  C:03F6H         LINE#         454
  C:03F6H         LINE#         455
  C:03F6H         LINE#         456
  C:03F9H         LINE#         457
  C:03F9H         LINE#         458
  C:0402H         LINE#         459
  C:0402H         LINE#         460
  C:0409H         LINE#         461
  C:0412H         LINE#         462
  C:0417H         LINE#         464
  C:041AH         LINE#         465
  C:041AH         LINE#         466
  C:041AH         LINE#         467
  C:041DH         LINE#         468
  C:041DH         LINE#         469
  C:0426H         LINE#         470
  C:0429H         LINE#         471
  C:042EH         LINE#         472
  C:042EH         LINE#         473
  C:042EH         LINE#         474
  C:0431H         LINE#         475
  C:0431H         LINE#         476
  C:043AH         LINE#         477
  C:0442H         LINE#         478
  C:0447H         LINE#         479
  C:044BH         LINE#         480
  C:044BH         LINE#         481
  C:044BH         LINE#         482
  C:044EH         LINE#         483
  C:044EH         LINE#         484
BL51 BANKED LINKER/LOCATER V6.22                                                      06/24/2016  11:44:38  PAGE 51


  C:0457H         LINE#         485
  C:045FH         LINE#         486
  C:0464H         LINE#         487
  C:0464H         LINE#         488
  C:0464H         LINE#         489
  C:0467H         LINE#         490
  C:0467H         LINE#         491
  C:0470H         LINE#         492
  C:0478H         LINE#         493
  C:047DH         LINE#         494
  C:0481H         LINE#         495
  C:0481H         LINE#         496
  C:0481H         LINE#         497
  C:0484H         LINE#         498
  C:0484H         LINE#         499
  C:048DH         LINE#         500
  C:0495H         LINE#         501
  C:049AH         LINE#         502
  C:049AH         LINE#         503
  C:049AH         LINE#         504
  C:049DH         LINE#         505
  C:049DH         LINE#         507
  C:049DH         LINE#         508
  C:049DH         LINE#         509
  C:049DH         LINE#         510
  C:049DH         LINE#         511
  C:049DH         LINE#         512
  C:049DH         LINE#         513
  C:049DH         LINE#         515
  C:049DH         LINE#         516
  C:049DH         LINE#         517
  C:049DH         LINE#         519
  C:049DH         LINE#         520
  C:049DH         LINE#         521
  C:049DH         LINE#         522
  C:049DH         LINE#         524
  C:049DH         LINE#         526
  C:049DH         LINE#         529
  C:049DH         LINE#         530
  C:049DH         LINE#         533
  C:049DH         LINE#         534
  C:049DH         LINE#         536
  C:049DH         LINE#         537
  C:049DH         LINE#         539
  C:049DH         LINE#         541
  C:049DH         LINE#         542
  C:049DH         LINE#         543
  C:049DH         LINE#         545
  C:049DH         LINE#         546
  C:049DH         LINE#         547
  C:049DH         LINE#         548
  C:049DH         LINE#         549
  C:049DH         LINE#         551
  C:049DH         LINE#         552
  C:049DH         LINE#         553
  C:049DH         LINE#         554
  C:049DH         LINE#         555
BL51 BANKED LINKER/LOCATER V6.22                                                      06/24/2016  11:44:38  PAGE 52


  C:04A5H         LINE#         556
  C:04AAH         LINE#         557
  C:04ADH         LINE#         558
  C:04ADH         LINE#         559
  C:04ADH         LINE#         560
  C:04ADH         LINE#         561
  C:04ADH         LINE#         562
  C:04B6H         LINE#         563
  C:04BEH         LINE#         564
  C:04C1H         LINE#         565
  C:04C1H         LINE#         566
  C:04C4H         LINE#         567
  C:04C4H         LINE#         568
  C:04C4H         LINE#         569
  C:04C4H         LINE#         570
  C:04C4H         LINE#         571
  C:04CDH         LINE#         572
  C:04D5H         LINE#         573
  C:04D8H         LINE#         574
  C:04D8H         LINE#         575
  C:04DBH         LINE#         576
  C:04DBH         LINE#         577
  C:04E3H         LINE#         578
  C:04E8H         LINE#         579
  C:04EBH         LINE#         580
  C:04EBH         LINE#         581
  C:04F4H         LINE#         582
  C:04FCH         LINE#         583
  C:0501H         LINE#         584
  C:0501H         LINE#         585
  C:0501H         LINE#         586
  C:0504H         LINE#         587
  C:0504H         LINE#         588
  C:050DH         LINE#         589
  C:0515H         LINE#         590
  C:051AH         LINE#         591
  C:051AH         LINE#         592
  C:051AH         LINE#         593
  C:051DH         LINE#         595
  C:051DH         LINE#         596
  C:051FH         LINE#         597
  C:0522H         LINE#         598
  C:0525H         LINE#         600
  C:0525H         LINE#         601
  C:0536H         LINE#         602
  C:0538H         LINE#         603
  C:0538H         LINE#         604
  C:0538H         LINE#         605
  C:0538H         LINE#         606
  C:053BH         LINE#         608
  C:053BH         LINE#         609
  C:053BH         LINE#         610
  C:053BH         LINE#         611
  C:053BH         LINE#         612
  C:053BH         LINE#         613
  C:053EH         LINE#         614
  C:053EH         LINE#         615
BL51 BANKED LINKER/LOCATER V6.22                                                      06/24/2016  11:44:38  PAGE 53


  C:0543H         LINE#         616
  C:054CH         LINE#         617
  C:0551H         LINE#         618
  C:0551H         LINE#         619
  C:0554H         LINE#         620
  C:0554H         LINE#         621
  C:0554H         LINE#         622
  C:0554H         LINE#         623
  C:0557H         LINE#         627
  C:0557H         LINE#         628
  C:0557H         LINE#         630
  C:0557H         LINE#         631
  C:058CH         LINE#         632
  C:058CH         LINE#         633
  C:058CH         LINE#         634
  C:0593H         LINE#         635
  C:0593H         LINE#         636
  C:059CH         LINE#         637
  C:05A1H         LINE#         639
  C:05A4H         LINE#         640
  C:05A4H         LINE#         641
  C:05A6H         LINE#         642
  C:05A6H         LINE#         643
  C:05A6H         LINE#         644
  C:05A9H         LINE#         645
  C:05AEH         LINE#         646
  C:05B1H         LINE#         647
  C:05B1H         LINE#         648
  C:05B8H         LINE#         649
  C:05C1H         LINE#         650
  C:05C6H         LINE#         652
  C:05C9H         LINE#         653
  C:05CFH         LINE#         654
  C:05D2H         LINE#         655
  C:05D2H         LINE#         656
  C:05D2H         LINE#         657
  C:05D5H         LINE#         658
  C:05DAH         LINE#         659
  C:05DDH         LINE#         660
  C:05DDH         LINE#         661
  C:05E2H         LINE#         662
  C:05EAH         LINE#         663
  C:05EDH         LINE#         664
  C:05F0H         LINE#         665
  C:05F0H         LINE#         666
  C:05F5H         LINE#         667
  C:05FDH         LINE#         668
  C:0602H         LINE#         669
  C:0605H         LINE#         670
  C:0605H         LINE#         671
  C:060AH         LINE#         672
  C:0612H         LINE#         673
  C:0615H         LINE#         674
  C:0618H         LINE#         675
  C:0618H         LINE#         676
  C:061DH         LINE#         677
  C:0625H         LINE#         678
BL51 BANKED LINKER/LOCATER V6.22                                                      06/24/2016  11:44:38  PAGE 54


  C:062AH         LINE#         679
  C:062DH         LINE#         680
  C:062DH         LINE#         681
  C:062FH         LINE#         682
  C:0632H         LINE#         683
  C:0636H         LINE#         685
  C:0636H         LINE#         686
  C:0647H         LINE#         687
  C:0649H         LINE#         688
  C:0649H         LINE#         689
  C:064BH         LINE#         690
  C:064DH         LINE#         691
  C:064FH         LINE#         693
  C:064FH         LINE#         694
  C:0651H         LINE#         695
  C:0656H         LINE#         696
  C:0656H         LINE#         697
  C:0656H         LINE#         698
  C:0659H         LINE#         699
  C:0659H         LINE#         700
  C:065EH         LINE#         701
  C:0667H         LINE#         702
  C:066CH         LINE#         703
  C:0671H         LINE#         704
  C:0674H         LINE#         705
  C:0674H         LINE#         706
  C:0679H         LINE#         707
  C:067BH         LINE#         708
  C:067EH         LINE#         709
  C:067EH         LINE#         710
  C:0685H         LINE#         711
  C:068CH         LINE#         712
  C:0693H         LINE#         713
  C:069AH         LINE#         714
  C:06A1H         LINE#         715
  C:06A3H         LINE#         716
  C:06A5H         LINE#         717
  C:06A5H         LINE#         718
  C:06ACH         LINE#         719
  C:06B3H         LINE#         720
  C:06BAH         LINE#         721
  C:06C1H         LINE#         722
  C:06C7H         LINE#         723
  C:06C9H         LINE#         724
  C:06CBH         LINE#         725
  C:06CBH         LINE#         726
  C:06CBH         LINE#         727
  C:06CBH         LINE#         728
  C:06D5H         LINE#         729
  C:06D5H         LINE#         732
  C:06FDH         LINE#         733
  C:06FDH         LINE#         734
  C:06FDH         LINE#         735
  C:0700H         LINE#         736
  C:0702H         LINE#         737
  C:0702H         LINE#         738
  C:0706H         LINE#         739
BL51 BANKED LINKER/LOCATER V6.22                                                      06/24/2016  11:44:38  PAGE 55


  C:0708H         LINE#         740
  C:0708H         LINE#         741
  C:070CH         LINE#         742
  C:070EH         LINE#         743
  C:070EH         LINE#         744
  C:0712H         LINE#         745
  C:0714H         LINE#         746
  C:0714H         LINE#         747
  C:0718H         LINE#         748
  C:071AH         LINE#         749
  C:071AH         LINE#         750
  C:071EH         LINE#         751
  C:0720H         LINE#         752
  C:0720H         LINE#         753
  C:0724H         LINE#         754
  C:0726H         LINE#         755
  C:0726H         LINE#         756
  C:072AH         LINE#         757
  C:072CH         LINE#         758
  C:0736H         LINE#         759
  C:0738H         LINE#         760
  C:0738H         LINE#         761
  C:0738H         LINE#         763
  C:0738H         LINE#         764
  C:073DH         LINE#         765
  C:073DH         LINE#         786
  C:073DH         LINE#         787
  C:073DH         LINE#         788
  C:073DH         LINE#         789
  C:073DH         LINE#         790
  C:073DH         LINE#         791
  C:073DH         LINE#         792
  C:073DH         LINE#         793
  C:073DH         LINE#         794
  C:073DH         LINE#         795
  C:073DH         LINE#         796
  C:073DH         LINE#         797
  C:073DH         LINE#         798
  C:073DH         LINE#         799
  C:073DH         LINE#         800
  C:073DH         LINE#         801
  C:073DH         LINE#         802
  C:073DH         LINE#         803
  C:073DH         LINE#         804
  C:073DH         LINE#         805
  C:073DH         LINE#         807
  C:0740H         LINE#         808
  C:0742H         LINE#         809
  C:0744H         LINE#         810
  C:0749H         LINE#         811
  C:074BH         LINE#         813
  C:074BH         LINE#         814
  C:074EH         LINE#         815
  C:074EH         LINE#         816
  C:0753H         LINE#         817
  C:0755H         LINE#         818
  C:075BH         LINE#         819
BL51 BANKED LINKER/LOCATER V6.22                                                      06/24/2016  11:44:38  PAGE 56


  C:075BH         LINE#         820
  C:075BH         LINE#         823
  C:0761H         LINE#         824
  C:0761H         LINE#         825
  C:0763H         LINE#         826
  C:0765H         LINE#         827
  C:0806H         LINE#         828
  C:0806H         LINE#         829
  C:0806H         LINE#         831
  C:080BH         LINE#         832
  C:080DH         LINE#         833
  C:0810H         LINE#         834
  C:0814H         LINE#         836
  C:0814H         LINE#         837
  C:0825H         LINE#         838
  C:0827H         LINE#         839
  C:0827H         LINE#         840
  C:0829H         LINE#         841
  C:082BH         LINE#         842
  C:082DH         LINE#         844
  C:082DH         LINE#         845
  C:082FH         LINE#         846
  C:0834H         LINE#         847
  C:0834H         LINE#         848
  C:0834H         LINE#         849
  C:0837H         LINE#         850
  C:0837H         LINE#         851
  C:083CH         LINE#         852
  C:0843H         LINE#         853
  C:0846H         LINE#         854
  C:0849H         LINE#         855
  C:0849H         LINE#         856
  C:084EH         LINE#         857
  C:0855H         LINE#         858
  C:0858H         LINE#         859
  C:085BH         LINE#         860
  C:085BH         LINE#         861
  C:0860H         LINE#         862
  C:0867H         LINE#         863
  C:086AH         LINE#         864
  C:086DH         LINE#         865
  C:086DH         LINE#         866
  C:0872H         LINE#         867
  C:0879H         LINE#         868
  C:087CH         LINE#         869
  C:087FH         LINE#         871
  C:087FH         LINE#         872
  C:0884H         LINE#         873
  C:088BH         LINE#         874
  C:088EH         LINE#         875
  C:0891H         LINE#         876
  C:0891H         LINE#         877
  C:0896H         LINE#         878
  C:089DH         LINE#         879
  C:08A0H         LINE#         880
  C:08A3H         LINE#         881
  C:08A3H         LINE#         882
BL51 BANKED LINKER/LOCATER V6.22                                                      06/24/2016  11:44:38  PAGE 57


  C:08A8H         LINE#         883
  C:08AFH         LINE#         884
  C:08B2H         LINE#         885
  C:08B5H         LINE#         886
  C:08B5H         LINE#         887
  C:08BAH         LINE#         888
  C:08C1H         LINE#         889
  C:08C4H         LINE#         890
  C:08C7H         LINE#         892
  C:08C7H         LINE#         893
  C:08CCH         LINE#         894
  C:08CFH         LINE#         895
  C:08D2H         LINE#         896
  C:08D2H         LINE#         897
  C:08D2H         LINE#         898
  C:08D5H         LINE#         899
  C:08D5H         LINE#         900
  C:08D5H         LINE#         901
  C:08D8H         LINE#         902
  C:08D8H         LINE#         903
  C:08D8H         LINE#         904
  C:08DBH         LINE#         906
  C:08DBH         LINE#         907
  C:08DBH         LINE#         908
  C:08DEH         LINE#         909
  C:08DEH         LINE#         910
  C:08DEH         LINE#         911
  C:08E1H         LINE#         912
  C:08E1H         LINE#         913
  C:08E1H         LINE#         914
  C:08E4H         LINE#         915
  C:08E4H         LINE#         916
  C:08E4H         LINE#         917
  C:08E7H         LINE#         919
  C:08E7H         LINE#         920
  C:08ECH         LINE#         921
  C:08F3H         LINE#         922
  C:08F6H         LINE#         923
  C:08F9H         LINE#         924
  C:08F9H         LINE#         925
  C:08FEH         LINE#         926
  C:0905H         LINE#         927
  C:0908H         LINE#         928
  C:090BH         LINE#         929
  C:090EH         LINE#         930
  C:090EH         LINE#         931
  C:0913H         LINE#         932
  C:091AH         LINE#         933
  C:091FH         LINE#         934
  C:0922H         LINE#         935
  C:0922H         LINE#         936
  C:0927H         LINE#         937
  C:092EH         LINE#         938
  C:0931H         LINE#         939
  C:0934H         LINE#         941
  C:0934H         LINE#         942
  C:0939H         LINE#         943
BL51 BANKED LINKER/LOCATER V6.22                                                      06/24/2016  11:44:38  PAGE 58


  C:0940H         LINE#         944
  C:0943H         LINE#         945
  C:0946H         LINE#         946
  C:0946H         LINE#         947
  C:094BH         LINE#         948
  C:0952H         LINE#         949
  C:0955H         LINE#         950
  C:0958H         LINE#         951
  C:095BH         LINE#         952
  C:095BH         LINE#         953
  C:0960H         LINE#         954
  C:0967H         LINE#         955
  C:096CH         LINE#         956
  C:096FH         LINE#         957
  C:096FH         LINE#         958
  C:0974H         LINE#         959
  C:097BH         LINE#         960
  C:097EH         LINE#         961
  C:0981H         LINE#         963
  C:0981H         LINE#         964
  C:0981H         LINE#         965
  C:0984H         LINE#         966
  C:0984H         LINE#         967
  C:0984H         LINE#         968
  C:0987H         LINE#         969
  C:0987H         LINE#         970
  C:0990H         LINE#         971
  C:0990H         LINE#         972
  C:0992H         LINE#         973
  C:0992H         LINE#         974
  C:0995H         LINE#         975
  C:0995H         LINE#         976
  C:0995H         LINE#         977
  C:0997H         LINE#         978
  C:0997H         LINE#         979
  C:09A0H         LINE#         980
  C:09A0H         LINE#         981
  C:09A2H         LINE#         982
  C:09A2H         LINE#         983
  C:09A5H         LINE#         984
  C:09A5H         LINE#         985
  C:09A7H         LINE#         986
  C:09AAH         LINE#         988
  C:09AAH         LINE#         989
  C:09AFH         LINE#         990
  C:09B6H         LINE#         991
  C:09BBH         LINE#         992
  C:09BBH         LINE#         993
  C:09BBH         LINE#         994
  C:09BEH         LINE#         995
  C:09BEH         LINE#         996
  C:09C3H         LINE#         997
  C:09CAH         LINE#         998
  C:09CFH         LINE#         999
  C:09CFH         LINE#         1000
  C:09CFH         LINE#         1001
  C:09D2H         LINE#         1002
BL51 BANKED LINKER/LOCATER V6.22                                                      06/24/2016  11:44:38  PAGE 59


  C:09D2H         LINE#         1003
  C:09D7H         LINE#         1004
  C:09DEH         LINE#         1005
  C:09E3H         LINE#         1006
  C:09E6H         LINE#         1007
  C:09E6H         LINE#         1008
  C:09EBH         LINE#         1009
  C:0A42H         LINE#         1010
  C:0A44H         LINE#         1011
  C:0A47H         LINE#         1012
  C:0A47H         LINE#         1013
  C:0A4CH         LINE#         1014
  C:0A51H         LINE#         1015
  C:0A54H         LINE#         1016
  C:0A54H         LINE#         1017
  C:0A59H         LINE#         1018
  C:0A60H         LINE#         1019
  C:0A65H         LINE#         1020
  C:0ABDH         LINE#         1021
  C:0ABFH         LINE#         1022
  C:0AC2H         LINE#         1023
  C:0AC2H         LINE#         1024
  C:0AC7H         LINE#         1025
  C:0ACEH         LINE#         1026
  C:0AD3H         LINE#         1027
  C:0B2BH         LINE#         1028
  C:0B2DH         LINE#         1029
  C:0B30H         LINE#         1031
  C:0B30H         LINE#         1032
  C:0B35H         LINE#         1033
  C:0B3CH         LINE#         1034
  C:0B41H         LINE#         1035
  C:0B99H         LINE#         1036
  C:0B9BH         LINE#         1037
  C:0B9DH         LINE#         1038
  C:0B9DH         LINE#         1039
  C:0BA2H         LINE#         1040
  C:0BA9H         LINE#         1041
  C:0BAEH         LINE#         1042
  C:0C06H         LINE#         1043
  C:0C11H         LINE#         1044
  C:0C14H         LINE#         1046
  C:0C14H         LINE#         1047
  C:0C1AH         LINE#         1048
  C:0C2BH         LINE#         1049
  C:0C3BH         LINE#         1050
  C:0C4EH         LINE#         1051
  C:0C50H         LINE#         1052
  C:0C52H         LINE#         1053
  C:0C52H         LINE#         1054
  C:0C58H         LINE#         1055
  C:0C62H         LINE#         1056
  C:0C73H         LINE#         1057
  C:0C87H         LINE#         1058
  C:0C89H         LINE#         1059
  C:0C8BH         LINE#         1060
  C:0C8BH         LINE#         1061
BL51 BANKED LINKER/LOCATER V6.22                                                      06/24/2016  11:44:38  PAGE 60


  C:0C91H         LINE#         1062
  C:0C9BH         LINE#         1063
  C:0CACH         LINE#         1064
  C:0CC0H         LINE#         1065
  C:0CC2H         LINE#         1066
  C:0CC4H         LINE#         1067
  C:0CC4H         LINE#         1068
  C:0CCBH         LINE#         1069
  C:0CCEH         LINE#         1071
  C:0CCEH         LINE#         1072
  C:0CD4H         LINE#         1073
  C:0CE8H         LINE#         1074
  C:0CF9H         LINE#         1075
  C:0D0DH         LINE#         1076
  C:0D0FH         LINE#         1077
  C:0D11H         LINE#         1078
  C:0D11H         LINE#         1079
  C:0D17H         LINE#         1080
  C:0D21H         LINE#         1081
  C:0D32H         LINE#         1082
  C:0D46H         LINE#         1083
  C:0D48H         LINE#         1084
  C:0D4AH         LINE#         1085
  C:0D4AH         LINE#         1086
  C:0D50H         LINE#         1087
  C:0D5AH         LINE#         1088
  C:0D6CH         LINE#         1089
  C:0D80H         LINE#         1090
  C:0D82H         LINE#         1091
  C:0D84H         LINE#         1092
  C:0D84H         LINE#         1093
  C:0D8AH         LINE#         1094
  C:0D95H         LINE#         1095
  C:0DA5H         LINE#         1096
  C:0DB7H         LINE#         1097
  C:0DBAH         LINE#         1098
  C:0DBDH         LINE#         1100
  C:0DBDH         LINE#         1101
  C:0DC3H         LINE#         1102
  C:0DD7H         LINE#         1103
  C:0DEAH         LINE#         1104
  C:0DFEH         LINE#         1105
  C:0E01H         LINE#         1106
  C:0E04H         LINE#         1107
  C:0E04H         LINE#         1108
  C:0E0AH         LINE#         1109
  C:0E1DH         LINE#         1110
  C:0E2FH         LINE#         1111
  C:0E43H         LINE#         1112
  C:0E46H         LINE#         1113
  C:0E48H         LINE#         1114
  C:0E48H         LINE#         1115
  C:0E4EH         LINE#         1116
  C:0E61H         LINE#         1117
  C:0E73H         LINE#         1118
  C:0E87H         LINE#         1119
  C:0E8FH         LINE#         1120
BL51 BANKED LINKER/LOCATER V6.22                                                      06/24/2016  11:44:38  PAGE 61


  C:0E92H         LINE#         1121
  C:0E92H         LINE#         1122
  C:0EA3H         LINE#         1123
  C:0EBEH         LINE#         1124
  C:0EEFH         LINE#         1125
  C:0F38H         LINE#         1126
  C:0F3DH         LINE#         1128
  C:0F3DH         LINE#         1129
  C:0F3DH         LINE#         1130
  C:0F3FH         LINE#         1131
  C:0F41H         LINE#         1132
  C:0F41H         LINE#         1134
  -------         ENDPROC       MAIN
  -------         PROC          UART1_INTERRUPT
  C:D4EDH         LINE#         1139
  C:D4FAH         LINE#         1141
  C:D4FDH         LINE#         1142
  C:D4FDH         LINE#         1143
  C:D4FFH         LINE#         1144
  C:D512H         LINE#         1153
  C:D520H         LINE#         1154
  C:D52CH         LINE#         1155
  C:D533H         LINE#         1182
  C:D535H         LINE#         1183
  C:D537H         LINE#         1184
  -------         ENDPROC       UART1_INTERRUPT
  -------         PROC          UART2_INTERRUPT
  C:B87AH         LINE#         1187
  C:B88BH         LINE#         1189
  C:B893H         LINE#         1190
  C:B893H         LINE#         1191
  C:B896H         LINE#         1192
  C:B8A7H         LINE#         1194
  C:B8ADH         LINE#         1195
  C:B8ADH         LINE#         1196
  C:B8BEH         LINE#         1197
  C:B8C3H         LINE#         1198
  C:B8C5H         LINE#         1199
  C:B8CAH         LINE#         1200
  C:B8CDH         LINE#         1202
  C:B8CDH         LINE#         1203
  C:B8D7H         LINE#         1204
  C:B8D7H         LINE#         1205
  C:B8E9H         LINE#         1206
  C:B8EFH         LINE#         1207
  C:B8F7H         LINE#         1208
  C:B901H         LINE#         1209
  C:B903H         LINE#         1211
  C:B903H         LINE#         1212
  C:B911H         LINE#         1213
  C:B911H         LINE#         1214
  C:B923H         LINE#         1215
  C:B929H         LINE#         1216
  C:B92BH         LINE#         1218
  C:B92BH         LINE#         1219
  C:B93EH         LINE#         1220
  C:B93EH         LINE#         1221
BL51 BANKED LINKER/LOCATER V6.22                                                      06/24/2016  11:44:38  PAGE 62


  C:B945H         LINE#         1222
  C:B945H         LINE#         1223
  C:B952H         LINE#         1224
  C:B95DH         LINE#         1225
  C:B96CH         LINE#         1226
  C:B96CH         LINE#         1227
  C:B96EH         LINE#         1228
  C:B96EH         LINE#         1229
  C:B973H         LINE#         1230
  C:B973H         LINE#         1231
  C:B973H         LINE#         1232
  C:B973H         LINE#         1234
  C:B975H         LINE#         1235
  C:B978H         LINE#         1236
  -------         ENDPROC       UART2_INTERRUPT
  -------         PROC          UART3_INTERRUPT
  C:E0A1H         LINE#         1239
  C:E0A7H         LINE#         1241
  C:E0ACH         LINE#         1242
  C:E0ACH         LINE#         1243
  C:E0AFH         LINE#         1244
  C:E0B5H         LINE#         1247
  C:E0B7H         LINE#         1248
  C:E0BAH         LINE#         1249
  -------         ENDPROC       UART3_INTERRUPT
  -------         PROC          UART4_INTERRUPT
  C:E01AH         LINE#         1252
  C:E020H         LINE#         1254
  C:E025H         LINE#         1255
  C:E025H         LINE#         1256
  C:E028H         LINE#         1257
  C:E02EH         LINE#         1259
  C:E030H         LINE#         1260
  C:E032H         LINE#         1261
  C:E035H         LINE#         1262
  -------         ENDPROC       UART4_INTERRUPT
  -------         ENDMOD        MAIN

  -------         MODULE        DELAY
  C:0000H         SYMBOL        _ICE_DUMMY_
  C:DFA6H         PUBLIC        _delay500ms
  C:E0FEH         PUBLIC        _delay100us
  C:002EH         PUBLIC        _delay500us
  C:E117H         PUBLIC        _delay1ms
  C:E1E1H         PUBLIC        _delay8us
  C:DCCFH         PUBLIC        _delay1s
  C:DF7EH         PUBLIC        _delay10ms
  C:E1F3H         PUBLIC        _delay10us
  -------         PROC          _DELAY8US
  D:0007H         SYMBOL        num
  -------         DO            
  D:0005H         SYMBOL        i
  D:0006H         SYMBOL        j
  -------         ENDDO         
  C:E1E1H         LINE#         6
  C:E1E1H         LINE#         7
  C:E1E1H         LINE#         9
BL51 BANKED LINKER/LOCATER V6.22                                                      06/24/2016  11:44:38  PAGE 63


  C:E1E8H         LINE#         12
  C:E1F2H         LINE#         23
  -------         ENDPROC       _DELAY8US
  -------         PROC          _DELAY10US
  D:0007H         SYMBOL        num
  -------         DO            
  D:0005H         SYMBOL        i
  D:0006H         SYMBOL        j
  -------         ENDDO         
  C:E1F3H         LINE#         25
  C:E1F3H         LINE#         26
  C:E1F3H         LINE#         27
  C:E1FAH         LINE#         28
  C:E204H         LINE#         30
  -------         ENDPROC       _DELAY10US
  -------         PROC          _DELAY100US
  D:0004H         SYMBOL        num
  -------         DO            
  D:0002H         SYMBOL        i
  D:0003H         SYMBOL        j
  -------         ENDDO         
  C:E0FEH         LINE#         32
  C:E100H         LINE#         33
  C:E100H         LINE#         34
  C:E107H         LINE#         35
  C:E109H         LINE#         36
  C:E116H         LINE#         37
  -------         ENDPROC       _DELAY100US
  -------         PROC          _DELAY500US
  D:0007H         SYMBOL        num
  -------         DO            
  D:0005H         SYMBOL        i
  D:0004H         SYMBOL        j
  D:0006H         SYMBOL        k
  -------         ENDDO         
  C:002EH         LINE#         54
  C:002EH         LINE#         55
  C:002EH         LINE#         61
  C:0035H         LINE#         62
  C:0035H         LINE#         66
  C:0037H         LINE#         67
  C:0039H         LINE#         69
  C:0039H         LINE#         70
  C:003BH         LINE#         71
  C:003DH         LINE#         72
  C:0040H         LINE#         73
  -------         ENDPROC       _DELAY500US
  -------         PROC          _DELAY1MS
  D:0004H         SYMBOL        num
  -------         DO            
  D:0002H         SYMBOL        i
  D:0003H         SYMBOL        j
  -------         ENDDO         
  C:E117H         LINE#         76
  C:E119H         LINE#         77
  C:E119H         LINE#         78
  C:E120H         LINE#         79
BL51 BANKED LINKER/LOCATER V6.22                                                      06/24/2016  11:44:38  PAGE 64


  C:E122H         LINE#         80
  C:E12FH         LINE#         81
  -------         ENDPROC       _DELAY1MS
  -------         PROC          _DELAY10MS
  X:0249H         SYMBOL        num
  -------         DO            
  D:0001H         SYMBOL        i
  X:024AH         SYMBOL        j
  -------         ENDDO         
  C:DF7EH         LINE#         83
  C:DF83H         LINE#         84
  C:DF83H         LINE#         85
  C:DF91H         LINE#         86
  C:DF93H         LINE#         87
  C:DFA5H         LINE#         88
  -------         ENDPROC       _DELAY10MS
  -------         PROC          _DELAY500MS
  X:0249H         SYMBOL        num
  -------         DO            
  D:0001H         SYMBOL        i
  X:024AH         SYMBOL        j
  -------         ENDDO         
  C:DFA6H         LINE#         90
  C:DFABH         LINE#         91
  C:DFABH         LINE#         92
  C:DFB9H         LINE#         93
  C:DFBBH         LINE#         94
  C:DFCDH         LINE#         95
  -------         ENDPROC       _DELAY500MS
  -------         PROC          _DELAY1S
  X:021EH         SYMBOL        num
  -------         DO            
  X:021FH         SYMBOL        i
  X:0220H         SYMBOL        j
  -------         ENDDO         
  C:DCCFH         LINE#         97
  C:DCD4H         LINE#         98
  C:DCD4H         LINE#         99
  C:DCE6H         LINE#         100
  C:DCEBH         LINE#         101
  C:DD04H         LINE#         102
  -------         ENDPROC       _DELAY1S
  -------         ENDMOD        DELAY

  -------         MODULE        TUXINGHUA
  C:0000H         SYMBOL        _ICE_DUMMY_
  D:0080H         PUBLIC        P0
  D:0090H         PUBLIC        P1
  D:00A0H         PUBLIC        P2
  D:00B0H         PUBLIC        P3
  D:00C0H         PUBLIC        P4
  D:00C8H         PUBLIC        P5
  D:00E8H         PUBLIC        P6
  D:00F8H         PUBLIC        P7
  D:00A8H         PUBLIC        IE
  X:02EAH         PUBLIC        jichu
  D:00B8H         PUBLIC        IP
BL51 BANKED LINKER/LOCATER V6.22                                                      06/24/2016  11:44:38  PAGE 65


  C:DDD3H         PUBLIC        _duoji
  C:D3F8H         PUBLIC        ReadRam
  D:00D8H         PUBLIC        CCON
  D:0098H         PUBLIC        SCON
  D:0088H         PUBLIC        TCON
  C:3CD8H         PUBLIC        _cyc
  D:00F0H         PUBLIC        B
  C:3871H         PUBLIC        main1
  C:2A7EH         PUBLIC        _location
  D:00D0H         PUBLIC        PSW
  C:D3E4H         SYMBOL        L?0203
  -------         PROC          L?0202
  -------         ENDPROC       L?0202
  C:D3E4H         SYMBOL        L?0203
  -------         PROC          READRAM
  -------         DO            
  D:0007H         SYMBOL        i
  -------         ENDDO         
  C:D3F8H         LINE#         34
  C:D3F8H         LINE#         35
  C:D3F8H         LINE#         37
  C:D40FH         LINE#         39
  C:D41BH         LINE#         40
  C:D429H         LINE#         41
  C:D435H         LINE#         42
  C:D43CH         LINE#         74
  C:D43CH         LINE#         75
  -------         ENDPROC       READRAM
  -------         PROC          _DUOJI
  D:0007H         SYMBOL        num
  D:0005H         SYMBOL        pos
  C:DDD3H         LINE#         82
  C:DDD3H         LINE#         83
  C:DDD3H         LINE#         84
  C:DDF8H         LINE#         85
  -------         ENDPROC       _DUOJI
  -------         PROC          MAIN1
  -------         DO            
  X:01E3H         SYMBOL        keycode
  X:01E5H         SYMBOL        SrcName
  X:01F1H         SYMBOL        ByteCount
  X:01F5H         SYMBOL        i
  D:0006H         SYMBOL        j
  B:0020H.0       SYMBOL        OutFlag
  -------         ENDDO         
  C:3871H         LINE#         93
  C:3871H         LINE#         94
  C:3871H         LINE#         95
  C:3878H         LINE#         100
  C:387AH         LINE#         102
  C:387AH         LINE#         103
  C:387AH         LINE#         110
  C:3885H         LINE#         111
  C:3885H         LINE#         112
  C:388DH         LINE#         113
  C:38CAH         LINE#         114
  C:38CAH         LINE#         115
BL51 BANKED LINKER/LOCATER V6.22                                                      06/24/2016  11:44:38  PAGE 66


  C:38CAH         LINE#         116
  C:38CAH         LINE#         117
  C:38CAH         LINE#         118
  C:38D6H         LINE#         119
  C:38DBH         LINE#         120
  C:38DBH         LINE#         121
  C:38EDH         LINE#         122
  C:38F9H         LINE#         123
  C:391FH         LINE#         124
  C:392DH         LINE#         125
  C:393AH         LINE#         126
  C:3944H         LINE#         127
  C:3964H         LINE#         128
  C:3964H         LINE#         129
  C:3972H         LINE#         130
  C:3974H         LINE#         131
  C:3984H         LINE#         134
  C:3987H         LINE#         135
  C:3987H         LINE#         136
  C:398FH         LINE#         137
  C:3994H         LINE#         138
  C:399EH         LINE#         139
  C:39A1H         LINE#         140
  C:39A1H         LINE#         141
  C:39B0H         LINE#         142
  C:39B0H         LINE#         143
  C:39B6H         LINE#         144
  C:39CAH         LINE#         145
  C:39DAH         LINE#         146
  C:39E2H         LINE#         147
  C:39F1H         LINE#         148
  C:39FFH         LINE#         149
  C:3A15H         LINE#         150
  C:3A1AH         LINE#         151
  C:3A1AH         LINE#         152
  C:3A1DH         LINE#         153
  C:3A1DH         LINE#         196
  C:3A1DH         LINE#         197
  C:3A1DH         LINE#         198
  C:3A32H         LINE#         199
  C:3A4FH         LINE#         200
  C:3A5DH         LINE#         201
  C:3A6AH         LINE#         202
  C:3A74H         LINE#         203
  C:3A79H         LINE#         204
  C:3A7EH         LINE#         205
  C:3A83H         LINE#         206
  C:3A88H         LINE#         207
  C:3A8DH         LINE#         208
  C:3A95H         LINE#         209
  C:3A9EH         LINE#         210
  C:3AB8H         LINE#         211
  C:3AB8H         LINE#         212
  C:3AC6H         LINE#         213
  C:3AC6H         LINE#         214
  C:3ACBH         LINE#         215
  C:3AD0H         LINE#         216
BL51 BANKED LINKER/LOCATER V6.22                                                      06/24/2016  11:44:38  PAGE 67


  C:3AD5H         LINE#         217
  C:3ADAH         LINE#         218
  C:3ADFH         LINE#         219
  C:3AE4H         LINE#         220
  C:3AE9H         LINE#         221
  C:3AEEH         LINE#         222
  C:3AEEH         LINE#         223
  C:3AF1H         LINE#         224
  C:3AF1H         LINE#         242
  C:3AFCH         LINE#         243
  C:3AFCH         LINE#         244
  C:3AFCH         LINE#         245
  C:3AFCH         LINE#         246
  C:3B08H         LINE#         247
  C:3B0DH         LINE#         248
  C:3B12H         LINE#         249
  C:3B38H         LINE#         250
  C:3B41H         LINE#         252
  C:3B5CH         LINE#         253
  C:3B6AH         LINE#         254
  C:3B77H         LINE#         255
  C:3B81H         LINE#         257
  C:3B83H         LINE#         258
  C:3B83H         LINE#         259
  C:3B86H         LINE#         260
  C:3B86H         LINE#         261
  C:3BA4H         LINE#         262
  C:3BA4H         LINE#         263
  C:3BC9H         LINE#         264
  C:3BD2H         LINE#         265
  C:3BD7H         LINE#         266
  C:3BE7H         LINE#         267
  C:3C0DH         LINE#         268
  C:3C16H         LINE#         270
  C:3C1BH         LINE#         271
  C:3C1DH         LINE#         272
  C:3C1FH         LINE#         275
  C:3C1FH         LINE#         276
  C:3C24H         LINE#         277
  C:3C27H         LINE#         278
  C:3C27H         LINE#         279
  C:3C2CH         LINE#         280
  C:3C2CH         LINE#         281
  C:3C58H         LINE#         282
  C:3C64H         LINE#         283
  C:3C6CH         LINE#         284
  C:3C76H         LINE#         285
  C:3C78H         LINE#         286
  C:3C78H         LINE#         287
  C:3C80H         LINE#         288
  C:3C88H         LINE#         289
  C:3C90H         LINE#         290
  C:3C9FH         LINE#         291
  C:3CADH         LINE#         292
  C:3CC3H         LINE#         293
  C:3CC8H         LINE#         294
  C:3CCDH         LINE#         295
BL51 BANKED LINKER/LOCATER V6.22                                                      06/24/2016  11:44:38  PAGE 68


  C:3CCFH         LINE#         296
  C:3CCFH         LINE#         335
  C:3CCFH         LINE#         336
  C:3CCFH         LINE#         337
  C:3CD1H         LINE#         338
  C:3CD1H         LINE#         339
  C:3CD1H         LINE#         340
  C:3CD1H         LINE#         341
  C:3CD7H         LINE#         342
  C:3CD7H         LINE#         344
  -------         ENDPROC       MAIN1
  -------         PROC          _CYC
  X:0204H         SYMBOL        Locate1
  X:0207H         SYMBOL        Locate2
  X:020AH         SYMBOL        time
  -------         DO            
  X:020BH         SYMBOL        ThisLen
  X:020DH         SYMBOL        ByteCount
  X:0211H         SYMBOL        i
  X:0212H         SYMBOL        j
  X:0213H         SYMBOL        k
  X:0214H         SYMBOL        m
  X:0215H         SYMBOL        temp
  -------         ENDDO         
  C:3CD8H         LINE#         355
  C:3CE3H         LINE#         356
  C:3CE3H         LINE#         362
  C:3CEFH         LINE#         363
  C:3CEFH         LINE#         364
  C:3D03H         LINE#         366
  C:3D03H         LINE#         371
  C:3D19H         LINE#         374
  C:3D39H         LINE#         379
  C:3D3FH         LINE#         380
  C:3D3FH         LINE#         381
  C:3D45H         LINE#         382
  C:3D4CH         LINE#         383
  C:3D4CH         LINE#         384
  C:3D54H         LINE#         385
  C:3D54H         LINE#         386
  C:3D5BH         LINE#         387
  C:3D77H         LINE#         388
  C:3D79H         LINE#         390
  C:3D79H         LINE#         391
  C:3D80H         LINE#         392
  C:3D80H         LINE#         393
  C:3D87H         LINE#         394
  C:3D8FH         LINE#         395
  C:3D91H         LINE#         397
  C:3D91H         LINE#         398
  C:3D98H         LINE#         399
  C:3DB5H         LINE#         400
  C:3DB5H         LINE#         401
  C:3DB5H         LINE#         402
  C:3DCEH         LINE#         403
  C:3DCEH         LINE#         404
  C:3DFBH         LINE#         405
BL51 BANKED LINKER/LOCATER V6.22                                                      06/24/2016  11:44:38  PAGE 69


  C:3DFBH         LINE#         406
  C:3E17H         LINE#         407
  C:3E4FH         LINE#         408
  C:3E68H         LINE#         410
  C:3E70H         LINE#         411
  C:3E7EH         LINE#         412
  C:3E8CH         LINE#         414
  C:3E97H         LINE#         415
  C:3E97H         LINE#         416
  C:3E97H         LINE#         417
  C:3EA2H         LINE#         418
  C:3EA2H         LINE#         419
  C:3EA7H         LINE#         420
  C:3EACH         LINE#         421
  C:3EAEH         LINE#         422
  C:3EAEH         LINE#         423
  C:3EAEH         LINE#         424
  C:3EB0H         LINE#         425
  C:3EB0H         LINE#         426
  C:3EB6H         LINE#         427
  C:3EB6H         LINE#         428
  C:3EB8H         LINE#         429
  C:3EB8H         LINE#         430
  C:3EBDH         LINE#         431
  C:3EC2H         LINE#         432
  C:3EC7H         LINE#         434
  C:3ED2H         LINE#         435
  C:3ED2H         LINE#         436
  C:3ED5H         LINE#         437
  C:3ED7H         LINE#         438
  C:3ED9H         LINE#         440
  C:3ED9H         LINE#         441
  C:3EDCH         LINE#         442
  C:3EE1H         LINE#         443
  C:3EE1H         LINE#         445
  C:3EEDH         LINE#         446
  C:3EF3H         LINE#         448
  C:3F05H         LINE#         449
  C:3F0BH         LINE#         451
  C:3F1AH         LINE#         452
  C:3F20H         LINE#         454
  C:3F25H         LINE#         455
  C:3F25H         LINE#         456
  C:3F25H         LINE#         458
  C:3F98H         LINE#         459
  C:3F98H         LINE#         460
  C:3FA1H         LINE#         461
  C:3FA9H         LINE#         462
  C:3FB0H         LINE#         463
  C:3FB7H         LINE#         464
  C:3FBEH         LINE#         465
  C:3FC5H         LINE#         466
  C:3FCCH         LINE#         467
  C:3FD3H         LINE#         468
  C:3FDAH         LINE#         469
  C:3FE1H         LINE#         470
  C:3FE6H         LINE#         471
BL51 BANKED LINKER/LOCATER V6.22                                                      06/24/2016  11:44:38  PAGE 70


  C:3FEBH         LINE#         472
  C:3FF0H         LINE#         473
  C:3FF5H         LINE#         474
  C:3FFAH         LINE#         475
  C:3FFFH         LINE#         476
  C:4004H         LINE#         477
  C:4009H         LINE#         478
  C:4011H         LINE#         479
  C:4019H         LINE#         480
  C:401EH         LINE#         481
  C:401EH         LINE#         482
  C:401EH         LINE#         483
  C:401EH         LINE#         484
  C:401EH         LINE#         485
  C:401EH         LINE#         486
  C:401EH         LINE#         487
  C:401EH         LINE#         488
  C:401EH         LINE#         489
  C:401EH         LINE#         490
  C:402BH         LINE#         491
  C:402BH         LINE#         492
  C:402BH         LINE#         494
  C:403DH         LINE#         495
  C:403DH         LINE#         496
  C:4042H         LINE#         497
  C:404AH         LINE#         502
  C:4053H         LINE#         503
  C:4053H         LINE#         504
  C:4062H         LINE#         505
  C:4062H         LINE#         506
  C:4092H         LINE#         507
  C:409AH         LINE#         508
  C:409AH         LINE#         510
  C:40C3H         LINE#         516
  C:40E8H         LINE#         517
  C:40EEH         LINE#         518
  C:40F1H         LINE#         520
  -------         ENDPROC       _CYC
  -------         PROC          _LOCATION
  X:01E3H         SYMBOL        ThisLen
  -------         DO            
  X:01E5H         SYMBOL        i
  X:01E6H         SYMBOL        SrcName
  X:01F2H         SYMBOL        FileSize
  X:01F6H         SYMBOL        LoopLocate1
  X:01FAH         SYMBOL        LoopLocate2
  X:01FEH         SYMBOL        ByteCount
  X:0202H         SYMBOL        temp
  -------         ENDDO         
  C:2A7EH         LINE#         527
  C:2A86H         LINE#         528
  C:2A86H         LINE#         535
  C:2AACH         LINE#         536
  C:2ABFH         LINE#         539
  C:2ACAH         LINE#         540
  C:2AE7H         LINE#         544
  C:2AF1H         LINE#         547
BL51 BANKED LINKER/LOCATER V6.22                                                      06/24/2016  11:44:38  PAGE 71


  C:2AF6H         LINE#         549
  C:2AF6H         LINE#         554
  C:2B0CH         LINE#         557
  C:2B2CH         LINE#         562
  C:2B2FH         LINE#         563
  C:2B2FH         LINE#         564
  C:2B35H         LINE#         565
  C:2B47H         LINE#         566
  C:2B47H         LINE#         567
  C:2B4FH         LINE#         568
  C:2B4FH         LINE#         569
  C:2B54H         LINE#         570
  C:2B5BH         LINE#         571
  C:2B5DH         LINE#         573
  C:2B5DH         LINE#         574
  C:2B64H         LINE#         575
  C:2B64H         LINE#         576
  C:2B6AH         LINE#         577
  C:2B75H         LINE#         578
  C:2B77H         LINE#         580
  C:2B77H         LINE#         581
  C:2B7DH         LINE#         582
  C:2B9DH         LINE#         583
  C:2B9DH         LINE#         584
  C:2B9DH         LINE#         585
  C:2BB6H         LINE#         586
  C:2BB6H         LINE#         587
  C:2BE3H         LINE#         588
  C:2BE3H         LINE#         589
  C:2BFFH         LINE#         590
  C:2C37H         LINE#         591
  C:2C50H         LINE#         593
  C:2C58H         LINE#         594
  C:2C5FH         LINE#         595
  C:2C6DH         LINE#         597
  C:2C78H         LINE#         598
  C:2C78H         LINE#         599
  C:2C78H         LINE#         600
  C:2C83H         LINE#         601
  C:2C83H         LINE#         602
  C:2C88H         LINE#         603
  C:2C8DH         LINE#         604
  C:2C8FH         LINE#         605
  C:2C8FH         LINE#         606
  C:2C8FH         LINE#         607
  C:2C91H         LINE#         608
  C:2C91H         LINE#         609
  C:2C97H         LINE#         610
  C:2C97H         LINE#         611
  C:2C99H         LINE#         612
  C:2C99H         LINE#         613
  C:2C9EH         LINE#         614
  C:2CA3H         LINE#         615
  C:2CA8H         LINE#         617
  C:2CB3H         LINE#         618
  C:2CB3H         LINE#         619
  C:2CB6H         LINE#         620
BL51 BANKED LINKER/LOCATER V6.22                                                      06/24/2016  11:44:38  PAGE 72


  C:2CB8H         LINE#         621
  C:2CBAH         LINE#         623
  C:2CBAH         LINE#         624
  C:2CBDH         LINE#         625
  C:2CC2H         LINE#         626
  C:2CC2H         LINE#         628
  C:2CCEH         LINE#         629
  C:2CD4H         LINE#         631
  C:2CE6H         LINE#         632
  C:2CECH         LINE#         634
  C:2CFBH         LINE#         635
  C:2D01H         LINE#         637
  C:2D06H         LINE#         638
  C:2D06H         LINE#         639
  C:2D06H         LINE#         641
  C:2D79H         LINE#         642
  C:2D79H         LINE#         643
  C:2D82H         LINE#         644
  C:2D8AH         LINE#         645
  C:2D91H         LINE#         646
  C:2D98H         LINE#         647
  C:2D9FH         LINE#         648
  C:2DA6H         LINE#         649
  C:2DADH         LINE#         650
  C:2DB4H         LINE#         651
  C:2DBBH         LINE#         652
  C:2DC2H         LINE#         653
  C:2DC7H         LINE#         654
  C:2DCCH         LINE#         655
  C:2DD1H         LINE#         656
  C:2DD6H         LINE#         657
  C:2DDBH         LINE#         658
  C:2DE0H         LINE#         659
  C:2DE5H         LINE#         660
  C:2DEAH         LINE#         661
  C:2DF2H         LINE#         662
  C:2DFAH         LINE#         663
  C:2DFFH         LINE#         664
  C:2DFFH         LINE#         665
  C:2DFFH         LINE#         666
  C:2DFFH         LINE#         667
  C:2DFFH         LINE#         668
  C:2DFFH         LINE#         669
  C:2DFFH         LINE#         670
  C:2DFFH         LINE#         671
  C:2DFFH         LINE#         672
  C:2DFFH         LINE#         673
  C:2E0CH         LINE#         674
  C:2E0CH         LINE#         675
  C:2E0CH         LINE#         677
  C:2E1EH         LINE#         678
  C:2E1EH         LINE#         679
  C:2E23H         LINE#         680
  C:2E2BH         LINE#         684
  C:2E35H         LINE#         685
  C:2E35H         LINE#         686
  C:2E3BH         LINE#         687
BL51 BANKED LINKER/LOCATER V6.22                                                      06/24/2016  11:44:38  PAGE 73


  C:2E3BH         LINE#         688
  C:2E4FH         LINE#         689
  C:2E55H         LINE#         690
  C:2E55H         LINE#         691
  C:2E57H         LINE#         693
  C:2E57H         LINE#         694
  C:2E65H         LINE#         695
  C:2E65H         LINE#         696
  C:2E6CH         LINE#         697
  C:2E6CH         LINE#         698
  C:2E80H         LINE#         699
  C:2EA0H         LINE#         700
  C:2EA5H         LINE#         701
  C:2EA5H         LINE#         702
  C:2EA5H         LINE#         703
  C:2EA5H         LINE#         706
  C:2EAEH         LINE#         707
  C:2EAEH         LINE#         708
  C:2EBDH         LINE#         709
  C:2EBDH         LINE#         710
  C:2EEDH         LINE#         711
  C:2EF5H         LINE#         712
  C:2EF5H         LINE#         714
  C:2F20H         LINE#         720
  C:2F45H         LINE#         723
  C:2F51H         LINE#         726
  -------         ENDPROC       _LOCATION
  -------         ENDMOD        TUXINGHUA

  -------         MODULE        ADC
  C:0000H         SYMBOL        _ICE_DUMMY_
  D:0080H         PUBLIC        P0
  D:0090H         PUBLIC        P1
  D:00A0H         PUBLIC        P2
  X:031AH         PUBLIC        balance_sample_num_buf
  D:00B0H         PUBLIC        P3
  D:00C0H         PUBLIC        P4
  D:00C8H         PUBLIC        P5
  D:00E8H         PUBLIC        P6
  X:031BH         PUBLIC        value_present
  D:00F8H         PUBLIC        P7
  X:0321H         PUBLIC        flag_adjust
  B:00A8H.5       PUBLIC        EADC
  D:00A8H         PUBLIC        IE
  D:00BDH         PUBLIC        ADC_RES
  C:862AH         PUBLIC        adc_adjust
  D:00B8H         PUBLIC        IP
  D:0097H         PUBLIC        CLK_DIV
  D:00D8H         PUBLIC        CCON
  C:E0C1H         PUBLIC        get_present_value
  D:00BCH         PUBLIC        ADC_CONTR
  D:0098H         PUBLIC        SCON
  D:0088H         PUBLIC        TCON
  C:E265H         PUBLIC        start_adc
  X:0322H         PUBLIC        flag_jump
  D:00F0H         PUBLIC        B
  X:0323H         PUBLIC        channel_present
BL51 BANKED LINKER/LOCATER V6.22                                                      06/24/2016  11:44:38  PAGE 74


  X:0324H         PUBLIC        flag_balance
  X:0325H         PUBLIC        balance_value
  B:00A8H.0       PUBLIC        EX0
  C:B29CH         PUBLIC        adc_int
  B:0088H.6       PUBLIC        TR1
  D:009DH         PUBLIC        P1ASF
  D:00BEH         PUBLIC        ADC_RESL
  X:032BH         PUBLIC        balance_sample_num
  X:032CH         PUBLIC        flag_adc_complete
  X:032DH         PUBLIC        channel_total
  C:DD05H         PUBLIC        get_balance_value
  C:E216H         PUBLIC        initial_adc
  D:00D0H         PUBLIC        PSW
  -------         PROC          INITIAL_ADC
  C:E216H         LINE#         32
  C:E216H         LINE#         33
  C:E216H         LINE#         34
  C:E219H         LINE#         35
  C:E21CH         LINE#         36
  C:E21FH         LINE#         37
  C:E221H         LINE#         38
  C:E224H         LINE#         39
  C:E226H         LINE#         40
  -------         ENDPROC       INITIAL_ADC
  -------         PROC          START_ADC
  C:E265H         LINE#         48
  C:E265H         LINE#         49
  C:E265H         LINE#         50
  C:E26DH         LINE#         51
  C:E270H         LINE#         52
  -------         ENDPROC       START_ADC
  -------         PROC          GET_BALANCE_VALUE
  -------         DO            
  D:0005H         SYMBOL        i
  -------         ENDDO         
  C:DD05H         LINE#         60
  C:DD05H         LINE#         61
  C:DD05H         LINE#         63
  C:DD21H         LINE#         64
  C:DD21H         LINE#         65
  C:DD24H         LINE#         66
  C:DD2AH         LINE#         67
  C:DD30H         LINE#         68
  C:DD33H         LINE#         69
  C:DD39H         LINE#         70
  -------         ENDPROC       GET_BALANCE_VALUE
  -------         PROC          GET_PRESENT_VALUE
  -------         DO            
  D:0007H         SYMBOL        i
  -------         ENDDO         
  C:E0C1H         LINE#         77
  C:E0C1H         LINE#         78
  C:E0C1H         LINE#         80
  C:E0CDH         LINE#         81
  C:E0CDH         LINE#         82
  C:E0D0H         LINE#         83
  C:E0D6H         LINE#         84
BL51 BANKED LINKER/LOCATER V6.22                                                      06/24/2016  11:44:38  PAGE 75


  C:E0DCH         LINE#         85
  C:E0DFH         LINE#         86
  -------         ENDPROC       GET_PRESENT_VALUE
  -------         PROC          ADC_INT
  -------         DO            
  X:01D9H         SYMBOL        buf
  X:01DBH         SYMBOL        i
  -------         ENDDO         
  C:B29CH         LINE#         94
  C:B2B3H         LINE#         96
  C:B2BAH         LINE#         99
  C:B2BDH         LINE#         101
  C:B2C6H         LINE#         102
  C:B2C6H         LINE#         103
  C:B2CFH         LINE#         104
  C:B2D8H         LINE#         105
  C:B2E5H         LINE#         107
  C:B2FFH         LINE#         108
  C:B305H         LINE#         109
  C:B311H         LINE#         110
  C:B311H         LINE#         111
  C:B313H         LINE#         112
  C:B319H         LINE#         113
  C:B319H         LINE#         114
  C:B322H         LINE#         115
  C:B322H         LINE#         116
  C:B334H         LINE#         117
  C:B364H         LINE#         118
  C:B36AH         LINE#         119
  C:B36AH         LINE#         120
  C:B36CH         LINE#         122
  C:B36CH         LINE#         123
  C:B376H         LINE#         124
  C:B37FH         LINE#         125
  C:B38CH         LINE#         126
  C:B3A5H         LINE#         127
  C:B3ABH         LINE#         128
  C:B3B7H         LINE#         129
  C:B3B9H         LINE#         130
  C:B3B9H         LINE#         131
  C:B3BEH         LINE#         132
  -------         ENDPROC       ADC_INT
  -------         PROC          ADC_ADJUST
  -------         DO            
  X:0248H         SYMBOL        i
  -------         ENDDO         
  C:862AH         LINE#         140
  C:862AH         LINE#         141
  C:862AH         LINE#         143
  C:862FH         LINE#         144
  C:8632H         LINE#         147
  C:8668H         LINE#         148
  C:8668H         LINE#         149
  C:866AH         LINE#         150
  C:866CH         LINE#         152
  C:8671H         LINE#         153
  C:8678H         LINE#         154
BL51 BANKED LINKER/LOCATER V6.22                                                      06/24/2016  11:44:38  PAGE 76


  C:867BH         LINE#         155
  C:8680H         LINE#         156
  C:8687H         LINE#         157
  C:868AH         LINE#         158
  C:868FH         LINE#         159
  C:8695H         LINE#         160
  C:8699H         LINE#         161
  C:869CH         LINE#         163
  C:86ABH         LINE#         164
  C:86ABH         LINE#         165
  C:86BBH         LINE#         166
  C:86C3H         LINE#         167
  C:86C5H         LINE#         168
  C:86C7H         LINE#         169
  C:86C7H         LINE#         172
  C:86FDH         LINE#         173
  C:86FDH         LINE#         174
  C:86FFH         LINE#         175
  C:8701H         LINE#         177
  C:8706H         LINE#         178
  C:870DH         LINE#         179
  C:8710H         LINE#         180
  C:8715H         LINE#         181
  C:871CH         LINE#         182
  C:871FH         LINE#         183
  C:8724H         LINE#         184
  C:872AH         LINE#         185
  C:872EH         LINE#         186
  C:8731H         LINE#         188
  C:8740H         LINE#         189
  C:8740H         LINE#         190
  C:8750H         LINE#         191
  C:8758H         LINE#         192
  C:875AH         LINE#         193
  C:875CH         LINE#         194
  C:875CH         LINE#         197
  C:8792H         LINE#         198
  C:8792H         LINE#         199
  C:8794H         LINE#         200
  C:8796H         LINE#         202
  C:879BH         LINE#         203
  C:879EH         LINE#         204
  C:87A3H         LINE#         205
  C:87A9H         LINE#         206
  C:87ADH         LINE#         207
  C:87B0H         LINE#         209
  C:87BFH         LINE#         210
  C:87BFH         LINE#         211
  C:87CFH         LINE#         212
  C:87D7H         LINE#         213
  C:87D9H         LINE#         214
  C:87DBH         LINE#         215
  C:87DBH         LINE#         218
  C:8811H         LINE#         219
  C:8811H         LINE#         220
  C:8813H         LINE#         221
  C:8815H         LINE#         223
BL51 BANKED LINKER/LOCATER V6.22                                                      06/24/2016  11:44:38  PAGE 77


  C:881AH         LINE#         224
  C:881DH         LINE#         225
  C:8822H         LINE#         226
  C:8828H         LINE#         227
  C:882CH         LINE#         228
  C:882FH         LINE#         230
  C:883EH         LINE#         231
  C:883EH         LINE#         232
  C:884EH         LINE#         233
  C:8856H         LINE#         234
  C:8858H         LINE#         235
  C:885AH         LINE#         236
  C:885AH         LINE#         238
  C:8860H         LINE#         239
  -------         ENDPROC       ADC_ADJUST
  -------         ENDMOD        ADC

  -------         MODULE        BUZZ
  C:0000H         SYMBOL        _ICE_DUMMY_
  D:0080H         PUBLIC        P0
  D:0090H         PUBLIC        P1
  D:00A0H         PUBLIC        P2
  D:00B0H         PUBLIC        P3
  D:00C0H         PUBLIC        P4
  D:00C8H         PUBLIC        P5
  D:00E8H         PUBLIC        P6
  D:00F8H         PUBLIC        P7
  D:00A8H         PUBLIC        IE
  D:00B8H         PUBLIC        IP
  C:DF02H         PUBLIC        _fm50ms
  D:00D8H         PUBLIC        CCON
  D:0098H         PUBLIC        SCON
  D:0088H         PUBLIC        TCON
  D:00F0H         PUBLIC        B
  C:DED8H         PUBLIC        _fm100ms
  C:DEAEH         PUBLIC        _fm200ms
  C:DE84H         PUBLIC        _fm300ms
  B:00C0H.5       PUBLIC        fengming
  C:DF2CH         PUBLIC        _fm1ms
  D:00D0H         PUBLIC        PSW
  -------         PROC          _FM300MS
  X:0336H         SYMBOL        i
  -------         DO            
  X:0337H         SYMBOL        j
  -------         ENDDO         
  C:DE84H         LINE#         8
  C:DE89H         LINE#         9
  C:DE89H         LINE#         10
  C:DE97H         LINE#         11
  C:DE97H         LINE#         12
  C:DE99H         LINE#         13
  C:DE9EH         LINE#         14
  C:DEA0H         LINE#         15
  C:DEA5H         LINE#         16
  C:DEADH         LINE#         17
  -------         ENDPROC       _FM300MS
  -------         PROC          _FM200MS
BL51 BANKED LINKER/LOCATER V6.22                                                      06/24/2016  11:44:38  PAGE 78


  X:01F6H         SYMBOL        i
  -------         DO            
  X:01F7H         SYMBOL        j
  -------         ENDDO         
  C:DEAEH         LINE#         18
  C:DEB3H         LINE#         19
  C:DEB3H         LINE#         20
  C:DEC1H         LINE#         21
  C:DEC1H         LINE#         22
  C:DEC3H         LINE#         23
  C:DEC8H         LINE#         24
  C:DECAH         LINE#         25
  C:DECFH         LINE#         26
  C:DED7H         LINE#         27
  -------         ENDPROC       _FM200MS
  -------         PROC          _FM100MS
  X:01F6H         SYMBOL        i
  -------         DO            
  X:01F7H         SYMBOL        j
  -------         ENDDO         
  C:DED8H         LINE#         29
  C:DEDDH         LINE#         30
  C:DEDDH         LINE#         31
  C:DEEBH         LINE#         32
  C:DEEBH         LINE#         33
  C:DEEDH         LINE#         34
  C:DEF2H         LINE#         35
  C:DEF4H         LINE#         36
  C:DEF9H         LINE#         37
  C:DF01H         LINE#         38
  -------         ENDPROC       _FM100MS
  -------         PROC          _FM50MS
  X:0338H         SYMBOL        i
  -------         DO            
  X:0339H         SYMBOL        j
  -------         ENDDO         
  C:DF02H         LINE#         39
  C:DF07H         LINE#         40
  C:DF07H         LINE#         41
  C:DF15H         LINE#         42
  C:DF15H         LINE#         43
  C:DF17H         LINE#         44
  C:DF1CH         LINE#         45
  C:DF1EH         LINE#         46
  C:DF23H         LINE#         47
  C:DF2BH         LINE#         48
  -------         ENDPROC       _FM50MS
  -------         PROC          _FM1MS
  X:033AH         SYMBOL        i
  -------         DO            
  X:033BH         SYMBOL        j
  -------         ENDDO         
  C:DF2CH         LINE#         50
  C:DF31H         LINE#         51
  C:DF31H         LINE#         53
  C:DF3FH         LINE#         54
  C:DF3FH         LINE#         55
BL51 BANKED LINKER/LOCATER V6.22                                                      06/24/2016  11:44:38  PAGE 79


  C:DF41H         LINE#         56
  C:DF46H         LINE#         57
  C:DF48H         LINE#         58
  C:DF4DH         LINE#         59
  C:DF55H         LINE#         60
  -------         ENDPROC       _FM1MS
  -------         ENDMOD        BUZZ

  -------         MODULE        BASAL
  C:0000H         SYMBOL        _ICE_DUMMY_
  C:B3D3H         PUBLIC        zuogouqiu
  D:0080H         PUBLIC        P0
  D:0090H         PUBLIC        P1
  D:00A0H         PUBLIC        P2
  D:00B0H         PUBLIC        P3
  D:00C0H         PUBLIC        P4
  C:75A2H         PUBLIC        _p_to_p
  D:00C8H         PUBLIC        P5
  B:00A8H.7       PUBLIC        EA
  D:00E8H         PUBLIC        P6
  D:00F8H         PUBLIC        P7
  C:257BH         PUBLIC        daoli
  C:7312H         PUBLIC        qianpq
  D:00A8H         PUBLIC        IE
  C:B987H         PUBLIC        _initial_position_slowOne
  D:00B8H         PUBLIC        IP
  C:5B7DH         PUBLIC        _l_pyi
  C:C404H         PUBLIC        array
  C:D386H         PUBLIC        fuwei
  C:0F44H         PUBLIC        wudao
  D:00D8H         PUBLIC        CCON
  C:BA8DH         PUBLIC        dt_l
  C:5ECCH         PUBLIC        _r_pyi
  X:0276H         PUBLIC        total
  C:BB93H         PUBLIC        dt_r
  D:0098H         PUBLIC        SCON
  D:0089H         PUBLIC        TMOD
  D:0088H         PUBLIC        TCON
  C:48FCH         PUBLIC        hgf
  C:E130H         PUBLIC        T0_Interrupt
  X:0277H         PUBLIC        part
  C:E161H         PUBLIC        t0_init
  C:D88AH         PUBLIC        _low_level_500u
  C:8A96H         PUBLIC        pch
  C:50C2H         PUBLIC        qgf
  C:4509H         PUBLIC        _fwc
  D:008EH         PUBLIC        AUXR
  D:00F0H         PUBLIC        B
  C:A416H         PUBLIC        qianpaxia
  X:0278H         PUBLIC        position_change
  X:02A8H         PUBLIC        arr
  C:D1E6H         PUBLIC        _max
  B:00A8H.1       PUBLIC        ET0
  C:C7D8H         PUBLIC        taijiaozi
  C:AAA0H         PUBLIC        hpq
  C:CAB9H         PUBLIC        initial_position
  X:02B0H         PUBLIC        position_initial
BL51 BANKED LINKER/LOCATER V6.22                                                      06/24/2016  11:44:38  PAGE 80


  B:0088H.5       PUBLIC        TF0
  C:DA8DH         PUBLIC        ForwardDelay
  D:008CH         PUBLIC        TH0
  C:C892H         PUBLIC        jingli_l
  C:686CH         PUBLIC        _turn_right
  D:008AH         PUBLIC        TL0
  C:C94BH         PUBLIC        jingli_r
  C:E1BCH         PUBLIC        _low_level_t0
  C:AEE5H         PUBLIC        _yangwoqizuo
  B:0088H.4       PUBLIC        TR0
  C:9CE0H         PUBLIC        hp
  C:6B2EH         PUBLIC        _turn_left
  C:C1CAH         PUBLIC        _relative
  C:D90AH         PUBLIC        _stand_up
  C:D98EH         PUBLIC        BackDelay
  X:02C8H         PUBLIC        t0bit
  X:02C9H         PUBLIC        change
  C:D8C8H         PUBLIC        _sit_down
  X:02CAH         PUBLIC        pick_up
  C:6DEAH         PUBLIC        _goal_l
  C:D9CFH         PUBLIC        initial_position_slow
  C:7080H         PUBLIC        _goal_r
  X:02D2H         PUBLIC        position
  D:00D0H         PUBLIC        PSW
  C:B507H         PUBLIC        yougouqiu
  C:D886H         SYMBOL        L?0335
  -------         PROC          L?0334
  -------         ENDPROC       L?0334
  C:D886H         SYMBOL        L?0335
  -------         PROC          _LOW_LEVEL_500U
  X:0246H         SYMBOL        time
  -------         DO            
  X:0248H         SYMBOL        i
  -------         ENDDO         
  C:D88AH         LINE#         60
  C:D892H         LINE#         61
  C:D892H         LINE#         63
  C:D8B2H         LINE#         64
  C:D8C7H         LINE#         65
  -------         ENDPROC       _LOW_LEVEL_500U
  -------         PROC          T0_INIT
  C:E161H         LINE#         72
  C:E161H         LINE#         73
  C:E161H         LINE#         74
  C:E164H         LINE#         75
  C:E167H         LINE#         76
  C:E16AH         LINE#         77
  C:E16DH         LINE#         78
  C:E16FH         LINE#         85
  C:E171H         LINE#         86
  C:E173H         LINE#         87
  C:E178H         LINE#         88
  -------         ENDPROC       T0_INIT
  -------         PROC          _LOW_LEVEL_T0
  D:0004H         SYMBOL        THTL
  C:E1BCH         LINE#         95
  C:E1C0H         LINE#         96
BL51 BANKED LINKER/LOCATER V6.22                                                      06/24/2016  11:44:38  PAGE 81


  C:E1C0H         LINE#         97
  C:E1C3H         LINE#         98
  C:E1C7H         LINE#         99
  C:E1CCH         LINE#         100
  C:E1CEH         LINE#         101
  -------         ENDPROC       _LOW_LEVEL_T0
  -------         PROC          T0_INTERRUPT
  C:E130H         LINE#         108
  C:E136H         LINE#         110
  C:E139H         LINE#         111
  C:E13CH         LINE#         112
  C:E142H         LINE#         113
  -------         ENDPROC       T0_INTERRUPT
  -------         PROC          FORWARDDELAY
  -------         DO            
  X:021EH         SYMBOL        i
  -------         ENDDO         
  C:DA8DH         LINE#         120
  C:DA8DH         LINE#         121
  C:DA8DH         LINE#         123
  C:DAB6H         LINE#         124
  C:DAB6H         LINE#         125
  C:DABBH         LINE#         126
  C:DAC0H         LINE#         127
  C:DAC8H         LINE#         128
  -------         ENDPROC       FORWARDDELAY
  -------         PROC          BACKDELAY
  -------         DO            
  X:021EH         SYMBOL        i
  -------         ENDDO         
  C:D98EH         LINE#         135
  C:D98EH         LINE#         136
  C:D98EH         LINE#         138
  C:D9BCH         LINE#         139
  C:D9BCH         LINE#         140
  C:D9C1H         LINE#         141
  C:D9C6H         LINE#         142
  C:D9CEH         LINE#         143
  -------         ENDPROC       BACKDELAY
  -------         PROC          ARRAY
  -------         DO            
  D:0007H         SYMBOL        i
  D:0006H         SYMBOL        j
  D:0005H         SYMBOL        x
  -------         ENDDO         
  C:C404H         LINE#         150
  C:C404H         LINE#         151
  C:C404H         LINE#         152
  C:C407H         LINE#         153
  C:C40DH         LINE#         154
  C:C410H         LINE#         155
  C:C414H         LINE#         156
  C:C418H         LINE#         157
  C:C41CH         LINE#         158
  C:C420H         LINE#         159
  C:C424H         LINE#         160
  C:C428H         LINE#         162
BL51 BANKED LINKER/LOCATER V6.22                                                      06/24/2016  11:44:38  PAGE 82


  C:C428H         LINE#         163
  C:C431H         LINE#         164
  C:C431H         LINE#         165
  C:C44DH         LINE#         166
  C:C44DH         LINE#         168
  C:C44FH         LINE#         169
  C:C45BH         LINE#         170
  C:C467H         LINE#         172
  C:C473H         LINE#         173
  C:C48BH         LINE#         174
  C:C497H         LINE#         175
  C:C497H         LINE#         176
  C:C4A0H         LINE#         177
  C:C4A2H         LINE#         178
  C:C4A2H         LINE#         179
  C:C4C6H         LINE#         180
  C:C4CBH         LINE#         181
  -------         ENDPROC       ARRAY
  -------         PROC          _MAX
  X:0246H         SYMBOL        total
  X:0247H         SYMBOL        M
  -------         DO            
  X:0249H         SYMBOL        i
  -------         ENDDO         
  C:D1E6H         LINE#         188
  C:D1F1H         LINE#         189
  C:D1F1H         LINE#         191
  C:D202H         LINE#         192
  C:D229H         LINE#         193
  C:D248H         LINE#         194
  C:D250H         LINE#         195
  C:D258H         LINE#         196
  -------         ENDPROC       _MAX
  C:759AH         SYMBOL        L?0332
  C:759CH         SYMBOL        L?0333
  -------         PROC          L?0331
  -------         ENDPROC       L?0331
  C:759AH         SYMBOL        L?0332
  C:759CH         SYMBOL        L?0333
  -------         PROC          _P_TO_P
  X:021EH         SYMBOL        delay
  X:0220H         SYMBOL        define
  -------         DO            
  X:0222H         SYMBOL        i
  X:0223H         SYMBOL        j
  X:0224H         SYMBOL        a
  X:0226H         SYMBOL        b
  X:0228H         SYMBOL        M
  X:022AH         SYMBOL        c
  X:022EH         SYMBOL        position_buffer
  -------         ENDDO         
  C:75A2H         LINE#         203
  C:75B0H         LINE#         204
  C:75B0H         LINE#         206
  C:75BBH         LINE#         210
  C:75BFH         LINE#         211
  C:75BFH         LINE#         212
BL51 BANKED LINKER/LOCATER V6.22                                                      06/24/2016  11:44:38  PAGE 83


  C:75DBH         LINE#         213
  C:75E5H         LINE#         214
  C:75EFH         LINE#         215
  C:75F6H         LINE#         216
  C:7606H         LINE#         217
  C:7610H         LINE#         218
  C:761BH         LINE#         219
  C:762CH         LINE#         220
  C:7632H         LINE#         221
  C:7634H         LINE#         223
  C:7643H         LINE#         224
  C:7643H         LINE#         225
  C:7663H         LINE#         226
  C:7663H         LINE#         227
  C:7675H         LINE#         228
  C:7690H         LINE#         229
  C:7698H         LINE#         230
  C:76DDH         LINE#         232
  C:76DDH         LINE#         233
  C:7729H         LINE#         234
  C:777BH         LINE#         235
  C:777BH         LINE#         236
  C:7799H         LINE#         237
  C:77A2H         LINE#         238
  C:77A5H         LINE#         239
  C:77B0H         LINE#         240
  C:77B9H         LINE#         241
  C:77BEH         LINE#         242
  C:77BEH         LINE#         243
  C:77EEH         LINE#         244
  C:77FEH         LINE#         245
  C:7808H         LINE#         246
  C:780BH         LINE#         247
  -------         ENDPROC       _P_TO_P
  C:C175H         SYMBOL        L?0327
  C:C18CH         SYMBOL        L?0328
  C:C1A8H         SYMBOL        L?0329
  C:C1BCH         SYMBOL        L?0330
  -------         PROC          L?0326
  -------         ENDPROC       L?0326
  C:C175H         SYMBOL        L?0327
  C:C18CH         SYMBOL        L?0328
  C:C1A8H         SYMBOL        L?0329
  C:C1BCH         SYMBOL        L?0330
  -------         PROC          _RELATIVE
  X:0249H         SYMBOL        a1
  X:024BH         SYMBOL        a2
  X:024DH         SYMBOL        a3
  X:024FH         SYMBOL        a4
  X:0251H         SYMBOL        a5
  X:0253H         SYMBOL        a6
  X:0255H         SYMBOL        a7
  X:0257H         SYMBOL        a8
  X:0259H         SYMBOL        a9
  X:025BH         SYMBOL        a10
  X:025DH         SYMBOL        a11
  X:025FH         SYMBOL        a12
BL51 BANKED LINKER/LOCATER V6.22                                                      06/24/2016  11:44:38  PAGE 84


  X:0261H         SYMBOL        a13
  X:0263H         SYMBOL        a14
  X:0265H         SYMBOL        a15
  X:0267H         SYMBOL        a16
  X:0269H         SYMBOL        a17
  X:026BH         SYMBOL        a18
  X:026DH         SYMBOL        a19
  X:026FH         SYMBOL        a20
  X:0271H         SYMBOL        a21
  X:0273H         SYMBOL        a22
  -------         DO            
  D:0001H         SYMBOL        p
  X:0275H         SYMBOL        i
  -------         ENDDO         
  C:C1CAH         LINE#         256
  C:C1DEH         LINE#         259
  C:C1DEH         LINE#         262
  C:C1E4H         LINE#         263
  C:C1F3H         LINE#         264
  C:C1FDH         LINE#         265
  C:C20FH         LINE#         267
  C:C24FH         LINE#         268
  C:C25EH         LINE#         270
  -------         ENDPROC       _RELATIVE
  -------         PROC          L?0336
  -------         ENDPROC       L?0336
  -------         PROC          INITIAL_POSITION
  -------         DO            
  X:021BH         SYMBOL        i
  D:0007H         SYMBOL        j
  X:021CH         SYMBOL        SrcName
  -------         ENDDO         
  C:CAB9H         LINE#         278
  C:CAB9H         LINE#         279
  C:CAB9H         LINE#         282
  C:CAC8H         LINE#         283
  C:CACDH         LINE#         284
  C:CACDH         LINE#         285
  C:CADBH         LINE#         286
  C:CADBH         LINE#         287
  C:CADCH         LINE#         288
  C:CADCH         LINE#         289
  C:CAF4H         LINE#         290
  C:CAF9H         LINE#         292
  C:CAFCH         LINE#         293
  C:CB03H         LINE#         294
  C:CB03H         LINE#         295
  C:CB0FH         LINE#         296
  C:CB1EH         LINE#         297
  C:CB1EH         LINE#         298
  C:CB36H         LINE#         299
  C:CB4AH         LINE#         300
  C:CB5AH         LINE#         301
  C:CB62H         LINE#         303
  -------         ENDPROC       INITIAL_POSITION
  -------         PROC          INITIAL_POSITION_SLOW
  -------         DO            
BL51 BANKED LINKER/LOCATER V6.22                                                      06/24/2016  11:44:38  PAGE 85


  D:0007H         SYMBOL        i
  -------         ENDDO         
  C:D9CFH         LINE#         311
  C:D9CFH         LINE#         312
  C:D9CFH         LINE#         315
  C:D9D1H         LINE#         316
  C:D9D1H         LINE#         317
  C:DA00H         LINE#         318
  C:DA05H         LINE#         320
  -------         ENDPROC       INITIAL_POSITION_SLOW
  -------         PROC          _INITIAL_POSITION_SLOWONE
  X:01E3H         SYMBOL        k
  C:B987H         LINE#         323
  C:B98CH         LINE#         324
  C:B98CH         LINE#         325
  C:B990H         LINE#         326
  C:B990H         LINE#         327
  C:B9E7H         LINE#         328
  C:B9E7H         LINE#         329
  C:B9EAH         LINE#         331
  C:B9EAH         LINE#         332
  C:B9F2H         LINE#         333
  C:B9F2H         LINE#         334
  C:BA41H         LINE#         335
  C:BA41H         LINE#         336
  C:BA43H         LINE#         338
  C:BA43H         LINE#         339
  C:BA87H         LINE#         340
  C:BA8CH         LINE#         341
  C:BA8CH         LINE#         342
  C:BA8CH         LINE#         343
  -------         ENDPROC       _INITIAL_POSITION_SLOWONE
  -------         PROC          _SIT_DOWN
  X:021AH         SYMBOL        step
  -------         DO            
  X:021BH         SYMBOL        i
  -------         ENDDO         
  C:D8C8H         LINE#         350
  C:D8CDH         LINE#         351
  C:D8CDH         LINE#         354
  C:D8DBH         LINE#         355
  C:D8DBH         LINE#         356
  C:D8E1H         LINE#         357
  C:D8E6H         LINE#         358
  C:D8EAH         LINE#         360
  C:D8EEH         LINE#         361
  C:D8F3H         LINE#         362
  C:D8F7H         LINE#         363
  C:D8FAH         LINE#         364
  C:D901H         LINE#         365
  C:D909H         LINE#         366
  -------         ENDPROC       _SIT_DOWN
  -------         PROC          _STAND_UP
  X:021AH         SYMBOL        setp
  -------         DO            
  X:021BH         SYMBOL        i
  -------         ENDDO         
BL51 BANKED LINKER/LOCATER V6.22                                                      06/24/2016  11:44:38  PAGE 86


  C:D90AH         LINE#         373
  C:D90FH         LINE#         374
  C:D90FH         LINE#         377
  C:D91DH         LINE#         378
  C:D91DH         LINE#         379
  C:D923H         LINE#         380
  C:D928H         LINE#         381
  C:D92CH         LINE#         383
  C:D930H         LINE#         384
  C:D935H         LINE#         385
  C:D939H         LINE#         386
  C:D93CH         LINE#         387
  C:D943H         LINE#         388
  C:D94BH         LINE#         389
  -------         ENDPROC       _STAND_UP
  -------         PROC          _TURN_LEFT
  X:0217H         SYMBOL        step
  -------         DO            
  X:0218H         SYMBOL        k
  -------         ENDDO         
  C:6B2EH         LINE#         396
  C:6B33H         LINE#         397
  C:6B33H         LINE#         399
  C:6B3AH         LINE#         400
  C:6B42H         LINE#         402
  C:6B47H         LINE#         403
  C:6BB8H         LINE#         404
  C:6BC2H         LINE#         406
  C:6C45H         LINE#         407
  C:6C4FH         LINE#         409
  C:6CD2H         LINE#         410
  C:6CDCH         LINE#         412
  C:6D5FH         LINE#         413
  C:6D69H         LINE#         415
  C:6DE0H         LINE#         416
  -------         ENDPROC       _TURN_LEFT
  -------         PROC          _TURN_RIGHT
  X:0217H         SYMBOL        step
  -------         DO            
  X:0218H         SYMBOL        k
  -------         ENDDO         
  C:686CH         LINE#         424
  C:6871H         LINE#         425
  C:6871H         LINE#         427
  C:6878H         LINE#         428
  C:6880H         LINE#         430
  C:6885H         LINE#         431
  C:68F6H         LINE#         432
  C:6900H         LINE#         434
  C:6985H         LINE#         435
  C:698FH         LINE#         437
  C:6A14H         LINE#         438
  C:6A1EH         LINE#         440
  C:6AA3H         LINE#         441
  C:6AADH         LINE#         443
  C:6B24H         LINE#         444
  -------         ENDPROC       _TURN_RIGHT
BL51 BANKED LINKER/LOCATER V6.22                                                      06/24/2016  11:44:38  PAGE 87


  -------         PROC          _L_PYI
  X:0217H         SYMBOL        step
  -------         DO            
  X:0218H         SYMBOL        k
  -------         ENDDO         
  C:5B7DH         LINE#         453
  C:5B82H         LINE#         454
  C:5B82H         LINE#         456
  C:5B89H         LINE#         457
  C:5B91H         LINE#         459
  C:5B96H         LINE#         460
  C:5C07H         LINE#         461
  C:5C11H         LINE#         463
  C:5C96H         LINE#         464
  C:5CA1H         LINE#         466
  C:5D26H         LINE#         467
  C:5D31H         LINE#         469
  C:5DB4H         LINE#         470
  C:5DBEH         LINE#         472
  C:5E41H         LINE#         473
  C:5E4BH         LINE#         475
  C:5EC2H         LINE#         476
  -------         ENDPROC       _L_PYI
  -------         PROC          _R_PYI
  X:0217H         SYMBOL        step
  -------         DO            
  X:0218H         SYMBOL        k
  -------         ENDDO         
  C:5ECCH         LINE#         485
  C:5ED1H         LINE#         486
  C:5ED1H         LINE#         489
  C:5ED8H         LINE#         490
  C:5EE0H         LINE#         492
  C:5EE5H         LINE#         493
  C:5F56H         LINE#         494
  C:5F60H         LINE#         496
  C:5FE3H         LINE#         497
  C:5FEEH         LINE#         499
  C:6071H         LINE#         500
  C:607CH         LINE#         502
  C:6101H         LINE#         503
  C:610BH         LINE#         505
  C:6190H         LINE#         506
  C:619AH         LINE#         508
  C:6211H         LINE#         509
  -------         ENDPROC       _R_PYI
  -------         PROC          _FWC
  X:0217H         SYMBOL        step
  -------         DO            
  X:0218H         SYMBOL        i
  X:0219H         SYMBOL        j
  -------         ENDDO         
  C:4509H         LINE#         518
  C:450EH         LINE#         519
  C:450EH         LINE#         521
  C:450EH         LINE#         522
  C:450EH         LINE#         524
BL51 BANKED LINKER/LOCATER V6.22                                                      06/24/2016  11:44:38  PAGE 88


  C:4511H         LINE#         526
  C:457FH         LINE#         527
  C:458AH         LINE#         529
  C:45F8H         LINE#         530
  C:45FBH         LINE#         532
  C:4669H         LINE#         533
  C:466CH         LINE#         535
  C:468EH         LINE#         536
  C:4699H         LINE#         539
  C:46ABH         LINE#         540
  C:46ABH         LINE#         541
  C:46B0H         LINE#         542
  C:46B0H         LINE#         543
  C:46B7H         LINE#         544
  C:46BCH         LINE#         545
  C:46C1H         LINE#         546
  C:46C6H         LINE#         547
  C:46C9H         LINE#         548
  C:46D0H         LINE#         549
  C:46DCH         LINE#         550
  C:46E1H         LINE#         551
  C:46E1H         LINE#         552
  C:46E8H         LINE#         553
  C:46EDH         LINE#         554
  C:46F2H         LINE#         555
  C:46F7H         LINE#         556
  C:46FAH         LINE#         557
  C:4701H         LINE#         558
  C:470DH         LINE#         559
  C:4715H         LINE#         561
  C:477AH         LINE#         562
  C:4785H         LINE#         564
  C:47EFH         LINE#         565
  C:47FAH         LINE#         567
  C:4868H         LINE#         568
  C:4873H         LINE#         570
  C:48E1H         LINE#         571
  C:48E4H         LINE#         573
  C:48E7H         LINE#         574
  C:48F2H         LINE#         575
  C:48F7H         LINE#         576
  C:48FBH         LINE#         577
  -------         ENDPROC       _FWC
  -------         PROC          _GOAL_L
  X:0217H         SYMBOL        step
  -------         DO            
  X:0218H         SYMBOL        i
  -------         ENDDO         
  C:6DEAH         LINE#         584
  C:6DEFH         LINE#         585
  C:6DEFH         LINE#         588
  C:6E00H         LINE#         589
  C:6E00H         LINE#         590
  C:6E75H         LINE#         591
  C:6E80H         LINE#         593
  C:6EF2H         LINE#         594
  C:6EFCH         LINE#         596
BL51 BANKED LINKER/LOCATER V6.22                                                      06/24/2016  11:44:38  PAGE 89


  C:6F77H         LINE#         597
  C:6F81H         LINE#         599
  C:6F86H         LINE#         600
  C:6FFBH         LINE#         601
  C:7005H         LINE#         603
  C:706CH         LINE#         604
  C:7076H         LINE#         605
  C:707FH         LINE#         606
  -------         ENDPROC       _GOAL_L
  -------         PROC          _GOAL_R
  X:0217H         SYMBOL        step
  -------         DO            
  X:0218H         SYMBOL        i
  -------         ENDDO         
  C:7080H         LINE#         613
  C:7085H         LINE#         614
  C:7085H         LINE#         616
  C:7096H         LINE#         617
  C:7096H         LINE#         618
  C:710CH         LINE#         619
  C:7117H         LINE#         621
  C:7189H         LINE#         622
  C:7193H         LINE#         624
  C:7208H         LINE#         625
  C:7212H         LINE#         626
  C:7217H         LINE#         627
  C:728DH         LINE#         628
  C:7297H         LINE#         630
  C:72FEH         LINE#         631
  C:7308H         LINE#         633
  C:7311H         LINE#         634
  -------         ENDPROC       _GOAL_R
  -------         PROC          QIANPAXIA
  -------         DO            
  X:0217H         SYMBOL        i
  -------         ENDDO         
  C:A416H         LINE#         641
  C:A416H         LINE#         642
  C:A416H         LINE#         644
  C:A484H         LINE#         645
  C:A48FH         LINE#         647
  C:A4FDH         LINE#         648
  C:A500H         LINE#         650
  C:A56EH         LINE#         651
  C:A571H         LINE#         653
  C:A593H         LINE#         654
  C:A59EH         LINE#         656
  C:A5A3H         LINE#         657
  C:A5A3H         LINE#         658
  C:A5AAH         LINE#         659
  C:A5AFH         LINE#         660
  C:A5B2H         LINE#         661
  C:A5B9H         LINE#         662
  C:A5C5H         LINE#         663
  -------         ENDPROC       QIANPAXIA
  -------         PROC          QIANPQ
  C:7312H         LINE#         671
BL51 BANKED LINKER/LOCATER V6.22                                                      06/24/2016  11:44:38  PAGE 90


  C:7312H         LINE#         672
  C:7312H         LINE#         673
  C:7350H         LINE#         674
  C:735BH         LINE#         676
  C:73A1H         LINE#         677
  C:73ACH         LINE#         679
  C:7411H         LINE#         680
  C:741CH         LINE#         682
  C:748AH         LINE#         683
  C:7495H         LINE#         685
  C:7503H         LINE#         686
  C:750EH         LINE#         688
  C:757CH         LINE#         689
  C:7587H         LINE#         691
  C:758AH         LINE#         692
  C:7595H         LINE#         693
  -------         ENDPROC       QIANPQ
  -------         PROC          HP
  C:9CE0H         LINE#         701
  C:9CE0H         LINE#         702
  C:9CE0H         LINE#         703
  C:9CE3H         LINE#         704
  C:9CE6H         LINE#         706
  C:9D5CH         LINE#         707
  C:9D67H         LINE#         709
  C:9DDDH         LINE#         710
  C:9DE8H         LINE#         712
  C:9E5AH         LINE#         713
  C:9E65H         LINE#         715
  C:9EA3H         LINE#         716
  C:9EAEH         LINE#         718
  C:9EB1H         LINE#         719
  C:9EBCH         LINE#         721
  C:9EC1H         LINE#         722
  -------         ENDPROC       HP
  -------         PROC          HPQ
  C:AAA0H         LINE#         731
  C:AAA0H         LINE#         732
  C:AAA0H         LINE#         733
  C:AB16H         LINE#         734
  C:AB21H         LINE#         736
  C:AB97H         LINE#         737
  C:ABA2H         LINE#         739
  C:AC09H         LINE#         740
  C:AC14H         LINE#         742
  C:AC17H         LINE#         743
  C:AC22H         LINE#         745
  -------         ENDPROC       HPQ
  -------         PROC          _YANGWOQIZUO
  X:0217H         SYMBOL        step
  -------         DO            
  X:0218H         SYMBOL        i
  X:0219H         SYMBOL        j
  -------         ENDDO         
  C:AEE5H         LINE#         753
  C:AEEAH         LINE#         754
  C:AEEAH         LINE#         756
BL51 BANKED LINKER/LOCATER V6.22                                                      06/24/2016  11:44:38  PAGE 91


  C:AEEEH         LINE#         757
  C:AEF0H         LINE#         759
  C:AEF3H         LINE#         760
  C:AEF8H         LINE#         762
  C:AEFDH         LINE#         763
  C:AEFDH         LINE#         764
  C:AF03H         LINE#         765
  C:AF07H         LINE#         766
  C:AF0BH         LINE#         767
  C:AF0FH         LINE#         768
  C:AF12H         LINE#         769
  C:AF19H         LINE#         770
  C:AF25H         LINE#         771
  C:AF2AH         LINE#         772
  C:AF2AH         LINE#         773
  C:AF31H         LINE#         774
  C:AF36H         LINE#         775
  C:AF39H         LINE#         776
  C:AF40H         LINE#         777
  C:AF4CH         LINE#         778
  C:AF51H         LINE#         779
  C:AF51H         LINE#         780
  C:AF58H         LINE#         781
  C:AF5FH         LINE#         782
  C:AF64H         LINE#         783
  C:AF6BH         LINE#         784
  C:AF71H         LINE#         785
  C:AF76H         LINE#         786
  C:AF7AH         LINE#         787
  C:AF7FH         LINE#         788
  C:AF82H         LINE#         789
  C:AF89H         LINE#         790
  C:AF8EH         LINE#         792
  C:AF9AH         LINE#         793
  C:AFACH         LINE#         794
  C:AFACH         LINE#         795
  C:AFB1H         LINE#         796
  C:AFB1H         LINE#         797
  C:AFB8H         LINE#         798
  C:AFBFH         LINE#         799
  C:AFC2H         LINE#         800
  C:AFC9H         LINE#         801
  C:AFD5H         LINE#         802
  C:AFDAH         LINE#         803
  C:AFDAH         LINE#         804
  C:AFE1H         LINE#         805
  C:AFE8H         LINE#         806
  C:AFEBH         LINE#         807
  C:AFF2H         LINE#         808
  C:AFFEH         LINE#         809
  C:B006H         LINE#         810
  C:B00BH         LINE#         811
  C:B00EH         LINE#         812
  C:B019H         LINE#         813
  C:B01EH         LINE#         814
  C:B021H         LINE#         815
  C:B025H         LINE#         816
BL51 BANKED LINKER/LOCATER V6.22                                                      06/24/2016  11:44:38  PAGE 92


  -------         ENDPROC       _YANGWOQIZUO
  -------         PROC          JINGLI_L
  -------         DO            
  X:0219H         SYMBOL        i
  -------         ENDDO         
  C:C892H         LINE#         824
  C:C892H         LINE#         825
  C:C892H         LINE#         828
  C:C897H         LINE#         830
  C:C89CH         LINE#         831
  C:C89CH         LINE#         832
  C:C8A3H         LINE#         833
  C:C8AAH         LINE#         835
  C:C8ADH         LINE#         836
  C:C8B4H         LINE#         837
  C:C8C0H         LINE#         839
  C:C8C5H         LINE#         840
  C:C8C5H         LINE#         841
  C:C8CBH         LINE#         842
  C:C8D1H         LINE#         843
  C:C8D4H         LINE#         844
  C:C8DBH         LINE#         845
  C:C8ECH         LINE#         846
  C:C8F1H         LINE#         847
  C:C8F1H         LINE#         848
  C:C8F7H         LINE#         849
  C:C8FDH         LINE#         850
  C:C900H         LINE#         851
  C:C907H         LINE#         852
  C:C918H         LINE#         853
  C:C91DH         LINE#         854
  C:C91DH         LINE#         855
  C:C924H         LINE#         856
  C:C92BH         LINE#         858
  C:C92EH         LINE#         859
  C:C935H         LINE#         860
  C:C941H         LINE#         862
  C:C946H         LINE#         863
  -------         ENDPROC       JINGLI_L
  -------         PROC          JINGLI_R
  -------         DO            
  X:0217H         SYMBOL        i
  -------         ENDDO         
  C:C94BH         LINE#         872
  C:C94BH         LINE#         873
  C:C94BH         LINE#         876
  C:C950H         LINE#         878
  C:C955H         LINE#         879
  C:C955H         LINE#         880
  C:C95CH         LINE#         881
  C:C963H         LINE#         883
  C:C966H         LINE#         884
  C:C96DH         LINE#         886
  C:C979H         LINE#         888
  C:C97EH         LINE#         889
  C:C97EH         LINE#         890
  C:C984H         LINE#         891
BL51 BANKED LINKER/LOCATER V6.22                                                      06/24/2016  11:44:38  PAGE 93


  C:C98AH         LINE#         892
  C:C98DH         LINE#         893
  C:C994H         LINE#         894
  C:C9A0H         LINE#         895
  C:C9A5H         LINE#         897
  C:C9AAH         LINE#         898
  C:C9AAH         LINE#         899
  C:C9B0H         LINE#         900
  C:C9B6H         LINE#         901
  C:C9B9H         LINE#         902
  C:C9C0H         LINE#         903
  C:C9CCH         LINE#         904
  C:C9D1H         LINE#         905
  C:C9D1H         LINE#         906
  C:C9D8H         LINE#         907
  C:C9DFH         LINE#         908
  C:C9E2H         LINE#         909
  C:C9E9H         LINE#         910
  C:C9F5H         LINE#         911
  C:C9FAH         LINE#         912
  -------         ENDPROC       JINGLI_R
  -------         PROC          QGF
  C:50C2H         LINE#         922
  C:50C2H         LINE#         923
  C:50C2H         LINE#         924
  C:50C6H         LINE#         925
  C:50C8H         LINE#         927
  C:5136H         LINE#         928
  C:5141H         LINE#         930
  C:51AFH         LINE#         931
  C:51BAH         LINE#         933
  C:5224H         LINE#         934
  C:522FH         LINE#         936
  C:5299H         LINE#         937
  C:52A4H         LINE#         939
  C:530EH         LINE#         940
  C:5311H         LINE#         942
  C:5383H         LINE#         943
  C:5386H         LINE#         945
  C:53FCH         LINE#         946
  C:53FFH         LINE#         948
  C:5466H         LINE#         949
  C:5471H         LINE#         951
  C:5474H         LINE#         952
  C:547FH         LINE#         954
  C:5483H         LINE#         955
  -------         ENDPROC       QGF
  -------         PROC          HGF
  C:48FCH         LINE#         962
  C:48FCH         LINE#         963
  C:48FCH         LINE#         964
  C:4900H         LINE#         965
  C:4902H         LINE#         967
  C:4978H         LINE#         968
  C:4983H         LINE#         970
  C:49F5H         LINE#         971
  C:49F8H         LINE#         973
BL51 BANKED LINKER/LOCATER V6.22                                                      06/24/2016  11:44:38  PAGE 94


  C:4A6EH         LINE#         974
  C:4A79H         LINE#         976
  C:4AEFH         LINE#         977
  C:4AF2H         LINE#         979
  C:4B68H         LINE#         980
  C:4B6BH         LINE#         982
  C:4BE1H         LINE#         983
  C:4BECH         LINE#         985
  C:4C5AH         LINE#         986
  C:4C65H         LINE#         988
  C:4CD3H         LINE#         989
  C:4CD6H         LINE#         991
  C:4CD9H         LINE#         992
  C:4CE4H         LINE#         994
  C:4CE9H         LINE#         995
  C:4CEDH         LINE#         996
  -------         ENDPROC       HGF
  -------         PROC          DAOLI
  -------         DO            
  X:0217H         SYMBOL        i
  X:0218H         SYMBOL        j
  -------         ENDDO         
  C:257BH         LINE#         1003
  C:257BH         LINE#         1004
  C:257BH         LINE#         1006
  C:257BH         LINE#         1007
  C:257BH         LINE#         1009
  C:257EH         LINE#         1011
  C:25F4H         LINE#         1012
  C:25FFH         LINE#         1014
  C:2675H         LINE#         1015
  C:2680H         LINE#         1017
  C:26F6H         LINE#         1018
  C:2701H         LINE#         1020
  C:276EH         LINE#         1021
  C:2779H         LINE#         1023
  C:27E6H         LINE#         1024
  C:27F1H         LINE#         1025
  C:27F6H         LINE#         1027
  C:286CH         LINE#         1028
  C:2877H         LINE#         1030
  C:28EDH         LINE#         1031
  C:28F8H         LINE#         1033
  C:296EH         LINE#         1034
  C:2979H         LINE#         1036
  C:29E7H         LINE#         1037
  C:29F2H         LINE#         1039
  C:2A60H         LINE#         1040
  C:2A6BH         LINE#         1042
  C:2A6EH         LINE#         1043
  C:2A79H         LINE#         1195
  C:2A7DH         LINE#         1196
  -------         ENDPROC       DAOLI
  -------         PROC          PCH
  C:8A96H         LINE#         1203
  C:8A96H         LINE#         1204
  C:8A96H         LINE#         1205
BL51 BANKED LINKER/LOCATER V6.22                                                      06/24/2016  11:44:38  PAGE 95


  C:8AD4H         LINE#         1206
  C:8AD7H         LINE#         1208
  C:8B22H         LINE#         1209
  C:8B2DH         LINE#         1211
  C:8B32H         LINE#         1213
  C:8BAEH         LINE#         1214
  C:8BB9H         LINE#         1216
  C:8C35H         LINE#         1217
  C:8C38H         LINE#         1219
  C:8CA7H         LINE#         1220
  C:8CAAH         LINE#         1222
  C:8CADH         LINE#         1223
  -------         ENDPROC       PCH
  -------         PROC          DT_L
  -------         DO            
  X:01E3H         SYMBOL        i
  -------         ENDDO         
  C:BA8DH         LINE#         1231
  C:BA8DH         LINE#         1232
  C:BA8DH         LINE#         1233
  C:BA90H         LINE#         1234
  C:BA9BH         LINE#         1235
  C:BAA0H         LINE#         1236
  C:BAA0H         LINE#         1237
  C:BAA7H         LINE#         1238
  C:BAAEH         LINE#         1239
  C:BAB1H         LINE#         1240
  C:BAB8H         LINE#         1241
  C:BAC4H         LINE#         1244
  C:BAC9H         LINE#         1245
  C:BAC9H         LINE#         1246
  C:BACFH         LINE#         1247
  C:BAD3H         LINE#         1248
  C:BAD7H         LINE#         1249
  C:BADBH         LINE#         1250
  C:BADEH         LINE#         1251
  C:BAE5H         LINE#         1252
  C:BAF1H         LINE#         1253
  C:BAF6H         LINE#         1256
  C:BB05H         LINE#         1257
  C:BB05H         LINE#         1258
  C:BB0CH         LINE#         1259
  C:BB10H         LINE#         1260
  C:BB10H         LINE#         1262
  C:BB16H         LINE#         1264
  C:BB19H         LINE#         1265
  C:BB20H         LINE#         1266
  C:BB28H         LINE#         1267
  C:BB2DH         LINE#         1268
  C:BB32H         LINE#         1269
  C:BB32H         LINE#         1270
  C:BB39H         LINE#         1271
  C:BB3FH         LINE#         1272
  C:BB42H         LINE#         1273
  C:BB49H         LINE#         1274
  C:BB55H         LINE#         1275
  C:BB5AH         LINE#         1277
BL51 BANKED LINKER/LOCATER V6.22                                                      06/24/2016  11:44:38  PAGE 96


  C:BB5FH         LINE#         1278
  C:BB5FH         LINE#         1279
  C:BB66H         LINE#         1280
  C:BB6BH         LINE#         1281
  C:BB70H         LINE#         1282
  C:BB75H         LINE#         1283
  C:BB78H         LINE#         1284
  C:BB7FH         LINE#         1285
  C:BB8BH         LINE#         1286
  C:BB90H         LINE#         1287
  -------         ENDPROC       DT_L
  -------         PROC          DT_R
  -------         DO            
  X:01E3H         SYMBOL        i
  -------         ENDDO         
  C:BB93H         LINE#         1295
  C:BB93H         LINE#         1296
  C:BB93H         LINE#         1297
  C:BB96H         LINE#         1298
  C:BBA1H         LINE#         1300
  C:BBA6H         LINE#         1301
  C:BBA6H         LINE#         1302
  C:BBADH         LINE#         1303
  C:BBB4H         LINE#         1304
  C:BBB7H         LINE#         1305
  C:BBBEH         LINE#         1306
  C:BBCAH         LINE#         1309
  C:BBCFH         LINE#         1310
  C:BBCFH         LINE#         1311
  C:BBD5H         LINE#         1312
  C:BBD9H         LINE#         1313
  C:BBDDH         LINE#         1314
  C:BBE1H         LINE#         1315
  C:BBE4H         LINE#         1316
  C:BBEBH         LINE#         1317
  C:BBF7H         LINE#         1318
  C:BBFCH         LINE#         1321
  C:BC0BH         LINE#         1322
  C:BC0BH         LINE#         1323
  C:BC12H         LINE#         1324
  C:BC16H         LINE#         1325
  C:BC16H         LINE#         1327
  C:BC1CH         LINE#         1329
  C:BC1FH         LINE#         1330
  C:BC26H         LINE#         1331
  C:BC2EH         LINE#         1332
  C:BC33H         LINE#         1333
  C:BC38H         LINE#         1334
  C:BC38H         LINE#         1335
  C:BC3FH         LINE#         1336
  C:BC45H         LINE#         1337
  C:BC48H         LINE#         1338
  C:BC4FH         LINE#         1339
  C:BC5BH         LINE#         1340
  C:BC60H         LINE#         1342
  C:BC65H         LINE#         1343
  C:BC65H         LINE#         1344
BL51 BANKED LINKER/LOCATER V6.22                                                      06/24/2016  11:44:38  PAGE 97


  C:BC6CH         LINE#         1345
  C:BC71H         LINE#         1346
  C:BC76H         LINE#         1347
  C:BC7BH         LINE#         1348
  C:BC7EH         LINE#         1349
  C:BC85H         LINE#         1350
  C:BC91H         LINE#         1351
  C:BC96H         LINE#         1352
  -------         ENDPROC       DT_R
  -------         PROC          TAIJIAOZI
  -------         DO            
  X:0217H         SYMBOL        i
  -------         ENDDO         
  C:C7D8H         LINE#         1360
  C:C7D8H         LINE#         1361
  C:C7D8H         LINE#         1364
  C:C7E1H         LINE#         1365
  C:C7E9H         LINE#         1366
  C:C7F0H         LINE#         1367
  C:C7F8H         LINE#         1368
  C:C801H         LINE#         1369
  C:C806H         LINE#         1370
  C:C806H         LINE#         1371
  C:C810H         LINE#         1372
  C:C817H         LINE#         1373
  C:C81FH         LINE#         1374
  C:C826H         LINE#         1375
  C:C82FH         LINE#         1377
  C:C838H         LINE#         1378
  C:C840H         LINE#         1379
  C:C847H         LINE#         1380
  C:C84FH         LINE#         1381
  C:C858H         LINE#         1382
  C:C864H         LINE#         1384
  C:C86EH         LINE#         1385
  C:C875H         LINE#         1386
  C:C87DH         LINE#         1387
  C:C884H         LINE#         1388
  C:C88DH         LINE#         1391
  -------         ENDPROC       TAIJIAOZI
  -------         PROC          WUDAO
  -------         DO            
  X:01E3H         SYMBOL        i
  -------         ENDDO         
  C:0F44H         LINE#         1399
  C:0F44H         LINE#         1400
  C:0F44H         LINE#         1402
  C:0F47H         LINE#         1403
  C:0F52H         LINE#         1404
  C:0F5BH         LINE#         1405
  C:0F65H         LINE#         1406
  C:0F6FH         LINE#         1407
  C:0F79H         LINE#         1408
  C:0F83H         LINE#         1411
  C:0F8CH         LINE#         1412
  C:0F95H         LINE#         1413
  C:0F9DH         LINE#         1414
BL51 BANKED LINKER/LOCATER V6.22                                                      06/24/2016  11:44:38  PAGE 98


  C:0FA7H         LINE#         1415
  C:0FB1H         LINE#         1417
  C:0FBAH         LINE#         1418
  C:0FC2H         LINE#         1419
  C:0FCAH         LINE#         1421
  C:0FD3H         LINE#         1422
  C:0FDDH         LINE#         1424
  C:0FE7H         LINE#         1426
  C:0FF0H         LINE#         1427
  C:0FF9H         LINE#         1428
  C:1003H         LINE#         1429
  C:100DH         LINE#         1430
  C:1017H         LINE#         1432
  C:1020H         LINE#         1433
  C:1027H         LINE#         1434
  C:1031H         LINE#         1436
  C:103BH         LINE#         1437
  C:1042H         LINE#         1438
  C:1049H         LINE#         1439
  C:1053H         LINE#         1440
  C:105DH         LINE#         1441
  C:1065H         LINE#         1442
  C:106FH         LINE#         1443
  C:1079H         LINE#         1444
  C:1080H         LINE#         1445
  C:1089H         LINE#         1446
  C:1093H         LINE#         1447
  C:109DH         LINE#         1448
  C:10A6H         LINE#         1449
  C:10AFH         LINE#         1450
  C:10B9H         LINE#         1451
  C:10C0H         LINE#         1452
  C:10C8H         LINE#         1454
  C:10D2H         LINE#         1455
  C:10DBH         LINE#         1456
  C:10E5H         LINE#         1457
  C:10EEH         LINE#         1459
  C:10F8H         LINE#         1460
  C:10FDH         LINE#         1463
  C:1107H         LINE#         1464
  C:1110H         LINE#         1465
  C:111AH         LINE#         1467
  C:1123H         LINE#         1468
  C:112DH         LINE#         1469
  C:1137H         LINE#         1470
  C:1141H         LINE#         1471
  C:114BH         LINE#         1472
  C:1155H         LINE#         1477
  C:115FH         LINE#         1478
  C:1169H         LINE#         1479
  C:1172H         LINE#         1480
  C:117BH         LINE#         1481
  C:1184H         LINE#         1484
  C:118EH         LINE#         1485
  C:1198H         LINE#         1486
  C:11A1H         LINE#         1487
  C:11AAH         LINE#         1488
BL51 BANKED LINKER/LOCATER V6.22                                                      06/24/2016  11:44:38  PAGE 99


  C:11B4H         LINE#         1490
  C:11C2H         LINE#         1491
  C:11CBH         LINE#         1492
  C:11D2H         LINE#         1494
  C:11DCH         LINE#         1495
  C:11E5H         LINE#         1496
  C:11EFH         LINE#         1497
  C:11F8H         LINE#         1498
  C:1202H         LINE#         1499
  C:120CH         LINE#         1500
  C:1213H         LINE#         1501
  C:121CH         LINE#         1503
  C:1226H         LINE#         1504
  C:122EH         LINE#         1506
  C:1238H         LINE#         1508
  C:1241H         LINE#         1509
  C:1249H         LINE#         1510
  C:1251H         LINE#         1511
  C:125BH         LINE#         1512
  C:1264H         LINE#         1513
  C:126BH         LINE#         1514
  C:1275H         LINE#         1515
  C:127EH         LINE#         1516
  C:1287H         LINE#         1517
  C:1291H         LINE#         1518
  C:129BH         LINE#         1519
  C:12A4H         LINE#         1521
  C:12AEH         LINE#         1522
  C:12B8H         LINE#         1523
  C:12C1H         LINE#         1524
  C:12CBH         LINE#         1526
  C:12D4H         LINE#         1527
  C:12DEH         LINE#         1528
  C:12E8H         LINE#         1529
  C:12F1H         LINE#         1530
  C:12F8H         LINE#         1531
  C:1301H         LINE#         1532
  C:130AH         LINE#         1533
  C:1314H         LINE#         1534
  C:131EH         LINE#         1535
  C:1328H         LINE#         1536
  C:1331H         LINE#         1537
  C:133BH         LINE#         1539
  C:133EH         LINE#         1540
  C:1348H         LINE#         1543
  C:134DH         LINE#         1544
  C:134DH         LINE#         1545
  C:1353H         LINE#         1546
  C:1358H         LINE#         1547
  C:135CH         LINE#         1549
  C:1360H         LINE#         1550
  C:1365H         LINE#         1551
  C:1369H         LINE#         1553
  C:136CH         LINE#         1554
  C:1373H         LINE#         1555
  C:137FH         LINE#         1557
  C:1384H         LINE#         1558
BL51 BANKED LINKER/LOCATER V6.22                                                      06/24/2016  11:44:38  PAGE 100


  C:1384H         LINE#         1559
  C:138AH         LINE#         1560
  C:138FH         LINE#         1561
  C:1393H         LINE#         1563
  C:1397H         LINE#         1564
  C:139CH         LINE#         1565
  C:13A0H         LINE#         1567
  C:13A3H         LINE#         1568
  C:13AAH         LINE#         1569
  C:13B6H         LINE#         1570
  C:13BBH         LINE#         1571
  C:13BBH         LINE#         1572
  C:13C1H         LINE#         1573
  C:13C6H         LINE#         1574
  C:13CAH         LINE#         1576
  C:13CEH         LINE#         1577
  C:13D3H         LINE#         1578
  C:13D7H         LINE#         1580
  C:13DAH         LINE#         1581
  C:13E1H         LINE#         1582
  C:13EDH         LINE#         1583
  C:13F2H         LINE#         1584
  C:13F2H         LINE#         1585
  C:13F8H         LINE#         1586
  C:13FDH         LINE#         1587
  C:1401H         LINE#         1589
  C:1405H         LINE#         1590
  C:140AH         LINE#         1591
  C:140EH         LINE#         1592
  C:1411H         LINE#         1593
  C:1418H         LINE#         1594
  C:1424H         LINE#         1596
  C:1429H         LINE#         1597
  C:1429H         LINE#         1598
  C:142FH         LINE#         1599
  C:1434H         LINE#         1600
  C:1438H         LINE#         1602
  C:143CH         LINE#         1603
  C:1441H         LINE#         1604
  C:1445H         LINE#         1605
  C:144CH         LINE#         1608
  C:144FH         LINE#         1609
  C:1456H         LINE#         1610
  C:1462H         LINE#         1611
  C:1467H         LINE#         1612
  C:1467H         LINE#         1613
  C:146DH         LINE#         1614
  C:1472H         LINE#         1615
  C:1476H         LINE#         1617
  C:147AH         LINE#         1618
  C:147FH         LINE#         1619
  C:1483H         LINE#         1621
  C:1488H         LINE#         1622
  C:148BH         LINE#         1623
  C:1492H         LINE#         1624
  C:149EH         LINE#         1625
  C:14A3H         LINE#         1626
BL51 BANKED LINKER/LOCATER V6.22                                                      06/24/2016  11:44:38  PAGE 101


  C:14A3H         LINE#         1627
  C:14A9H         LINE#         1628
  C:14AEH         LINE#         1629
  C:14B2H         LINE#         1631
  C:14B6H         LINE#         1632
  C:14BBH         LINE#         1633
  C:14BFH         LINE#         1635
  C:14C6H         LINE#         1636
  C:14CDH         LINE#         1638
  C:14D2H         LINE#         1639
  C:14D5H         LINE#         1640
  C:14DCH         LINE#         1641
  C:14E8H         LINE#         1643
  C:14EDH         LINE#         1644
  C:14EDH         LINE#         1645
  C:14F3H         LINE#         1646
  C:14F8H         LINE#         1647
  C:14FCH         LINE#         1649
  C:1500H         LINE#         1650
  C:1505H         LINE#         1651
  C:1509H         LINE#         1652
  C:1510H         LINE#         1653
  C:1517H         LINE#         1654
  C:151EH         LINE#         1656
  C:1521H         LINE#         1657
  C:1528H         LINE#         1658
  C:1534H         LINE#         1659
  C:1539H         LINE#         1660
  C:1539H         LINE#         1661
  C:153FH         LINE#         1662
  C:1544H         LINE#         1663
  C:1548H         LINE#         1665
  C:154CH         LINE#         1666
  C:1551H         LINE#         1667
  C:1555H         LINE#         1669
  C:155CH         LINE#         1670
  C:1563H         LINE#         1672
  C:1566H         LINE#         1673
  C:156DH         LINE#         1674
  C:1579H         LINE#         1675
  C:157EH         LINE#         1676
  C:157EH         LINE#         1677
  C:1584H         LINE#         1678
  C:1589H         LINE#         1679
  C:158DH         LINE#         1681
  C:1591H         LINE#         1682
  C:1596H         LINE#         1683
  C:159AH         LINE#         1685
  C:15A0H         LINE#         1686
  C:15A6H         LINE#         1687
  C:15A9H         LINE#         1688
  C:15B0H         LINE#         1689
  C:15BCH         LINE#         1690
  C:15C1H         LINE#         1691
  C:15C1H         LINE#         1692
  C:15C7H         LINE#         1693
  C:15CCH         LINE#         1694
BL51 BANKED LINKER/LOCATER V6.22                                                      06/24/2016  11:44:38  PAGE 102


  C:15D0H         LINE#         1696
  C:15D4H         LINE#         1697
  C:15D9H         LINE#         1698
  C:15DDH         LINE#         1700
  C:15E4H         LINE#         1701
  C:15EBH         LINE#         1703
  C:15EEH         LINE#         1704
  C:15F5H         LINE#         1705
  C:1601H         LINE#         1706
  C:1606H         LINE#         1707
  C:1606H         LINE#         1708
  C:160CH         LINE#         1709
  C:1611H         LINE#         1710
  C:1615H         LINE#         1712
  C:1619H         LINE#         1713
  C:161EH         LINE#         1714
  C:1622H         LINE#         1716
  C:1629H         LINE#         1717
  C:1630H         LINE#         1718
  C:1633H         LINE#         1719
  C:163AH         LINE#         1720
  C:1646H         LINE#         1722
  C:164BH         LINE#         1723
  C:164BH         LINE#         1724
  C:1651H         LINE#         1725
  C:1656H         LINE#         1726
  C:165AH         LINE#         1728
  C:165EH         LINE#         1729
  C:1663H         LINE#         1730
  C:1667H         LINE#         1732
  C:166DH         LINE#         1733
  C:1673H         LINE#         1735
  C:167AH         LINE#         1736
  C:1681H         LINE#         1737
  C:1688H         LINE#         1738
  C:168FH         LINE#         1741
  C:1692H         LINE#         1742
  C:1699H         LINE#         1743
  C:16A5H         LINE#         1745
  C:16AAH         LINE#         1746
  C:16AAH         LINE#         1747
  C:16B1H         LINE#         1748
  C:16B6H         LINE#         1749
  C:16BDH         LINE#         1752
  C:16C0H         LINE#         1753
  C:16C7H         LINE#         1754
  C:16D3H         LINE#         1755
  C:16D8H         LINE#         1756
  C:16D8H         LINE#         1757
  C:16DFH         LINE#         1758
  C:16E4H         LINE#         1759
  C:16EBH         LINE#         1760
  C:16EEH         LINE#         1761
  C:16F5H         LINE#         1762
  C:1701H         LINE#         1764
  C:1706H         LINE#         1765
  C:1706H         LINE#         1766
BL51 BANKED LINKER/LOCATER V6.22                                                      06/24/2016  11:44:38  PAGE 103


  C:170CH         LINE#         1767
  C:1712H         LINE#         1769
  C:1719H         LINE#         1770
  C:1720H         LINE#         1771
  C:1723H         LINE#         1772
  C:172AH         LINE#         1773
  C:1736H         LINE#         1774
  C:173BH         LINE#         1775
  C:173BH         LINE#         1776
  C:1742H         LINE#         1777
  C:1749H         LINE#         1779
  C:174CH         LINE#         1780
  C:1753H         LINE#         1781
  C:175FH         LINE#         1784
  C:1764H         LINE#         1785
  C:1764H         LINE#         1786
  C:176BH         LINE#         1787
  C:1772H         LINE#         1788
  C:1777H         LINE#         1790
  C:177DH         LINE#         1791
  C:1782H         LINE#         1792
  C:1786H         LINE#         1794
  C:178AH         LINE#         1795
  C:178FH         LINE#         1796
  C:1793H         LINE#         1798
  C:1796H         LINE#         1799
  C:1799H         LINE#         1800
  C:17A5H         LINE#         1802
  C:17AAH         LINE#         1803
  C:17AAH         LINE#         1804
  C:17B1H         LINE#         1805
  C:17B8H         LINE#         1806
  C:17BDH         LINE#         1807
  C:17C3H         LINE#         1808
  C:17C8H         LINE#         1809
  C:17CCH         LINE#         1811
  C:17D0H         LINE#         1812
  C:17D5H         LINE#         1813
  C:17D9H         LINE#         1815
  C:17DCH         LINE#         1816
  C:17DFH         LINE#         1817
  C:17EBH         LINE#         1818
  C:17F0H         LINE#         1819
  C:17F0H         LINE#         1821
  C:17F7H         LINE#         1822
  C:17FEH         LINE#         1823
  C:1804H         LINE#         1824
  C:1809H         LINE#         1825
  C:180DH         LINE#         1827
  C:1811H         LINE#         1828
  C:1816H         LINE#         1829
  C:181AH         LINE#         1832
  C:181DH         LINE#         1833
  C:1820H         LINE#         1834
  C:182CH         LINE#         1835
  C:1831H         LINE#         1836
  C:1831H         LINE#         1837
BL51 BANKED LINKER/LOCATER V6.22                                                      06/24/2016  11:44:38  PAGE 104


  C:1838H         LINE#         1838
  C:183FH         LINE#         1839
  C:1845H         LINE#         1840
  C:184AH         LINE#         1841
  C:184EH         LINE#         1843
  C:1852H         LINE#         1844
  C:1857H         LINE#         1845
  C:185BH         LINE#         1847
  C:185EH         LINE#         1848
  C:1861H         LINE#         1849
  C:186DH         LINE#         1851
  C:1872H         LINE#         1852
  C:1872H         LINE#         1854
  C:1879H         LINE#         1855
  C:1880H         LINE#         1856
  C:1886H         LINE#         1857
  C:188BH         LINE#         1858
  C:188FH         LINE#         1860
  C:1893H         LINE#         1861
  C:1898H         LINE#         1862
  C:189CH         LINE#         1865
  C:189FH         LINE#         1866
  C:18A2H         LINE#         1867
  C:18AEH         LINE#         1869
  C:18B3H         LINE#         1870
  C:18B3H         LINE#         1871
  C:18BAH         LINE#         1872
  C:18C1H         LINE#         1873
  C:18C7H         LINE#         1874
  C:18CCH         LINE#         1875
  C:18D0H         LINE#         1877
  C:18D4H         LINE#         1878
  C:18D9H         LINE#         1879
  C:18DDH         LINE#         1881
  C:18E0H         LINE#         1882
  C:18E3H         LINE#         1883
  C:18EFH         LINE#         1885
  C:18F4H         LINE#         1886
  C:18F4H         LINE#         1887
  C:18FBH         LINE#         1888
  C:1902H         LINE#         1891
  C:1905H         LINE#         1892
  C:1908H         LINE#         1893
  C:1914H         LINE#         1897
  C:1919H         LINE#         1899
  C:1919H         LINE#         1900
  C:191FH         LINE#         1901
  C:1926H         LINE#         1902
  C:192DH         LINE#         1904
  C:1930H         LINE#         1905
  C:1933H         LINE#         1906
  C:193FH         LINE#         1908
  C:1944H         LINE#         1909
  C:1944H         LINE#         1910
  C:194AH         LINE#         1911
  C:1951H         LINE#         1912
  C:1958H         LINE#         1914
BL51 BANKED LINKER/LOCATER V6.22                                                      06/24/2016  11:44:38  PAGE 105


  C:195BH         LINE#         1915
  C:195EH         LINE#         1916
  C:196AH         LINE#         1917
  C:196FH         LINE#         1919
  C:196FH         LINE#         1920
  C:1975H         LINE#         1921
  C:197CH         LINE#         1922
  C:1981H         LINE#         1925
  C:1984H         LINE#         1927
  C:1987H         LINE#         1929
  C:1993H         LINE#         1930
  C:1998H         LINE#         1932
  C:1998H         LINE#         1933
  C:199EH         LINE#         1934
  C:19A5H         LINE#         1935
  C:19AAH         LINE#         1938
  C:19ADH         LINE#         1939
  C:19B0H         LINE#         1940
  C:19BCH         LINE#         1941
  C:19C1H         LINE#         1942
  C:19C1H         LINE#         1944
  C:19C8H         LINE#         1945
  C:19CFH         LINE#         1948
  C:19D2H         LINE#         1949
  C:19D5H         LINE#         1950
  C:19E1H         LINE#         1952
  C:19E6H         LINE#         1953
  C:19E6H         LINE#         1954
  C:19EDH         LINE#         1955
  C:19F4H         LINE#         1956
  C:19F9H         LINE#         1957
  C:1A00H         LINE#         1959
  C:1A03H         LINE#         1960
  C:1A0AH         LINE#         1961
  C:1A16H         LINE#         1963
  C:1A1BH         LINE#         1964
  C:1A1BH         LINE#         1966
  C:1A22H         LINE#         1967
  C:1A29H         LINE#         1968
  C:1A30H         LINE#         1970
  C:1A33H         LINE#         1971
  C:1A3AH         LINE#         1972
  C:1A46H         LINE#         1975
  C:1A4BH         LINE#         1976
  C:1A4BH         LINE#         1977
  C:1A52H         LINE#         1978
  C:1A59H         LINE#         1979
  C:1A60H         LINE#         1981
  C:1A63H         LINE#         1982
  C:1A6AH         LINE#         1983
  C:1A76H         LINE#         1985
  C:1A7BH         LINE#         1986
  C:1A7BH         LINE#         1987
  C:1A82H         LINE#         1988
  C:1A89H         LINE#         1989
  C:1A90H         LINE#         1991
  C:1A93H         LINE#         1992
BL51 BANKED LINKER/LOCATER V6.22                                                      06/24/2016  11:44:38  PAGE 106


  C:1A9AH         LINE#         1993
  C:1AA6H         LINE#         1995
  C:1AABH         LINE#         1996
  C:1AABH         LINE#         1997
  C:1AB2H         LINE#         1998
  C:1AB9H         LINE#         1999
  C:1AC0H         LINE#         2001
  C:1AC3H         LINE#         2002
  C:1ACAH         LINE#         2003
  C:1AD6H         LINE#         2005
  C:1ADBH         LINE#         2006
  C:1ADBH         LINE#         2007
  C:1AE2H         LINE#         2008
  C:1AE9H         LINE#         2009
  C:1AECH         LINE#         2010
  C:1AF3H         LINE#         2011
  C:1AFFH         LINE#         2012
  C:1B04H         LINE#         2015
  C:1B0EH         LINE#         2016
  C:1B17H         LINE#         2017
  C:1B21H         LINE#         2019
  C:1B26H         LINE#         2020
  C:1B2FH         LINE#         2021
  C:1B39H         LINE#         2022
  C:1B43H         LINE#         2024
  C:1B46H         LINE#         2025
  -------         ENDPROC       WUDAO
  -------         PROC          FUWEI
  C:D386H         LINE#         2035
  C:D386H         LINE#         2036
  C:D386H         LINE#         2037
  C:D3D9H         LINE#         2038
  -------         ENDPROC       FUWEI
  -------         PROC          ZUOGOUQIU
  C:B3D3H         LINE#         2046
  C:B3D3H         LINE#         2047
  C:B3D3H         LINE#         2048
  C:B428H         LINE#         2049
  C:B433H         LINE#         2051
  C:B490H         LINE#         2052
  C:B49BH         LINE#         2054
  C:B4EEH         LINE#         2055
  C:B4F9H         LINE#         2057
  C:B4FCH         LINE#         2058
  -------         ENDPROC       ZUOGOUQIU
  -------         PROC          YOUGOUQIU
  C:B507H         LINE#         2067
  C:B507H         LINE#         2068
  C:B507H         LINE#         2069
  C:B558H         LINE#         2070
  C:B563H         LINE#         2072
  C:B5C2H         LINE#         2073
  C:B5CDH         LINE#         2075
  C:B620H         LINE#         2076
  C:B62BH         LINE#         2078
  C:B62EH         LINE#         2079
  -------         ENDPROC       YOUGOUQIU
BL51 BANKED LINKER/LOCATER V6.22                                                      06/24/2016  11:44:38  PAGE 107


  -------         ENDMOD        BASAL

  -------         MODULE        WALKING
  C:0000H         SYMBOL        _ICE_DUMMY_
  C:D542H         PUBLIC        _left_up_1
  C:DAC9H         PUBLIC        _left_forward
  C:C657H         PUBLIC        _houtui
  C:000AH         PUBLIC        qima
  C:C593H         PUBLIC        _walk
  C:D7B6H         PUBLIC        _right_down
  C:A260H         PUBLIC        kuaizou1
  C:7F44H         PUBLIC        kuaizou2
  C:D76DH         PUBLIC        _left_down
  C:83E7H         PUBLIC        houtui1
  C:8196H         PUBLIC        houtui2
  C:DC97H         PUBLIC        _right_cs
  C:D94CH         PUBLIC        tabu1
  C:E2CBH         PUBLIC        _walk1
  C:DC5FH         PUBLIC        _left_cs
  C:D724H         PUBLIC        _right_up
  C:D6DBH         PUBLIC        _left_up
  C:E2C5H         PUBLIC        _right_up_1
  C:CDBAH         PUBLIC        _Start_Status
  C:DB05H         PUBLIC        _right_forward
  -------         PROC          _LEFT_CS
  X:0219H         SYMBOL        setp
  -------         DO            
  X:021AH         SYMBOL        i
  -------         ENDDO         
  C:DC5FH         LINE#         14
  C:DC64H         LINE#         15
  C:DC64H         LINE#         16
  C:DC72H         LINE#         17
  C:DC72H         LINE#         18
  C:DC78H         LINE#         19
  C:DC7CH         LINE#         20
  C:DC80H         LINE#         21
  C:DC84H         LINE#         22
  C:DC87H         LINE#         23
  C:DC8EH         LINE#         24
  C:DC96H         LINE#         25
  -------         ENDPROC       _LEFT_CS
  -------         PROC          _RIGHT_CS
  X:0219H         SYMBOL        setp
  -------         DO            
  X:021AH         SYMBOL        i
  -------         ENDDO         
  C:DC97H         LINE#         32
  C:DC9CH         LINE#         33
  C:DC9CH         LINE#         34
  C:DCAAH         LINE#         35
  C:DCAAH         LINE#         36
  C:DCB0H         LINE#         37
  C:DCB4H         LINE#         38
  C:DCB8H         LINE#         39
  C:DCBCH         LINE#         40
  C:DCBFH         LINE#         41
BL51 BANKED LINKER/LOCATER V6.22                                                      06/24/2016  11:44:38  PAGE 108


  C:DCC6H         LINE#         42
  C:DCCEH         LINE#         43
  -------         ENDPROC       _RIGHT_CS
  -------         PROC          _LEFT_UP
  X:0219H         SYMBOL        setp
  -------         DO            
  X:021AH         SYMBOL        i
  -------         ENDDO         
  C:D6DBH         LINE#         50
  C:D6E0H         LINE#         51
  C:D6E0H         LINE#         52
  C:D6EEH         LINE#         53
  C:D6EEH         LINE#         54
  C:D6F5H         LINE#         55
  C:D6FAH         LINE#         56
  C:D6FFH         LINE#         57
  C:D705H         LINE#         58
  C:D709H         LINE#         59
  C:D70DH         LINE#         60
  C:D711H         LINE#         62
  C:D714H         LINE#         63
  C:D71BH         LINE#         64
  C:D723H         LINE#         65
  -------         ENDPROC       _LEFT_UP
  -------         PROC          _LEFT_UP_1
  X:033CH         SYMBOL        setp
  -------         DO            
  X:033DH         SYMBOL        i
  -------         ENDDO         
  C:D542H         LINE#         72
  C:D547H         LINE#         73
  C:D547H         LINE#         74
  C:D555H         LINE#         75
  C:D555H         LINE#         76
  C:D55CH         LINE#         77
  C:D561H         LINE#         78
  C:D566H         LINE#         79
  C:D56CH         LINE#         80
  C:D570H         LINE#         81
  C:D574H         LINE#         82
  C:D578H         LINE#         83
  C:D57FH         LINE#         84
  C:D584H         LINE#         85
  C:D587H         LINE#         86
  C:D58EH         LINE#         87
  C:D596H         LINE#         88
  -------         ENDPROC       _LEFT_UP_1
  -------         PROC          _RIGHT_UP
  X:0219H         SYMBOL        setp
  -------         DO            
  X:021AH         SYMBOL        i
  -------         ENDDO         
  C:D724H         LINE#         95
  C:D729H         LINE#         96
  C:D729H         LINE#         97
  C:D737H         LINE#         98
  C:D737H         LINE#         99
BL51 BANKED LINKER/LOCATER V6.22                                                      06/24/2016  11:44:38  PAGE 109


  C:D73DH         LINE#         100
  C:D741H         LINE#         101
  C:D745H         LINE#         102
  C:D749H         LINE#         103
  C:D750H         LINE#         104
  C:D755H         LINE#         105
  C:D75AH         LINE#         106
  C:D75DH         LINE#         107
  C:D764H         LINE#         108
  C:D76CH         LINE#         109
  -------         ENDPROC       _RIGHT_UP
  -------         PROC          _RIGHT_UP_1
  X:033EH         SYMBOL        setp
  C:E2C5H         LINE#         116
  C:E2CAH         LINE#         117
  C:E2CAH         LINE#         133
  -------         ENDPROC       _RIGHT_UP_1
  -------         PROC          _LEFT_FORWARD
  X:0219H         SYMBOL        setp
  -------         DO            
  X:021AH         SYMBOL        i
  -------         ENDDO         
  C:DAC9H         LINE#         140
  C:DACEH         LINE#         141
  C:DACEH         LINE#         142
  C:DADCH         LINE#         143
  C:DADCH         LINE#         144
  C:DAE2H         LINE#         145
  C:DAE8H         LINE#         146
  C:DAECH         LINE#         147
  C:DAF2H         LINE#         148
  C:DAF5H         LINE#         149
  C:DAFCH         LINE#         150
  C:DB04H         LINE#         151
  -------         ENDPROC       _LEFT_FORWARD
  -------         PROC          _RIGHT_FORWARD
  X:0219H         SYMBOL        setp
  -------         DO            
  X:021AH         SYMBOL        i
  -------         ENDDO         
  C:DB05H         LINE#         158
  C:DB0AH         LINE#         159
  C:DB0AH         LINE#         160
  C:DB18H         LINE#         161
  C:DB18H         LINE#         162
  C:DB1EH         LINE#         163
  C:DB24H         LINE#         164
  C:DB28H         LINE#         165
  C:DB2EH         LINE#         166
  C:DB31H         LINE#         167
  C:DB38H         LINE#         168
  C:DB40H         LINE#         169
  -------         ENDPROC       _RIGHT_FORWARD
  -------         PROC          _LEFT_DOWN
  X:0219H         SYMBOL        setp
  -------         DO            
  X:021AH         SYMBOL        i
BL51 BANKED LINKER/LOCATER V6.22                                                      06/24/2016  11:44:38  PAGE 110


  -------         ENDDO         
  C:D76DH         LINE#         176
  C:D772H         LINE#         177
  C:D772H         LINE#         178
  C:D780H         LINE#         179
  C:D780H         LINE#         180
  C:D787H         LINE#         181
  C:D78CH         LINE#         182
  C:D791H         LINE#         183
  C:D797H         LINE#         184
  C:D79BH         LINE#         185
  C:D79FH         LINE#         186
  C:D7A3H         LINE#         187
  C:D7A6H         LINE#         188
  C:D7ADH         LINE#         189
  C:D7B5H         LINE#         190
  -------         ENDPROC       _LEFT_DOWN
  -------         PROC          _RIGHT_DOWN
  X:0219H         SYMBOL        setp
  -------         DO            
  X:021AH         SYMBOL        i
  -------         ENDDO         
  C:D7B6H         LINE#         197
  C:D7BBH         LINE#         198
  C:D7BBH         LINE#         199
  C:D7C9H         LINE#         200
  C:D7C9H         LINE#         201
  C:D7CFH         LINE#         202
  C:D7D3H         LINE#         203
  C:D7D7H         LINE#         204
  C:D7DBH         LINE#         205
  C:D7E2H         LINE#         206
  C:D7E7H         LINE#         207
  C:D7ECH         LINE#         208
  C:D7EFH         LINE#         209
  C:D7F6H         LINE#         210
  C:D7FEH         LINE#         211
  -------         ENDPROC       _RIGHT_DOWN
  -------         PROC          _WALK
  X:0217H         SYMBOL        setp
  -------         DO            
  X:0218H         SYMBOL        i
  -------         ENDDO         
  C:C593H         LINE#         218
  C:C598H         LINE#         219
  C:C598H         LINE#         222
  C:C59DH         LINE#         223
  C:C5A2H         LINE#         226
  C:C5A7H         LINE#         227
  C:C5ACH         LINE#         228
  C:C5B1H         LINE#         229
  C:C5B6H         LINE#         230
  C:C5BBH         LINE#         233
  C:C5CDH         LINE#         234
  C:C5CDH         LINE#         235
  C:C5D2H         LINE#         236
  C:C5D7H         LINE#         237
BL51 BANKED LINKER/LOCATER V6.22                                                      06/24/2016  11:44:38  PAGE 111


  C:C5DCH         LINE#         238
  C:C5E1H         LINE#         239
  C:C5E6H         LINE#         242
  C:C5EBH         LINE#         243
  C:C5F0H         LINE#         244
  C:C5F5H         LINE#         245
  C:C5FAH         LINE#         246
  C:C5FFH         LINE#         249
  C:C604H         LINE#         250
  C:C609H         LINE#         251
  C:C60EH         LINE#         252
  C:C613H         LINE#         253
  C:C618H         LINE#         256
  C:C61DH         LINE#         257
  C:C622H         LINE#         258
  C:C627H         LINE#         259
  C:C62CH         LINE#         260
  C:C631H         LINE#         262
  C:C639H         LINE#         264
  C:C63EH         LINE#         265
  C:C643H         LINE#         266
  C:C648H         LINE#         267
  C:C64DH         LINE#         268
  C:C652H         LINE#         270
  -------         ENDPROC       _WALK
  -------         PROC          _WALK1
  X:0218H         SYMBOL        setp
  C:E2CBH         LINE#         278
  C:E2D0H         LINE#         279
  C:E2D0H         LINE#         332
  -------         ENDPROC       _WALK1
  -------         PROC          QIMA
  C:000AH         LINE#         333
  C:000AH         LINE#         334
  C:000AH         LINE#         357
  -------         ENDPROC       QIMA
  -------         PROC          TABU1
  -------         DO            
  X:033FH         SYMBOL        i
  -------         ENDDO         
  C:D94CH         LINE#         358
  C:D94CH         LINE#         359
  C:D94CH         LINE#         362
  C:D951H         LINE#         363
  C:D951H         LINE#         364
  C:D956H         LINE#         365
  C:D95BH         LINE#         366
  C:D95EH         LINE#         367
  C:D963H         LINE#         370
  C:D968H         LINE#         371
  C:D96DH         LINE#         372
  C:D972H         LINE#         373
  C:D977H         LINE#         374
  C:D97CH         LINE#         375
  C:D981H         LINE#         377
  C:D98DH         LINE#         380
  -------         ENDPROC       TABU1
BL51 BANKED LINKER/LOCATER V6.22                                                      06/24/2016  11:44:38  PAGE 112


  -------         PROC          _HOUTUI
  X:01E3H         SYMBOL        setp
  -------         DO            
  X:01E4H         SYMBOL        i
  -------         ENDDO         
  C:C657H         LINE#         387
  C:C65CH         LINE#         388
  C:C65CH         LINE#         390
  C:C661H         LINE#         391
  C:C666H         LINE#         394
  C:C66BH         LINE#         395
  C:C670H         LINE#         396
  C:C675H         LINE#         397
  C:C67AH         LINE#         398
  C:C67FH         LINE#         401
  C:C691H         LINE#         402
  C:C691H         LINE#         403
  C:C696H         LINE#         404
  C:C69BH         LINE#         405
  C:C6A0H         LINE#         406
  C:C6A5H         LINE#         407
  C:C6AAH         LINE#         410
  C:C6AFH         LINE#         411
  C:C6B4H         LINE#         412
  C:C6B9H         LINE#         413
  C:C6BEH         LINE#         414
  C:C6C3H         LINE#         417
  C:C6C8H         LINE#         418
  C:C6CDH         LINE#         419
  C:C6D2H         LINE#         420
  C:C6D7H         LINE#         421
  C:C6DCH         LINE#         424
  C:C6E1H         LINE#         425
  C:C6E6H         LINE#         426
  C:C6EBH         LINE#         427
  C:C6F0H         LINE#         428
  C:C6F5H         LINE#         430
  C:C6FDH         LINE#         432
  C:C702H         LINE#         433
  C:C707H         LINE#         434
  C:C70CH         LINE#         435
  C:C711H         LINE#         436
  C:C716H         LINE#         438
  -------         ENDPROC       _HOUTUI
  -------         PROC          KUAIZOU1
  -------         DO            
  X:01E3H         SYMBOL        k
  -------         ENDDO         
  C:A260H         LINE#         447
  C:A260H         LINE#         448
  C:A260H         LINE#         450
  C:A267H         LINE#         451
  C:A26FH         LINE#         453
  C:A274H         LINE#         454
  C:A2EBH         LINE#         455
  C:A2F6H         LINE#         457
  C:A37BH         LINE#         458
BL51 BANKED LINKER/LOCATER V6.22                                                      06/24/2016  11:44:38  PAGE 113


  C:A386H         LINE#         460
  C:A40BH         LINE#         461
  -------         ENDPROC       KUAIZOU1
  -------         PROC          KUAIZOU2
  -------         DO            
  X:01E3H         SYMBOL        k
  -------         ENDDO         
  C:7F44H         LINE#         471
  C:7F44H         LINE#         472
  C:7F44H         LINE#         474
  C:7F4BH         LINE#         475
  C:7F53H         LINE#         477
  C:7F58H         LINE#         479
  C:7FDDH         LINE#         480
  C:7FE8H         LINE#         482
  C:806FH         LINE#         483
  C:807AH         LINE#         485
  C:80FBH         LINE#         486
  C:8106H         LINE#         488
  C:818BH         LINE#         489
  -------         ENDPROC       KUAIZOU2
  -------         PROC          HOUTUI1
  -------         DO            
  X:01E3H         SYMBOL        k
  -------         ENDDO         
  C:83E7H         LINE#         499
  C:83E7H         LINE#         500
  C:83E7H         LINE#         502
  C:83EEH         LINE#         503
  C:83F6H         LINE#         505
  C:83FBH         LINE#         507
  C:8472H         LINE#         508
  C:847DH         LINE#         510
  C:8500H         LINE#         511
  C:850BH         LINE#         513
  C:858FH         LINE#         514
  C:859AH         LINE#         516
  C:861FH         LINE#         517
  -------         ENDPROC       HOUTUI1
  -------         PROC          HOUTUI2
  -------         DO            
  X:01E3H         SYMBOL        k
  -------         ENDDO         
  C:8196H         LINE#         526
  C:8196H         LINE#         527
  C:8196H         LINE#         529
  C:819DH         LINE#         530
  C:81A5H         LINE#         532
  C:81AAH         LINE#         534
  C:822CH         LINE#         535
  C:8237H         LINE#         537
  C:82BEH         LINE#         538
  C:82C9H         LINE#         541
  C:834CH         LINE#         542
  C:8357H         LINE#         545
  C:83DCH         LINE#         546
  -------         ENDPROC       HOUTUI2
BL51 BANKED LINKER/LOCATER V6.22                                                      06/24/2016  11:44:38  PAGE 114


  -------         PROC          _START_STATUS
  D:0001H         SYMBOL        k
  X:01E3H         SYMBOL        value3
  C:CDBAH         LINE#         550
  C:CDC1H         LINE#         551
  C:CDC1H         LINE#         552
  C:CE37H         LINE#         553
  -------         ENDPROC       _START_STATUS
  -------         ENDMOD        WALKING

  -------         MODULE        JIEWU
  C:0000H         SYMBOL        _ICE_DUMMY_
  C:A76BH         PUBLIC        _wdr_pyi
  C:A092H         PUBLIC        hfh_l
  C:B026H         PUBLIC        dpzhch
  C:9EC4H         PUBLIC        hfh_r
  C:CFE6H         PUBLIC        _qhzy_niu_2
  C:8861H         PUBLIC        yaobibaitou
  C:C335H         PUBLIC        jiewu
  C:BF95H         PUBLIC        _dpzc_1
  C:581EH         PUBLIC        _shou_dd
  C:A5CAH         PUBLIC        _wdl_pyi
  C:94F1H         PUBLIC        qhzy_niu
  -------         PROC          _DPZC_1
  X:021AH         SYMBOL        m
  D:0005H         SYMBOL        n
  -------         DO            
  X:021BH         SYMBOL        i
  -------         ENDDO         
  C:BF95H         LINE#         12
  C:BF9AH         LINE#         13
  C:BF9AH         LINE#         15
  C:BFABH         LINE#         16
  C:BFABH         LINE#         17
  C:BFABH         LINE#         18
  C:BFB0H         LINE#         19
  C:BFB0H         LINE#         20
  C:BFBBH         LINE#         21
  C:BFCBH         LINE#         22
  C:BFD6H         LINE#         23
  C:BFDAH         LINE#         24
  C:BFDDH         LINE#         25
  C:BFE4H         LINE#         26
  C:BFF1H         LINE#         28
  C:BFF1H         LINE#         30
  C:BFF1H         LINE#         31
  C:BFF6H         LINE#         32
  C:BFF6H         LINE#         33
  C:C00DH         LINE#         34
  C:C011H         LINE#         35
  C:C014H         LINE#         36
  C:C01BH         LINE#         37
  C:C028H         LINE#         39
  C:C028H         LINE#         41
  C:C028H         LINE#         42
  C:C037H         LINE#         43
  C:C037H         LINE#         44
BL51 BANKED LINKER/LOCATER V6.22                                                      06/24/2016  11:44:38  PAGE 115


  C:C042H         LINE#         46
  C:C046H         LINE#         47
  C:C046H         LINE#         48
  C:C05DH         LINE#         49
  C:C063H         LINE#         50
  C:C063H         LINE#         52
  C:C06FH         LINE#         53
  C:C06FH         LINE#         54
  C:C075H         LINE#         55
  C:C075H         LINE#         56
  C:C078H         LINE#         57
  C:C07FH         LINE#         58
  C:C087H         LINE#         60
  C:C087H         LINE#         61
  C:C087H         LINE#         62
  C:C087H         LINE#         63
  C:C087H         LINE#         64
  -------         ENDPROC       _DPZC_1
  -------         PROC          YAOBIBAITOU
  -------         DO            
  X:0217H         SYMBOL        i
  X:0218H         SYMBOL        j
  X:0219H         SYMBOL        k
  -------         ENDDO         
  C:8861H         LINE#         71
  C:8861H         LINE#         72
  C:8861H         LINE#         74
  C:8866H         LINE#         75
  C:8866H         LINE#         76
  C:886DH         LINE#         77
  C:8873H         LINE#         79
  C:8878H         LINE#         80
  C:887EH         LINE#         82
  C:8883H         LINE#         83
  C:8888H         LINE#         85
  C:888BH         LINE#         86
  C:8892H         LINE#         87
  C:889EH         LINE#         88
  C:88A3H         LINE#         89
  C:88A3H         LINE#         90
  C:88A8H         LINE#         91
  C:88A8H         LINE#         92
  C:88B0H         LINE#         93
  C:88BAH         LINE#         94
  C:88C4H         LINE#         95
  C:88CCH         LINE#         96
  C:88D6H         LINE#         98
  C:88D9H         LINE#         99
  C:88E0H         LINE#         100
  C:88E5H         LINE#         103
  C:88ECH         LINE#         104
  C:88F1H         LINE#         105
  C:88F9H         LINE#         106
  C:88FCH         LINE#         107
  C:8903H         LINE#         108
  C:8908H         LINE#         110
  C:8914H         LINE#         112
BL51 BANKED LINKER/LOCATER V6.22                                                      06/24/2016  11:44:38  PAGE 116


  C:891EH         LINE#         113
  C:8928H         LINE#         114
  C:8932H         LINE#         115
  C:8935H         LINE#         116
  C:893CH         LINE#         117
  C:8941H         LINE#         118
  C:8950H         LINE#         120
  C:8955H         LINE#         121
  C:8955H         LINE#         122
  C:895CH         LINE#         123
  C:8963H         LINE#         124
  C:8967H         LINE#         126
  C:896AH         LINE#         127
  C:8971H         LINE#         129
  C:897DH         LINE#         133
  C:8982H         LINE#         134
  C:8982H         LINE#         135
  C:8989H         LINE#         136
  C:898FH         LINE#         138
  C:8994H         LINE#         139
  C:899AH         LINE#         141
  C:899FH         LINE#         142
  C:89A4H         LINE#         144
  C:89A7H         LINE#         145
  C:89AEH         LINE#         147
  C:89BAH         LINE#         149
  C:89BFH         LINE#         150
  C:89BFH         LINE#         151
  C:89C4H         LINE#         152
  C:89C4H         LINE#         153
  C:89CBH         LINE#         154
  C:89D0H         LINE#         155
  C:89D5H         LINE#         156
  C:89DAH         LINE#         158
  C:89E1H         LINE#         159
  C:89E8H         LINE#         160
  C:89EBH         LINE#         161
  C:89F2H         LINE#         162
  C:89F7H         LINE#         163
  C:8A03H         LINE#         164
  C:8A08H         LINE#         165
  C:8A08H         LINE#         166
  C:8A0FH         LINE#         167
  C:8A14H         LINE#         168
  C:8A19H         LINE#         169
  C:8A1EH         LINE#         171
  C:8A25H         LINE#         172
  C:8A2CH         LINE#         173
  C:8A2FH         LINE#         174
  C:8A36H         LINE#         175
  C:8A3BH         LINE#         176
  C:8A47H         LINE#         178
  C:8A4FH         LINE#         179
  C:8A57H         LINE#         180
  C:8A5FH         LINE#         181
  C:8A67H         LINE#         183
  C:8A6FH         LINE#         184
BL51 BANKED LINKER/LOCATER V6.22                                                      06/24/2016  11:44:38  PAGE 117


  C:8A77H         LINE#         186
  C:8A7AH         LINE#         187
  C:8A81H         LINE#         188
  C:8A86H         LINE#         189
  C:8A95H         LINE#         190
  -------         ENDPROC       YAOBIBAITOU
  -------         PROC          DPZHCH
  -------         DO            
  X:0217H         SYMBOL        i
  X:0218H         SYMBOL        j
  X:0219H         SYMBOL        k
  -------         ENDDO         
  C:B026H         LINE#         198
  C:B026H         LINE#         199
  C:B026H         LINE#         201
  C:B02BH         LINE#         202
  C:B030H         LINE#         203
  C:B030H         LINE#         204
  C:B037H         LINE#         205
  C:B03EH         LINE#         206
  C:B041H         LINE#         207
  C:B048H         LINE#         208
  C:B054H         LINE#         209
  C:B063H         LINE#         210
  C:B063H         LINE#         211
  C:B068H         LINE#         212
  C:B070H         LINE#         213
  C:B075H         LINE#         214
  C:B075H         LINE#         215
  C:B07BH         LINE#         216
  C:B080H         LINE#         217
  C:B080H         LINE#         218
  C:B086H         LINE#         219
  C:B08BH         LINE#         220
  C:B08FH         LINE#         222
  C:B096H         LINE#         223
  C:B09DH         LINE#         226
  C:B0A0H         LINE#         227
  C:B0AAH         LINE#         229
  C:B0B0H         LINE#         230
  C:B0BCH         LINE#         232
  C:B0C2H         LINE#         233
  C:B0C7H         LINE#         234
  C:B0C7H         LINE#         235
  C:B0CDH         LINE#         236
  C:B0D2H         LINE#         237
  C:B0D6H         LINE#         238
  C:B0DDH         LINE#         239
  C:B0E4H         LINE#         242
  C:B0E7H         LINE#         243
  C:B0F1H         LINE#         245
  C:B0F7H         LINE#         246
  C:B103H         LINE#         247
  C:B112H         LINE#         249
  C:B121H         LINE#         250
  C:B121H         LINE#         251
  C:B12BH         LINE#         252
BL51 BANKED LINKER/LOCATER V6.22                                                      06/24/2016  11:44:38  PAGE 118


  C:B133H         LINE#         253
  C:B138H         LINE#         254
  C:B138H         LINE#         255
  C:B13FH         LINE#         256
  C:B146H         LINE#         257
  C:B149H         LINE#         258
  C:B150H         LINE#         259
  C:B15CH         LINE#         260
  -------         ENDPROC       DPZHCH
  -------         PROC          _SHOU_DD
  X:0217H         SYMBOL        a
  -------         DO            
  X:0218H         SYMBOL        i
  X:0219H         SYMBOL        j
  X:021AH         SYMBOL        m
  -------         ENDDO         
  C:581EH         LINE#         269
  C:5823H         LINE#         270
  C:5823H         LINE#         271
  C:5828H         LINE#         272
  C:582CH         LINE#         273
  C:582CH         LINE#         274
  C:5832H         LINE#         275
  C:5836H         LINE#         276
  C:583CH         LINE#         277
  C:5842H         LINE#         278
  C:5845H         LINE#         279
  C:584CH         LINE#         280
  C:5858H         LINE#         282
  C:585DH         LINE#         283
  C:585DH         LINE#         284
  C:5864H         LINE#         285
  C:5868H         LINE#         286
  C:586BH         LINE#         287
  C:5872H         LINE#         288
  C:587EH         LINE#         290
  C:5885H         LINE#         291
  C:5888H         LINE#         292
  C:588FH         LINE#         294
  C:58A4H         LINE#         295
  C:58A4H         LINE#         296
  C:58B3H         LINE#         297
  C:58B3H         LINE#         298
  C:58B9H         LINE#         300
  C:58BDH         LINE#         301
  C:58BDH         LINE#         302
  C:58C3H         LINE#         303
  C:58C3H         LINE#         305
  C:58C6H         LINE#         306
  C:58CDH         LINE#         307
  C:58D5H         LINE#         309
  C:58E4H         LINE#         310
  C:58E4H         LINE#         311
  C:58EAH         LINE#         312
  C:58EFH         LINE#         314
  C:58F3H         LINE#         315
  C:58F3H         LINE#         316
BL51 BANKED LINKER/LOCATER V6.22                                                      06/24/2016  11:44:38  PAGE 119


  C:58F9H         LINE#         317
  C:58F9H         LINE#         319
  C:58FCH         LINE#         320
  C:5903H         LINE#         321
  C:590BH         LINE#         323
  C:591AH         LINE#         324
  C:591AH         LINE#         325
  C:5920H         LINE#         326
  C:5925H         LINE#         327
  C:5929H         LINE#         328
  C:592EH         LINE#         330
  C:5932H         LINE#         331
  C:5932H         LINE#         332
  C:5936H         LINE#         333
  C:5936H         LINE#         335
  C:5939H         LINE#         336
  C:5940H         LINE#         337
  C:5948H         LINE#         339
  C:5957H         LINE#         340
  C:5957H         LINE#         341
  C:595DH         LINE#         342
  C:5961H         LINE#         344
  C:5965H         LINE#         345
  C:5965H         LINE#         346
  C:5969H         LINE#         347
  C:5969H         LINE#         349
  C:596CH         LINE#         350
  C:5973H         LINE#         351
  C:597BH         LINE#         353
  C:598AH         LINE#         354
  C:598AH         LINE#         355
  C:5990H         LINE#         357
  C:5994H         LINE#         358
  C:5994H         LINE#         359
  C:5998H         LINE#         360
  C:5998H         LINE#         362
  C:599BH         LINE#         363
  C:59A2H         LINE#         364
  C:59AAH         LINE#         366
  C:59B1H         LINE#         367
  C:59B6H         LINE#         368
  C:59B9H         LINE#         369
  C:59C0H         LINE#         372
  C:59CFH         LINE#         373
  C:59CFH         LINE#         374
  C:59D5H         LINE#         376
  C:59D9H         LINE#         377
  C:59D9H         LINE#         378
  C:59DDH         LINE#         379
  C:59DDH         LINE#         381
  C:59E0H         LINE#         382
  C:59E7H         LINE#         383
  C:59EFH         LINE#         385
  C:59FEH         LINE#         386
  C:59FEH         LINE#         387
  C:5A04H         LINE#         388
  C:5A09H         LINE#         390
BL51 BANKED LINKER/LOCATER V6.22                                                      06/24/2016  11:44:38  PAGE 120


  C:5A0DH         LINE#         391
  C:5A0DH         LINE#         392
  C:5A11H         LINE#         393
  C:5A11H         LINE#         395
  C:5A14H         LINE#         396
  C:5A1BH         LINE#         397
  C:5A23H         LINE#         399
  C:5A32H         LINE#         400
  C:5A32H         LINE#         401
  C:5A38H         LINE#         402
  C:5A3DH         LINE#         403
  C:5A43H         LINE#         404
  C:5A48H         LINE#         406
  C:5A4CH         LINE#         407
  C:5A4CH         LINE#         408
  C:5A52H         LINE#         409
  C:5A52H         LINE#         411
  C:5A55H         LINE#         412
  C:5A5CH         LINE#         413
  C:5A64H         LINE#         415
  C:5A73H         LINE#         416
  C:5A73H         LINE#         417
  C:5A79H         LINE#         418
  C:5A7DH         LINE#         420
  C:5A81H         LINE#         421
  C:5A81H         LINE#         422
  C:5A87H         LINE#         423
  C:5A87H         LINE#         425
  C:5A8AH         LINE#         426
  C:5A91H         LINE#         427
  C:5A99H         LINE#         429
  C:5AA8H         LINE#         430
  C:5AA8H         LINE#         431
  C:5AAEH         LINE#         433
  C:5AB2H         LINE#         434
  C:5AB2H         LINE#         435
  C:5AB8H         LINE#         436
  C:5AB8H         LINE#         438
  C:5ABBH         LINE#         439
  C:5AC2H         LINE#         440
  C:5ACAH         LINE#         442
  C:5AD1H         LINE#         443
  C:5AD6H         LINE#         444
  C:5AD9H         LINE#         445
  C:5AE0H         LINE#         446
  C:5AE9H         LINE#         448
  C:5AF0H         LINE#         449
  C:5AF3H         LINE#         450
  C:5AFAH         LINE#         451
  C:5AFFH         LINE#         452
  C:5AFFH         LINE#         453
  C:5B05H         LINE#         454
  C:5B0BH         LINE#         455
  C:5B0EH         LINE#         456
  C:5B15H         LINE#         457
  C:5B21H         LINE#         459
  C:5B3AH         LINE#         460
BL51 BANKED LINKER/LOCATER V6.22                                                      06/24/2016  11:44:38  PAGE 121


  C:5B3AH         LINE#         461
  C:5B40H         LINE#         462
  C:5B44H         LINE#         463
  C:5B47H         LINE#         464
  C:5B4EH         LINE#         465
  C:5B56H         LINE#         467
  C:5B5BH         LINE#         468
  C:5B5BH         LINE#         469
  C:5B62H         LINE#         470
  C:5B66H         LINE#         471
  C:5B69H         LINE#         472
  C:5B70H         LINE#         473
  C:5B7CH         LINE#         474
  -------         ENDPROC       _SHOU_DD
  -------         PROC          _QHZY_NIU_2
  X:0219H         SYMBOL        m
  -------         DO            
  X:021AH         SYMBOL        i
  X:021BH         SYMBOL        j
  -------         ENDDO         
  C:CFE6H         LINE#         476
  C:CFEBH         LINE#         477
  C:CFEBH         LINE#         479
  C:CFFDH         LINE#         480
  C:CFFDH         LINE#         481
  C:D002H         LINE#         482
  C:D002H         LINE#         483
  C:D009H         LINE#         484
  C:D00EH         LINE#         486
  C:D015H         LINE#         487
  C:D01AH         LINE#         489
  C:D01DH         LINE#         490
  C:D024H         LINE#         491
  C:D030H         LINE#         493
  C:D035H         LINE#         494
  C:D035H         LINE#         495
  C:D03CH         LINE#         496
  C:D041H         LINE#         498
  C:D048H         LINE#         499
  C:D04DH         LINE#         500
  C:D050H         LINE#         501
  C:D057H         LINE#         502
  C:D063H         LINE#         503
  C:D06BH         LINE#         504
  -------         ENDPROC       _QHZY_NIU_2
  -------         PROC          QHZY_NIU
  -------         DO            
  X:0217H         SYMBOL        i
  X:0218H         SYMBOL        j
  -------         ENDDO         
  C:94F1H         LINE#         511
  C:94F1H         LINE#         512
  C:94F1H         LINE#         514
  C:94F6H         LINE#         518
  C:94FDH         LINE#         519
  C:9500H         LINE#         520
  C:9507H         LINE#         522
BL51 BANKED LINKER/LOCATER V6.22                                                      06/24/2016  11:44:38  PAGE 122


  C:950CH         LINE#         523
  C:9513H         LINE#         524
  C:9516H         LINE#         525
  C:951DH         LINE#         526
  C:9522H         LINE#         528
  C:9529H         LINE#         529
  C:952CH         LINE#         530
  C:9533H         LINE#         531
  C:9538H         LINE#         533
  C:953FH         LINE#         534
  C:9542H         LINE#         535
  C:9549H         LINE#         536
  C:954EH         LINE#         538
  C:9553H         LINE#         540
  C:955AH         LINE#         541
  C:9561H         LINE#         542
  C:9564H         LINE#         543
  C:956BH         LINE#         544
  C:9570H         LINE#         545
  C:9575H         LINE#         547
  C:957CH         LINE#         548
  C:9583H         LINE#         549
  C:9586H         LINE#         550
  C:958DH         LINE#         551
  C:9592H         LINE#         553
  C:9597H         LINE#         554
  C:9597H         LINE#         555
  C:959CH         LINE#         556
  C:95A1H         LINE#         557
  C:95A6H         LINE#         558
  C:95ABH         LINE#         560
  C:95B7H         LINE#         562
  C:95BEH         LINE#         563
  C:95C1H         LINE#         564
  C:95C8H         LINE#         565
  C:95CDH         LINE#         567
  C:95D4H         LINE#         568
  C:95D7H         LINE#         569
  C:95DEH         LINE#         571
  C:95E3H         LINE#         573
  C:95E8H         LINE#         574
  C:95E8H         LINE#         575
  C:95EDH         LINE#         576
  C:95EDH         LINE#         577
  C:95F3H         LINE#         578
  C:95F7H         LINE#         580
  C:95FBH         LINE#         581
  C:95FFH         LINE#         583
  C:9602H         LINE#         584
  C:9609H         LINE#         586
  C:9615H         LINE#         588
  C:961AH         LINE#         589
  C:961AH         LINE#         590
  C:9620H         LINE#         591
  C:9624H         LINE#         593
  C:9628H         LINE#         594
  C:962CH         LINE#         596
BL51 BANKED LINKER/LOCATER V6.22                                                      06/24/2016  11:44:38  PAGE 123


  C:962FH         LINE#         597
  C:9636H         LINE#         598
  C:9642H         LINE#         600
  C:9647H         LINE#         601
  C:9647H         LINE#         602
  C:964DH         LINE#         603
  C:9651H         LINE#         604
  C:9655H         LINE#         605
  C:9659H         LINE#         607
  C:965CH         LINE#         608
  C:9663H         LINE#         609
  C:966FH         LINE#         611
  C:9674H         LINE#         612
  C:9674H         LINE#         613
  C:967AH         LINE#         614
  C:967EH         LINE#         615
  C:9682H         LINE#         616
  C:9686H         LINE#         618
  C:9689H         LINE#         619
  C:9690H         LINE#         620
  C:969CH         LINE#         621
  C:96ABH         LINE#         623
  C:96BAH         LINE#         624
  C:96BAH         LINE#         625
  C:96C0H         LINE#         626
  C:96C4H         LINE#         627
  C:96CAH         LINE#         628
  C:96D0H         LINE#         629
  C:96D9H         LINE#         630
  C:96D9H         LINE#         631
  C:96DFH         LINE#         632
  C:96E5H         LINE#         633
  C:96E5H         LINE#         635
  C:96E8H         LINE#         636
  C:96EFH         LINE#         637
  C:96F7H         LINE#         638
  -------         ENDPROC       QHZY_NIU
  -------         PROC          HFH_R
  -------         DO            
  X:0217H         SYMBOL        i
  X:0218H         SYMBOL        j
  -------         ENDDO         
  C:9EC4H         LINE#         647
  C:9EC4H         LINE#         648
  C:9EC4H         LINE#         649
  C:9EC9H         LINE#         650
  C:9EC9H         LINE#         651
  C:9ECFH         LINE#         652
  C:9ED3H         LINE#         653
  C:9ED6H         LINE#         654
  C:9EDDH         LINE#         655
  C:9EE9H         LINE#         656
  C:9EEEH         LINE#         657
  C:9EEEH         LINE#         658
  C:9EF5H         LINE#         659
  C:9EFCH         LINE#         660
  C:9EFFH         LINE#         661
BL51 BANKED LINKER/LOCATER V6.22                                                      06/24/2016  11:44:38  PAGE 124


  C:9F06H         LINE#         662
  C:9F12H         LINE#         663
  C:9F17H         LINE#         664
  C:9F1CH         LINE#         665
  C:9F21H         LINE#         666
  C:9F21H         LINE#         667
  C:9F28H         LINE#         668
  C:9F2DH         LINE#         669
  C:9F34H         LINE#         670
  C:9F3BH         LINE#         671
  C:9F3EH         LINE#         672
  C:9F45H         LINE#         673
  C:9F51H         LINE#         674
  C:9F56H         LINE#         675
  C:9F56H         LINE#         676
  C:9F5CH         LINE#         677
  C:9F61H         LINE#         678
  C:9F65H         LINE#         679
  C:9F6AH         LINE#         680
  C:9F6FH         LINE#         681
  C:9F74H         LINE#         682
  C:9F79H         LINE#         683
  C:9F7EH         LINE#         684
  C:9F85H         LINE#         685
  C:9F8AH         LINE#         686
  C:9F8FH         LINE#         687
  C:9F94H         LINE#         688
  C:9F99H         LINE#         689
  C:9F9EH         LINE#         690
  C:9FA3H         LINE#         691
  C:9FA6H         LINE#         692
  C:9FADH         LINE#         693
  C:9FB2H         LINE#         695
  C:9FBEH         LINE#         696
  C:9FC3H         LINE#         697
  C:9FC8H         LINE#         698
  C:9FC8H         LINE#         699
  C:9FCDH         LINE#         700
  C:9FCDH         LINE#         701
  C:9FD4H         LINE#         702
  C:9FD7H         LINE#         703
  C:9FDEH         LINE#         704
  C:9FEAH         LINE#         705
  C:9FEFH         LINE#         706
  C:9FEFH         LINE#         707
  C:9FF6H         LINE#         708
  C:9FF9H         LINE#         709
  C:A000H         LINE#         710
  C:A00CH         LINE#         711
  C:A018H         LINE#         712
  C:A01DH         LINE#         713
  C:A022H         LINE#         714
  C:A022H         LINE#         715
  C:A028H         LINE#         716
  C:A02DH         LINE#         717
  C:A031H         LINE#         718
  C:A036H         LINE#         719
BL51 BANKED LINKER/LOCATER V6.22                                                      06/24/2016  11:44:38  PAGE 125


  C:A03BH         LINE#         720
  C:A040H         LINE#         721
  C:A045H         LINE#         722
  C:A04AH         LINE#         723
  C:A051H         LINE#         724
  C:A056H         LINE#         725
  C:A05BH         LINE#         726
  C:A060H         LINE#         727
  C:A065H         LINE#         728
  C:A06AH         LINE#         729
  C:A06FH         LINE#         730
  C:A072H         LINE#         731
  C:A079H         LINE#         732
  C:A07EH         LINE#         733
  C:A08AH         LINE#         734
  C:A08FH         LINE#         735
  -------         ENDPROC       HFH_R
  -------         PROC          HFH_L
  -------         DO            
  X:0217H         SYMBOL        i
  X:0218H         SYMBOL        j
  -------         ENDDO         
  C:A092H         LINE#         743
  C:A092H         LINE#         744
  C:A092H         LINE#         746
  C:A097H         LINE#         747
  C:A097H         LINE#         748
  C:A09DH         LINE#         749
  C:A0A1H         LINE#         750
  C:A0A4H         LINE#         751
  C:A0ABH         LINE#         752
  C:A0B7H         LINE#         753
  C:A0BCH         LINE#         754
  C:A0BCH         LINE#         755
  C:A0C3H         LINE#         756
  C:A0CAH         LINE#         757
  C:A0CDH         LINE#         758
  C:A0D4H         LINE#         759
  C:A0E0H         LINE#         760
  C:A0E5H         LINE#         761
  C:A0EAH         LINE#         762
  C:A0EFH         LINE#         763
  C:A0EFH         LINE#         764
  C:A0F6H         LINE#         765
  C:A0FBH         LINE#         766
  C:A102H         LINE#         767
  C:A109H         LINE#         768
  C:A10CH         LINE#         769
  C:A113H         LINE#         770
  C:A11FH         LINE#         771
  C:A124H         LINE#         772
  C:A124H         LINE#         773
  C:A12BH         LINE#         774
  C:A130H         LINE#         775
  C:A135H         LINE#         776
  C:A139H         LINE#         777
  C:A13EH         LINE#         778
BL51 BANKED LINKER/LOCATER V6.22                                                      06/24/2016  11:44:38  PAGE 126


  C:A142H         LINE#         779
  C:A147H         LINE#         780
  C:A14CH         LINE#         781
  C:A151H         LINE#         782
  C:A156H         LINE#         783
  C:A15DH         LINE#         784
  C:A162H         LINE#         785
  C:A167H         LINE#         786
  C:A16CH         LINE#         787
  C:A171H         LINE#         788
  C:A174H         LINE#         789
  C:A17BH         LINE#         790
  C:A180H         LINE#         791
  C:A18CH         LINE#         792
  C:A191H         LINE#         793
  C:A196H         LINE#         794
  C:A196H         LINE#         795
  C:A19BH         LINE#         796
  C:A19BH         LINE#         797
  C:A1A2H         LINE#         798
  C:A1A5H         LINE#         799
  C:A1ACH         LINE#         801
  C:A1B8H         LINE#         802
  C:A1BDH         LINE#         803
  C:A1BDH         LINE#         804
  C:A1C4H         LINE#         805
  C:A1C7H         LINE#         806
  C:A1CEH         LINE#         807
  C:A1DAH         LINE#         808
  C:A1E6H         LINE#         809
  C:A1EBH         LINE#         810
  C:A1F0H         LINE#         811
  C:A1F0H         LINE#         812
  C:A1F7H         LINE#         813
  C:A1FCH         LINE#         814
  C:A201H         LINE#         815
  C:A205H         LINE#         816
  C:A20AH         LINE#         817
  C:A20EH         LINE#         818
  C:A213H         LINE#         819
  C:A218H         LINE#         820
  C:A21DH         LINE#         821
  C:A222H         LINE#         822
  C:A229H         LINE#         823
  C:A22EH         LINE#         824
  C:A233H         LINE#         825
  C:A238H         LINE#         826
  C:A23DH         LINE#         827
  C:A240H         LINE#         828
  C:A247H         LINE#         829
  C:A24CH         LINE#         830
  C:A258H         LINE#         831
  C:A25DH         LINE#         832
  -------         ENDPROC       HFH_L
  -------         PROC          _WDL_PYI
  X:0217H         SYMBOL        step
  -------         DO            
BL51 BANKED LINKER/LOCATER V6.22                                                      06/24/2016  11:44:38  PAGE 127


  X:0218H         SYMBOL        j
  X:0219H         SYMBOL        i
  -------         ENDDO         
  C:A5CAH         LINE#         840
  C:A5CFH         LINE#         841
  C:A5CFH         LINE#         843
  C:A5D4H         LINE#         844
  C:A5D9H         LINE#         845
  C:A5D9H         LINE#         846
  C:A5E0H         LINE#         847
  C:A5E7H         LINE#         848
  C:A5EAH         LINE#         849
  C:A5F1H         LINE#         850
  C:A5FDH         LINE#         851
  C:A602H         LINE#         853
  C:A617H         LINE#         854
  C:A617H         LINE#         855
  C:A61CH         LINE#         856
  C:A61CH         LINE#         857
  C:A622H         LINE#         858
  C:A626H         LINE#         860
  C:A62AH         LINE#         861
  C:A62EH         LINE#         863
  C:A631H         LINE#         864
  C:A638H         LINE#         866
  C:A644H         LINE#         867
  C:A649H         LINE#         868
  C:A649H         LINE#         869
  C:A64FH         LINE#         870
  C:A653H         LINE#         871
  C:A656H         LINE#         872
  C:A65AH         LINE#         873
  C:A660H         LINE#         874
  C:A664H         LINE#         875
  C:A667H         LINE#         876
  C:A66EH         LINE#         877
  C:A67AH         LINE#         879
  C:A67FH         LINE#         880
  C:A67FH         LINE#         881
  C:A685H         LINE#         882
  C:A689H         LINE#         883
  C:A68CH         LINE#         884
  C:A690H         LINE#         885
  C:A696H         LINE#         886
  C:A69AH         LINE#         887
  C:A69DH         LINE#         888
  C:A6A4H         LINE#         889
  C:A6B0H         LINE#         891
  C:A6B5H         LINE#         892
  C:A6B5H         LINE#         893
  C:A6BBH         LINE#         894
  C:A6BFH         LINE#         896
  C:A6C3H         LINE#         897
  C:A6C7H         LINE#         898
  C:A6CAH         LINE#         899
  C:A6D1H         LINE#         900
  C:A6DDH         LINE#         901
BL51 BANKED LINKER/LOCATER V6.22                                                      06/24/2016  11:44:38  PAGE 128


  C:A6E2H         LINE#         902
  C:A6E2H         LINE#         903
  C:A6E8H         LINE#         904
  C:A6ECH         LINE#         905
  C:A6EFH         LINE#         906
  C:A6F6H         LINE#         907
  C:A702H         LINE#         908
  C:A707H         LINE#         909
  C:A707H         LINE#         910
  C:A70DH         LINE#         911
  C:A711H         LINE#         913
  C:A715H         LINE#         914
  C:A719H         LINE#         915
  C:A71CH         LINE#         916
  C:A723H         LINE#         917
  C:A72FH         LINE#         918
  C:A738H         LINE#         919
  C:A73DH         LINE#         920
  C:A742H         LINE#         921
  C:A742H         LINE#         922
  C:A749H         LINE#         923
  C:A750H         LINE#         924
  C:A753H         LINE#         925
  C:A75AH         LINE#         926
  C:A766H         LINE#         927
  -------         ENDPROC       _WDL_PYI
  -------         PROC          _WDR_PYI
  X:0217H         SYMBOL        step
  -------         DO            
  X:0218H         SYMBOL        j
  X:0219H         SYMBOL        i
  -------         ENDDO         
  C:A76BH         LINE#         936
  C:A770H         LINE#         937
  C:A770H         LINE#         940
  C:A775H         LINE#         941
  C:A77AH         LINE#         942
  C:A77AH         LINE#         943
  C:A781H         LINE#         944
  C:A788H         LINE#         945
  C:A78BH         LINE#         946
  C:A792H         LINE#         947
  C:A79EH         LINE#         948
  C:A7A3H         LINE#         950
  C:A7B8H         LINE#         951
  C:A7B8H         LINE#         952
  C:A7BDH         LINE#         953
  C:A7BDH         LINE#         954
  C:A7C3H         LINE#         955
  C:A7C7H         LINE#         957
  C:A7CBH         LINE#         958
  C:A7CFH         LINE#         960
  C:A7D2H         LINE#         961
  C:A7D9H         LINE#         964
  C:A7E5H         LINE#         965
  C:A7EAH         LINE#         966
  C:A7EAH         LINE#         967
BL51 BANKED LINKER/LOCATER V6.22                                                      06/24/2016  11:44:38  PAGE 129


  C:A7F0H         LINE#         968
  C:A7F4H         LINE#         969
  C:A7F7H         LINE#         970
  C:A7FBH         LINE#         971
  C:A801H         LINE#         972
  C:A805H         LINE#         974
  C:A808H         LINE#         975
  C:A80FH         LINE#         976
  C:A81BH         LINE#         978
  C:A820H         LINE#         979
  C:A820H         LINE#         980
  C:A826H         LINE#         981
  C:A82AH         LINE#         982
  C:A82DH         LINE#         983
  C:A831H         LINE#         984
  C:A837H         LINE#         985
  C:A83BH         LINE#         987
  C:A83EH         LINE#         988
  C:A845H         LINE#         989
  C:A851H         LINE#         991
  C:A856H         LINE#         992
  C:A856H         LINE#         993
  C:A85CH         LINE#         994
  C:A860H         LINE#         996
  C:A864H         LINE#         997
  C:A868H         LINE#         998
  C:A86BH         LINE#         999
  C:A872H         LINE#         1001
  C:A87EH         LINE#         1002
  C:A883H         LINE#         1003
  C:A883H         LINE#         1004
  C:A889H         LINE#         1005
  C:A88DH         LINE#         1006
  C:A890H         LINE#         1007
  C:A897H         LINE#         1009
  C:A8A3H         LINE#         1010
  C:A8A8H         LINE#         1011
  C:A8A8H         LINE#         1012
  C:A8AEH         LINE#         1013
  C:A8B2H         LINE#         1015
  C:A8B6H         LINE#         1016
  C:A8BAH         LINE#         1018
  C:A8BDH         LINE#         1019
  C:A8C4H         LINE#         1020
  C:A8D0H         LINE#         1021
  C:A8D9H         LINE#         1022
  C:A8DEH         LINE#         1023
  C:A8E3H         LINE#         1024
  C:A8E3H         LINE#         1025
  C:A8EAH         LINE#         1026
  C:A8F1H         LINE#         1027
  C:A8F4H         LINE#         1028
  C:A8FBH         LINE#         1029
  C:A907H         LINE#         1030
  -------         ENDPROC       _WDR_PYI
  -------         PROC          JIEWU
  C:C335H         LINE#         1040
BL51 BANKED LINKER/LOCATER V6.22                                                      06/24/2016  11:44:38  PAGE 130


  C:C335H         LINE#         1041
  C:C338H         LINE#         1042
  C:C33DH         LINE#         1043
  C:C340H         LINE#         1044
  C:C345H         LINE#         1045
  C:C348H         LINE#         1046
  C:C34DH         LINE#         1047
  C:C352H         LINE#         1048
  C:C357H         LINE#         1049
  C:C35AH         LINE#         1050
  C:C35FH         LINE#         1051
  C:C39BH         LINE#         1052
  C:C39BH         LINE#         1053
  C:C39BH         LINE#         1054
  C:C39BH         LINE#         1055
  C:C39BH         LINE#         1056
  C:C39BH         LINE#         1057
  C:C3A0H         LINE#         1058
  C:C3A5H         LINE#         1059
  C:C3AAH         LINE#         1060
  C:C3AFH         LINE#         1061
  C:C3B2H         LINE#         1062
  C:C3B7H         LINE#         1063
  C:C3BCH         LINE#         1064
  C:C3BCH         LINE#         1065
  C:C3BEH         LINE#         1066
  C:C3BEH         LINE#         1067
  C:C3BEH         LINE#         1068
  C:C3BEH         LINE#         1069
  C:C3BEH         LINE#         1070
  C:C3BEH         LINE#         1071
  C:C3BEH         LINE#         1072
  C:C3C3H         LINE#         1073
  C:C3C8H         LINE#         1074
  C:C3CDH         LINE#         1075
  C:C3D2H         LINE#         1076
  C:C3D5H         LINE#         1077
  C:C3DAH         LINE#         1078
  C:C3DFH         LINE#         1079
  C:C3E4H         LINE#         1080
  C:C3E4H         LINE#         1081
  C:C3E4H         LINE#         1082
  C:C3E4H         LINE#         1084
  C:C3E4H         LINE#         1085
  C:C3E7H         LINE#         1086
  C:C3ECH         LINE#         1088
  C:C3EFH         LINE#         1089
  C:C3F4H         LINE#         1091
  C:C3F7H         LINE#         1092
  C:C3FCH         LINE#         1093
  C:C3FFH         LINE#         1094
  -------         ENDPROC       JIEWU
  -------         ENDMOD        JIEWU

  -------         MODULE        TICAO
  C:0000H         SYMBOL        _ICE_DUMMY_
  C:CB63H         PUBLIC        ticao
BL51 BANKED LINKER/LOCATER V6.22                                                      06/24/2016  11:44:38  PAGE 131


  C:AD86H         PUBLIC        cs_xd_right
  C:AC27H         PUBLIC        cs_xd_left
  C:40F2H         PUBLIC        xq_td
  C:98F4H         PUBLIC        py_ss_right
  C:96FCH         PUBLIC        py_ss_left
  C:9AECH         PUBLIC        shenzhan
  C:6559H         PUBLIC        tice_yd
  C:C088H         PUBLIC        kuoxiong
  -------         PROC          XQ_TD
  -------         DO            
  X:0217H         SYMBOL        j
  X:0218H         SYMBOL        i
  -------         ENDDO         
  C:40F2H         LINE#         13
  C:40F2H         LINE#         14
  C:40F2H         LINE#         15
  C:40F7H         LINE#         16
  C:40F7H         LINE#         17
  C:40FEH         LINE#         18
  C:4105H         LINE#         19
  C:410BH         LINE#         20
  C:4111H         LINE#         21
  C:4115H         LINE#         22
  C:4119H         LINE#         23
  C:4120H         LINE#         24
  C:4125H         LINE#         25
  C:412AH         LINE#         26
  C:412FH         LINE#         27
  C:4132H         LINE#         28
  C:4139H         LINE#         29
  C:4145H         LINE#         31
  C:414AH         LINE#         32
  C:414AH         LINE#         33
  C:4151H         LINE#         34
  C:4158H         LINE#         35
  C:415DH         LINE#         36
  C:4160H         LINE#         37
  C:4167H         LINE#         38
  C:4173H         LINE#         39
  C:4178H         LINE#         40
  C:4178H         LINE#         41
  C:417DH         LINE#         42
  C:417DH         LINE#         43
  C:4184H         LINE#         44
  C:418BH         LINE#         45
  C:4190H         LINE#         46
  C:4193H         LINE#         47
  C:419AH         LINE#         48
  C:41A6H         LINE#         49
  C:41ABH         LINE#         50
  C:41B0H         LINE#         51
  C:41B0H         LINE#         52
  C:41B7H         LINE#         53
  C:41BEH         LINE#         54
  C:41C3H         LINE#         55
  C:41C6H         LINE#         56
  C:41CDH         LINE#         57
BL51 BANKED LINKER/LOCATER V6.22                                                      06/24/2016  11:44:38  PAGE 132


  C:41D9H         LINE#         58
  C:41E5H         LINE#         59
  C:41EAH         LINE#         60
  C:41EAH         LINE#         61
  C:41F1H         LINE#         62
  C:41F8H         LINE#         63
  C:41FDH         LINE#         64
  C:4200H         LINE#         65
  C:4207H         LINE#         66
  C:4213H         LINE#         68
  C:4218H         LINE#         69
  C:4218H         LINE#         70
  C:421FH         LINE#         71
  C:4226H         LINE#         72
  C:422CH         LINE#         73
  C:4232H         LINE#         74
  C:4235H         LINE#         75
  C:423CH         LINE#         76
  C:424DH         LINE#         77
  C:4252H         LINE#         78
  C:4257H         LINE#         79
  C:4257H         LINE#         80
  C:425EH         LINE#         81
  C:4263H         LINE#         82
  C:4269H         LINE#         83
  C:426FH         LINE#         84
  C:4272H         LINE#         85
  C:4279H         LINE#         86
  C:4285H         LINE#         87
  C:428AH         LINE#         88
  C:428AH         LINE#         89
  C:428FH         LINE#         90
  C:428FH         LINE#         91
  C:4296H         LINE#         92
  C:429DH         LINE#         93
  C:42A1H         LINE#         94
  C:42A4H         LINE#         95
  C:42ABH         LINE#         96
  C:42B7H         LINE#         97
  C:42BCH         LINE#         98
  C:42BCH         LINE#         99
  C:42C3H         LINE#         100
  C:42CAH         LINE#         101
  C:42CEH         LINE#         102
  C:42D1H         LINE#         103
  C:42D8H         LINE#         104
  C:42E4H         LINE#         105
  C:42F0H         LINE#         106
  C:42F5H         LINE#         108
  C:42FAH         LINE#         109
  C:42FAH         LINE#         110
  C:4300H         LINE#         111
  C:4304H         LINE#         112
  C:4308H         LINE#         113
  C:430CH         LINE#         114
  C:4310H         LINE#         115
  C:4316H         LINE#         116
BL51 BANKED LINKER/LOCATER V6.22                                                      06/24/2016  11:44:38  PAGE 133


  C:4319H         LINE#         117
  C:4320H         LINE#         118
  C:432CH         LINE#         119
  C:4331H         LINE#         120
  C:4331H         LINE#         121
  C:4336H         LINE#         122
  C:4336H         LINE#         123
  C:433CH         LINE#         124
  C:4340H         LINE#         125
  C:4344H         LINE#         126
  C:4348H         LINE#         127
  C:434CH         LINE#         128
  C:4352H         LINE#         129
  C:4355H         LINE#         130
  C:435CH         LINE#         131
  C:4368H         LINE#         132
  C:436DH         LINE#         133
  C:436DH         LINE#         134
  C:4373H         LINE#         135
  C:4377H         LINE#         136
  C:437BH         LINE#         137
  C:437FH         LINE#         138
  C:4383H         LINE#         139
  C:4389H         LINE#         140
  C:438CH         LINE#         141
  C:4393H         LINE#         142
  C:439FH         LINE#         143
  C:43ABH         LINE#         144
  C:43B0H         LINE#         145
  C:43B0H         LINE#         146
  C:43B6H         LINE#         147
  C:43BAH         LINE#         148
  C:43BEH         LINE#         149
  C:43C2H         LINE#         150
  C:43C6H         LINE#         151
  C:43CCH         LINE#         152
  C:43CFH         LINE#         153
  C:43D6H         LINE#         154
  C:43E2H         LINE#         155
  C:43E7H         LINE#         156
  C:43E7H         LINE#         157
  C:43EEH         LINE#         158
  C:43F3H         LINE#         159
  C:43FAH         LINE#         160
  C:4401H         LINE#         161
  C:4404H         LINE#         162
  C:440BH         LINE#         163
  C:4417H         LINE#         164
  C:441CH         LINE#         165
  C:4421H         LINE#         166
  C:4421H         LINE#         167
  C:4426H         LINE#         168
  C:4426H         LINE#         169
  C:442DH         LINE#         170
  C:4434H         LINE#         171
  C:4439H         LINE#         172
  C:443EH         LINE#         173
BL51 BANKED LINKER/LOCATER V6.22                                                      06/24/2016  11:44:38  PAGE 134


  C:4443H         LINE#         174
  C:4448H         LINE#         175
  C:444BH         LINE#         176
  C:4452H         LINE#         177
  C:445EH         LINE#         178
  C:4463H         LINE#         179
  C:4463H         LINE#         180
  C:446AH         LINE#         181
  C:4471H         LINE#         182
  C:4476H         LINE#         183
  C:447BH         LINE#         184
  C:4480H         LINE#         185
  C:4485H         LINE#         186
  C:4488H         LINE#         187
  C:448FH         LINE#         188
  C:449BH         LINE#         189
  C:44A0H         LINE#         190
  C:44AFH         LINE#         191
  C:44BEH         LINE#         192
  C:44F6H         LINE#         193
  C:4501H         LINE#         195
  C:4506H         LINE#         196
  -------         ENDPROC       XQ_TD
  -------         PROC          CS_XD_LEFT
  -------         DO            
  X:0217H         SYMBOL        i
  -------         ENDDO         
  C:AC27H         LINE#         204
  C:AC27H         LINE#         205
  C:AC27H         LINE#         207
  C:AC2CH         LINE#         208
  C:AC2CH         LINE#         209
  C:AC33H         LINE#         210
  C:AC3AH         LINE#         211
  C:AC3DH         LINE#         212
  C:AC44H         LINE#         213
  C:AC50H         LINE#         215
  C:AC55H         LINE#         216
  C:AC55H         LINE#         217
  C:AC5BH         LINE#         218
  C:AC5FH         LINE#         220
  C:AC63H         LINE#         221
  C:AC67H         LINE#         223
  C:AC6DH         LINE#         225
  C:AC70H         LINE#         226
  C:AC77H         LINE#         227
  C:AC83H         LINE#         228
  C:AC92H         LINE#         229
  C:AC92H         LINE#         230
  C:AC98H         LINE#         231
  C:AC9DH         LINE#         232
  C:ACA1H         LINE#         236
  C:ACA5H         LINE#         237
  C:ACABH         LINE#         238
  C:ACB1H         LINE#         239
  C:ACB5H         LINE#         240
  C:ACB5H         LINE#         242
BL51 BANKED LINKER/LOCATER V6.22                                                      06/24/2016  11:44:38  PAGE 135


  C:ACBAH         LINE#         243
  C:ACBAH         LINE#         244
  C:ACC0H         LINE#         245
  C:ACC4H         LINE#         246
  C:ACC4H         LINE#         248
  C:ACC7H         LINE#         249
  C:ACCEH         LINE#         250
  C:ACD6H         LINE#         253
  C:ACE5H         LINE#         254
  C:ACE5H         LINE#         255
  C:ACEBH         LINE#         256
  C:ACF0H         LINE#         257
  C:ACF4H         LINE#         259
  C:ACF8H         LINE#         260
  C:ACFEH         LINE#         261
  C:AD04H         LINE#         262
  C:AD08H         LINE#         263
  C:AD08H         LINE#         265
  C:AD0DH         LINE#         266
  C:AD0DH         LINE#         267
  C:AD13H         LINE#         268
  C:AD17H         LINE#         269
  C:AD17H         LINE#         271
  C:AD1AH         LINE#         272
  C:AD21H         LINE#         273
  C:AD29H         LINE#         275
  C:AD2EH         LINE#         276
  C:AD2EH         LINE#         277
  C:AD34H         LINE#         278
  C:AD38H         LINE#         280
  C:AD3CH         LINE#         281
  C:AD40H         LINE#         283
  C:AD46H         LINE#         285
  C:AD49H         LINE#         286
  C:AD50H         LINE#         288
  C:AD5CH         LINE#         290
  C:AD61H         LINE#         291
  C:AD61H         LINE#         292
  C:AD68H         LINE#         293
  C:AD6FH         LINE#         294
  C:AD72H         LINE#         295
  C:AD79H         LINE#         296
  C:AD85H         LINE#         297
  -------         ENDPROC       CS_XD_LEFT
  -------         PROC          CS_XD_RIGHT
  -------         DO            
  X:0217H         SYMBOL        i
  -------         ENDDO         
  C:AD86H         LINE#         305
  C:AD86H         LINE#         306
  C:AD86H         LINE#         308
  C:AD8BH         LINE#         309
  C:AD8BH         LINE#         310
  C:AD92H         LINE#         311
  C:AD99H         LINE#         313
  C:AD9CH         LINE#         314
  C:ADA3H         LINE#         316
BL51 BANKED LINKER/LOCATER V6.22                                                      06/24/2016  11:44:38  PAGE 136


  C:ADAFH         LINE#         318
  C:ADB4H         LINE#         319
  C:ADB4H         LINE#         320
  C:ADBAH         LINE#         321
  C:ADBEH         LINE#         323
  C:ADC2H         LINE#         324
  C:ADC6H         LINE#         326
  C:ADCCH         LINE#         328
  C:ADCFH         LINE#         329
  C:ADD6H         LINE#         331
  C:ADE2H         LINE#         332
  C:ADF1H         LINE#         333
  C:ADF1H         LINE#         334
  C:ADF7H         LINE#         335
  C:ADFCH         LINE#         336
  C:AE00H         LINE#         340
  C:AE04H         LINE#         341
  C:AE0AH         LINE#         342
  C:AE10H         LINE#         343
  C:AE14H         LINE#         344
  C:AE14H         LINE#         346
  C:AE19H         LINE#         347
  C:AE19H         LINE#         348
  C:AE1FH         LINE#         349
  C:AE23H         LINE#         350
  C:AE23H         LINE#         352
  C:AE26H         LINE#         353
  C:AE2DH         LINE#         354
  C:AE35H         LINE#         356
  C:AE44H         LINE#         357
  C:AE44H         LINE#         358
  C:AE4AH         LINE#         359
  C:AE4FH         LINE#         360
  C:AE53H         LINE#         362
  C:AE57H         LINE#         363
  C:AE5DH         LINE#         364
  C:AE63H         LINE#         365
  C:AE67H         LINE#         366
  C:AE67H         LINE#         368
  C:AE6CH         LINE#         369
  C:AE6CH         LINE#         370
  C:AE72H         LINE#         371
  C:AE76H         LINE#         372
  C:AE76H         LINE#         374
  C:AE79H         LINE#         375
  C:AE80H         LINE#         376
  C:AE88H         LINE#         377
  C:AE8DH         LINE#         378
  C:AE8DH         LINE#         379
  C:AE93H         LINE#         380
  C:AE97H         LINE#         382
  C:AE9BH         LINE#         383
  C:AE9FH         LINE#         385
  C:AEA5H         LINE#         387
  C:AEA8H         LINE#         388
  C:AEAFH         LINE#         390
  C:AEBBH         LINE#         392
BL51 BANKED LINKER/LOCATER V6.22                                                      06/24/2016  11:44:38  PAGE 137


  C:AEC0H         LINE#         393
  C:AEC0H         LINE#         394
  C:AEC7H         LINE#         395
  C:AECEH         LINE#         397
  C:AED1H         LINE#         398
  C:AED8H         LINE#         400
  C:AEE4H         LINE#         401
  -------         ENDPROC       CS_XD_RIGHT
  -------         PROC          PY_SS_LEFT
  -------         DO            
  X:0217H         SYMBOL        i
  X:0218H         SYMBOL        j
  -------         ENDDO         
  C:96FCH         LINE#         410
  C:96FCH         LINE#         411
  C:96FCH         LINE#         413
  C:9701H         LINE#         414
  C:9706H         LINE#         415
  C:9706H         LINE#         416
  C:970BH         LINE#         417
  C:970BH         LINE#         418
  C:9711H         LINE#         419
  C:9715H         LINE#         421
  C:9719H         LINE#         422
  C:971DH         LINE#         424
  C:9724H         LINE#         425
  C:972BH         LINE#         426
  C:972EH         LINE#         427
  C:9735H         LINE#         428
  C:9741H         LINE#         429
  C:9746H         LINE#         430
  C:9746H         LINE#         431
  C:974CH         LINE#         432
  C:9751H         LINE#         433
  C:9755H         LINE#         434
  C:975BH         LINE#         435
  C:975FH         LINE#         437
  C:9766H         LINE#         438
  C:976DH         LINE#         440
  C:9770H         LINE#         441
  C:9777H         LINE#         442
  C:9783H         LINE#         444
  C:9788H         LINE#         445
  C:9788H         LINE#         446
  C:978EH         LINE#         447
  C:9793H         LINE#         448
  C:9797H         LINE#         449
  C:979DH         LINE#         450
  C:97A1H         LINE#         452
  C:97A8H         LINE#         453
  C:97AFH         LINE#         455
  C:97B2H         LINE#         456
  C:97B9H         LINE#         457
  C:97C5H         LINE#         459
  C:97CAH         LINE#         460
  C:97CAH         LINE#         461
  C:97D0H         LINE#         462
BL51 BANKED LINKER/LOCATER V6.22                                                      06/24/2016  11:44:38  PAGE 138


  C:97D4H         LINE#         464
  C:97D8H         LINE#         465
  C:97DCH         LINE#         467
  C:97E2H         LINE#         468
  C:97E8H         LINE#         470
  C:97EEH         LINE#         471
  C:97F4H         LINE#         473
  C:97F7H         LINE#         474
  C:97FEH         LINE#         475
  C:980AH         LINE#         476
  C:980FH         LINE#         477
  C:980FH         LINE#         478
  C:9815H         LINE#         479
  C:9819H         LINE#         481
  C:9820H         LINE#         482
  C:9827H         LINE#         484
  C:982EH         LINE#         485
  C:9835H         LINE#         487
  C:9838H         LINE#         488
  C:983FH         LINE#         489
  C:984BH         LINE#         490
  C:985AH         LINE#         491
  C:985AH         LINE#         492
  C:9860H         LINE#         493
  C:9864H         LINE#         495
  C:9868H         LINE#         496
  C:986CH         LINE#         498
  C:9872H         LINE#         499
  C:9878H         LINE#         501
  C:987EH         LINE#         502
  C:9884H         LINE#         504
  C:988DH         LINE#         505
  C:988DH         LINE#         506
  C:9893H         LINE#         507
  C:9899H         LINE#         509
  C:989FH         LINE#         510
  C:98A5H         LINE#         511
  C:98A5H         LINE#         513
  C:98A8H         LINE#         514
  C:98AFH         LINE#         515
  C:98B7H         LINE#         518
  C:98BCH         LINE#         519
  C:98BCH         LINE#         520
  C:98C3H         LINE#         521
  C:98CAH         LINE#         522
  C:98CDH         LINE#         523
  C:98D4H         LINE#         524
  C:98E0H         LINE#         526
  C:98EFH         LINE#         527
  -------         ENDPROC       PY_SS_LEFT
  -------         PROC          PY_SS_RIGHT
  -------         DO            
  X:0217H         SYMBOL        i
  X:0218H         SYMBOL        j
  -------         ENDDO         
  C:98F4H         LINE#         535
  C:98F4H         LINE#         536
BL51 BANKED LINKER/LOCATER V6.22                                                      06/24/2016  11:44:38  PAGE 139


  C:98F4H         LINE#         537
  C:98F9H         LINE#         539
  C:98FEH         LINE#         540
  C:98FEH         LINE#         541
  C:9903H         LINE#         542
  C:9903H         LINE#         543
  C:9909H         LINE#         544
  C:990DH         LINE#         546
  C:9911H         LINE#         547
  C:9915H         LINE#         549
  C:991CH         LINE#         550
  C:9923H         LINE#         551
  C:9926H         LINE#         552
  C:992DH         LINE#         553
  C:9939H         LINE#         554
  C:993EH         LINE#         555
  C:993EH         LINE#         556
  C:9944H         LINE#         557
  C:9949H         LINE#         558
  C:994DH         LINE#         559
  C:9953H         LINE#         560
  C:9957H         LINE#         562
  C:995EH         LINE#         563
  C:9965H         LINE#         565
  C:9968H         LINE#         566
  C:996FH         LINE#         567
  C:997BH         LINE#         569
  C:9980H         LINE#         570
  C:9980H         LINE#         571
  C:9986H         LINE#         572
  C:998BH         LINE#         573
  C:998FH         LINE#         574
  C:9995H         LINE#         575
  C:9999H         LINE#         577
  C:99A0H         LINE#         578
  C:99A7H         LINE#         580
  C:99AAH         LINE#         581
  C:99B1H         LINE#         582
  C:99BDH         LINE#         584
  C:99C2H         LINE#         585
  C:99C2H         LINE#         586
  C:99C8H         LINE#         587
  C:99CCH         LINE#         589
  C:99D0H         LINE#         590
  C:99D4H         LINE#         592
  C:99DAH         LINE#         593
  C:99E0H         LINE#         595
  C:99E6H         LINE#         596
  C:99ECH         LINE#         598
  C:99EFH         LINE#         599
  C:99F6H         LINE#         600
  C:9A02H         LINE#         601
  C:9A07H         LINE#         602
  C:9A07H         LINE#         603
  C:9A0DH         LINE#         604
  C:9A11H         LINE#         606
  C:9A18H         LINE#         607
BL51 BANKED LINKER/LOCATER V6.22                                                      06/24/2016  11:44:38  PAGE 140


  C:9A1FH         LINE#         609
  C:9A26H         LINE#         610
  C:9A2DH         LINE#         612
  C:9A30H         LINE#         613
  C:9A37H         LINE#         614
  C:9A43H         LINE#         615
  C:9A52H         LINE#         616
  C:9A52H         LINE#         617
  C:9A58H         LINE#         618
  C:9A5CH         LINE#         620
  C:9A60H         LINE#         621
  C:9A64H         LINE#         623
  C:9A6AH         LINE#         624
  C:9A70H         LINE#         626
  C:9A76H         LINE#         627
  C:9A7CH         LINE#         629
  C:9A85H         LINE#         630
  C:9A85H         LINE#         631
  C:9A8BH         LINE#         632
  C:9A91H         LINE#         634
  C:9A97H         LINE#         635
  C:9A9DH         LINE#         636
  C:9A9DH         LINE#         638
  C:9AA0H         LINE#         639
  C:9AA7H         LINE#         640
  C:9AAFH         LINE#         643
  C:9AB4H         LINE#         644
  C:9AB4H         LINE#         645
  C:9ABBH         LINE#         646
  C:9AC2H         LINE#         647
  C:9AC5H         LINE#         648
  C:9ACCH         LINE#         649
  C:9AD8H         LINE#         651
  C:9AE7H         LINE#         652
  -------         ENDPROC       PY_SS_RIGHT
  -------         PROC          TICE_YD
  -------         DO            
  X:0217H         SYMBOL        i
  X:0218H         SYMBOL        j
  -------         ENDDO         
  C:6559H         LINE#         661
  C:6559H         LINE#         662
  C:6559H         LINE#         665
  C:6563H         LINE#         666
  C:656DH         LINE#         667
  C:6570H         LINE#         668
  C:6577H         LINE#         669
  C:657CH         LINE#         671
  C:6586H         LINE#         672
  C:6589H         LINE#         673
  C:6590H         LINE#         674
  C:6595H         LINE#         676
  C:65A4H         LINE#         677
  C:65A4H         LINE#         678
  C:65AAH         LINE#         679
  C:65AEH         LINE#         680
  C:65B2H         LINE#         682
BL51 BANKED LINKER/LOCATER V6.22                                                      06/24/2016  11:44:38  PAGE 141


  C:65B7H         LINE#         683
  C:65B7H         LINE#         684
  C:65BDH         LINE#         685
  C:65C1H         LINE#         686
  C:65C5H         LINE#         687
  C:65C9H         LINE#         688
  C:65C9H         LINE#         689
  C:65CCH         LINE#         690
  C:65D3H         LINE#         691
  C:65DBH         LINE#         693
  C:65E0H         LINE#         694
  C:65E0H         LINE#         695
  C:65E5H         LINE#         696
  C:65E5H         LINE#         697
  C:65EBH         LINE#         698
  C:65F0H         LINE#         699
  C:65F3H         LINE#         700
  C:65FAH         LINE#         701
  C:6606H         LINE#         703
  C:660BH         LINE#         704
  C:660BH         LINE#         705
  C:6611H         LINE#         706
  C:6616H         LINE#         707
  C:6619H         LINE#         708
  C:6620H         LINE#         709
  C:662CH         LINE#         710
  C:6638H         LINE#         712
  C:6647H         LINE#         713
  C:6647H         LINE#         714
  C:664DH         LINE#         715
  C:6651H         LINE#         716
  C:6655H         LINE#         718
  C:665AH         LINE#         719
  C:665AH         LINE#         720
  C:6660H         LINE#         721
  C:6664H         LINE#         722
  C:6668H         LINE#         723
  C:666CH         LINE#         724
  C:666CH         LINE#         725
  C:666FH         LINE#         726
  C:6676H         LINE#         727
  C:667EH         LINE#         729
  C:6688H         LINE#         730
  C:6692H         LINE#         731
  C:6695H         LINE#         732
  C:669CH         LINE#         733
  C:66A1H         LINE#         735
  C:66B0H         LINE#         736
  C:66B0H         LINE#         737
  C:66B6H         LINE#         738
  C:66BAH         LINE#         739
  C:66C0H         LINE#         741
  C:66C5H         LINE#         742
  C:66C5H         LINE#         743
  C:66CBH         LINE#         744
  C:66CFH         LINE#         745
  C:66D3H         LINE#         746
BL51 BANKED LINKER/LOCATER V6.22                                                      06/24/2016  11:44:38  PAGE 142


  C:66D7H         LINE#         747
  C:66D7H         LINE#         748
  C:66DAH         LINE#         749
  C:66E1H         LINE#         750
  C:66E9H         LINE#         751
  C:66EEH         LINE#         752
  C:66EEH         LINE#         753
  C:66F3H         LINE#         754
  C:66F3H         LINE#         755
  C:66F9H         LINE#         756
  C:66FEH         LINE#         757
  C:6701H         LINE#         758
  C:6708H         LINE#         759
  C:6714H         LINE#         761
  C:6719H         LINE#         762
  C:6719H         LINE#         763
  C:671FH         LINE#         764
  C:6724H         LINE#         765
  C:6727H         LINE#         766
  C:672EH         LINE#         767
  C:673AH         LINE#         768
  C:6746H         LINE#         771
  C:6755H         LINE#         772
  C:6755H         LINE#         773
  C:675BH         LINE#         774
  C:675FH         LINE#         775
  C:6765H         LINE#         777
  C:676AH         LINE#         778
  C:676AH         LINE#         779
  C:6770H         LINE#         780
  C:6774H         LINE#         781
  C:6778H         LINE#         782
  C:677CH         LINE#         783
  C:677CH         LINE#         784
  C:677FH         LINE#         785
  C:6786H         LINE#         786
  C:678EH         LINE#         787
  C:6798H         LINE#         788
  C:679BH         LINE#         789
  C:67A2H         LINE#         790
  C:67A7H         LINE#         793
  C:67ACH         LINE#         794
  C:67ACH         LINE#         795
  C:67B1H         LINE#         796
  C:67B1H         LINE#         797
  C:67B8H         LINE#         798
  C:67BDH         LINE#         799
  C:67C2H         LINE#         800
  C:67C7H         LINE#         801
  C:67CAH         LINE#         802
  C:67D1H         LINE#         803
  C:67DDH         LINE#         806
  C:67E2H         LINE#         807
  C:67E9H         LINE#         808
  C:67EEH         LINE#         809
  C:67F3H         LINE#         810
  C:67F8H         LINE#         811
BL51 BANKED LINKER/LOCATER V6.22                                                      06/24/2016  11:44:38  PAGE 143


  C:67FBH         LINE#         812
  C:6802H         LINE#         813
  C:680EH         LINE#         814
  C:681AH         LINE#         816
  C:681FH         LINE#         818
  C:6827H         LINE#         819
  C:682FH         LINE#         820
  C:6832H         LINE#         821
  C:6839H         LINE#         823
  C:683EH         LINE#         825
  C:6843H         LINE#         826
  C:6843H         LINE#         827
  C:684AH         LINE#         828
  C:6851H         LINE#         829
  C:6854H         LINE#         830
  C:685BH         LINE#         831
  C:6867H         LINE#         832
  -------         ENDPROC       TICE_YD
  -------         PROC          SHENZHAN
  -------         DO            
  X:0217H         SYMBOL        i
  -------         ENDDO         
  C:9AECH         LINE#         840
  C:9AECH         LINE#         841
  C:9AECH         LINE#         842
  C:9AF5H         LINE#         843
  C:9AFFH         LINE#         844
  C:9B08H         LINE#         845
  C:9B12H         LINE#         846
  C:9B1BH         LINE#         848
  C:9B20H         LINE#         849
  C:9B25H         LINE#         850
  C:9B25H         LINE#         851
  C:9B2EH         LINE#         852
  C:9B36H         LINE#         853
  C:9B3DH         LINE#         854
  C:9B45H         LINE#         856
  C:9B4CH         LINE#         857
  C:9B56H         LINE#         859
  C:9B5FH         LINE#         860
  C:9B64H         LINE#         861
  C:9B6EH         LINE#         862
  C:9B75H         LINE#         863
  C:9B7DH         LINE#         864
  C:9B84H         LINE#         866
  C:9B8CH         LINE#         867
  C:9B95H         LINE#         869
  C:9B9EH         LINE#         870
  C:9BA3H         LINE#         871
  C:9BB2H         LINE#         873
  C:9BBCH         LINE#         874
  C:9BC5H         LINE#         875
  C:9BCFH         LINE#         876
  C:9BD8H         LINE#         877
  C:9BE1H         LINE#         878
  C:9BE6H         LINE#         880
  C:9BF0H         LINE#         881
BL51 BANKED LINKER/LOCATER V6.22                                                      06/24/2016  11:44:38  PAGE 144


  C:9BFAH         LINE#         882
  C:9C03H         LINE#         883
  C:9C0CH         LINE#         884
  C:9C15H         LINE#         885
  C:9C1AH         LINE#         886
  C:9C1FH         LINE#         887
  C:9C1FH         LINE#         888
  C:9C29H         LINE#         889
  C:9C30H         LINE#         890
  C:9C38H         LINE#         891
  C:9C3FH         LINE#         893
  C:9C46H         LINE#         894
  C:9C50H         LINE#         895
  C:9C55H         LINE#         896
  C:9C5EH         LINE#         898
  C:9C67H         LINE#         899
  C:9C6FH         LINE#         900
  C:9C76H         LINE#         901
  C:9C7EH         LINE#         903
  C:9C86H         LINE#         904
  C:9C8FH         LINE#         906
  C:9C98H         LINE#         907
  C:9C9DH         LINE#         908
  C:9CACH         LINE#         909
  C:9CB5H         LINE#         910
  C:9CBEH         LINE#         911
  C:9CC8H         LINE#         912
  C:9CD2H         LINE#         913
  C:9CDBH         LINE#         914
  -------         ENDPROC       SHENZHAN
  -------         PROC          KUOXIONG
  -------         DO            
  X:0217H         SYMBOL        i
  -------         ENDDO         
  C:C088H         LINE#         924
  C:C088H         LINE#         925
  C:C088H         LINE#         926
  C:C092H         LINE#         927
  C:C099H         LINE#         928
  C:C0A2H         LINE#         929
  C:C0A7H         LINE#         930
  C:C0B1H         LINE#         931
  C:C0B8H         LINE#         932
  C:C0BFH         LINE#         933
  C:C0C7H         LINE#         934
  C:C0D0H         LINE#         935
  C:C0D5H         LINE#         936
  C:C0DAH         LINE#         937
  C:C0DAH         LINE#         938
  C:C0E3H         LINE#         939
  C:C0EDH         LINE#         940
  C:C0F6H         LINE#         941
  C:C0FBH         LINE#         942
  C:C105H         LINE#         943
  C:C10EH         LINE#         944
  C:C117H         LINE#         945
  C:C11CH         LINE#         946
BL51 BANKED LINKER/LOCATER V6.22                                                      06/24/2016  11:44:38  PAGE 145


  C:C128H         LINE#         947
  C:C131H         LINE#         948
  C:C139H         LINE#         949
  C:C141H         LINE#         950
  C:C148H         LINE#         951
  C:C151H         LINE#         952
  C:C156H         LINE#         953
  C:C15FH         LINE#         954
  C:C167H         LINE#         955
  C:C170H         LINE#         957
  -------         ENDPROC       KUOXIONG
  -------         PROC          TICAO
  C:CB63H         LINE#         965
  C:CB63H         LINE#         966
  C:CB63H         LINE#         968
  C:CB66H         LINE#         969
  C:CB6BH         LINE#         970
  C:CB6EH         LINE#         971
  C:CB73H         LINE#         972
  C:CB76H         LINE#         973
  C:CB7BH         LINE#         974
  C:CBB7H         LINE#         975
  C:CBB7H         LINE#         977
  C:CBB7H         LINE#         978
  C:CBB7H         LINE#         979
  C:CBB7H         LINE#         980
  C:CBB7H         LINE#         981
  C:CBB7H         LINE#         982
  C:CBBAH         LINE#         983
  C:CBBFH         LINE#         984
  C:CBC2H         LINE#         985
  C:CBC7H         LINE#         986
  C:CBCAH         LINE#         987
  C:CBCFH         LINE#         988
  C:CBD2H         LINE#         989
  C:CBD2H         LINE#         990
  C:CBD4H         LINE#         991
  C:CBD4H         LINE#         992
  C:CBD4H         LINE#         993
  C:CBD4H         LINE#         994
  C:CBD4H         LINE#         995
  C:CBD4H         LINE#         996
  C:CBD4H         LINE#         997
  C:CBD7H         LINE#         998
  C:CBDCH         LINE#         999
  C:CBDFH         LINE#         1000
  C:CBE4H         LINE#         1001
  C:CBE7H         LINE#         1002
  C:CBECH         LINE#         1003
  C:CBEFH         LINE#         1004
  C:CBF4H         LINE#         1005
  C:CBF4H         LINE#         1006
  C:CBF4H         LINE#         1007
  C:CBF4H         LINE#         1008
  C:CBF4H         LINE#         1009
  C:CBF7H         LINE#         1010
  C:CBFCH         LINE#         1011
BL51 BANKED LINKER/LOCATER V6.22                                                      06/24/2016  11:44:38  PAGE 146


  C:CBFFH         LINE#         1013
  -------         ENDPROC       TICAO
  -------         ENDMOD        TICAO

  -------         MODULE        QIANSHOU
  C:0000H         SYMBOL        _ICE_DUMMY_
  C:B161H         PUBLIC        qianshou_1
  C:CED3H         PUBLIC        qianshou_2
  C:B75EH         PUBLIC        _qianshou_3
  C:8EC8H         PUBLIC        _qianshou_4
  C:CC97H         PUBLIC        _qianshou_5
  C:8CB8H         PUBLIC        qianshou_6
  C:621BH         PUBLIC        _qianshou_7
  C:BD9BH         PUBLIC        qianshou_8
  C:B639H         PUBLIC        _qianshou_9
  C:90D6H         PUBLIC        _qianshou_10
  C:C71BH         PUBLIC        qianshou
  -------         PROC          QIANSHOU_1
  -------         DO            
  X:0218H         SYMBOL        j
  -------         ENDDO         
  C:B161H         LINE#         14
  C:B161H         LINE#         15
  C:B161H         LINE#         17
  C:B166H         LINE#         18
  C:B166H         LINE#         19
  C:B16DH         LINE#         20
  C:B170H         LINE#         21
  C:B177H         LINE#         22
  C:B183H         LINE#         23
  C:B186H         LINE#         24
  C:B18BH         LINE#         26
  C:B190H         LINE#         27
  C:B190H         LINE#         28
  C:B197H         LINE#         29
  C:B19AH         LINE#         30
  C:B1A1H         LINE#         31
  C:B1ADH         LINE#         32
  C:B1B2H         LINE#         35
  C:B1B7H         LINE#         36
  C:B1B7H         LINE#         37
  C:B1BEH         LINE#         38
  C:B1C1H         LINE#         39
  C:B1C8H         LINE#         40
  C:B1D4H         LINE#         41
  C:B1D9H         LINE#         43
  C:B1DEH         LINE#         44
  C:B1DEH         LINE#         45
  C:B1E5H         LINE#         46
  C:B1E8H         LINE#         47
  C:B1EFH         LINE#         48
  C:B1FBH         LINE#         49
  C:B200H         LINE#         52
  C:B205H         LINE#         53
  C:B205H         LINE#         54
  C:B20CH         LINE#         55
  C:B20FH         LINE#         56
BL51 BANKED LINKER/LOCATER V6.22                                                      06/24/2016  11:44:38  PAGE 147


  C:B216H         LINE#         57
  C:B222H         LINE#         58
  C:B227H         LINE#         60
  C:B22CH         LINE#         61
  C:B22CH         LINE#         62
  C:B233H         LINE#         63
  C:B236H         LINE#         64
  C:B23DH         LINE#         65
  C:B249H         LINE#         66
  C:B24EH         LINE#         69
  C:B253H         LINE#         70
  C:B253H         LINE#         71
  C:B25AH         LINE#         72
  C:B25DH         LINE#         73
  C:B264H         LINE#         74
  C:B270H         LINE#         75
  C:B275H         LINE#         77
  C:B27AH         LINE#         78
  C:B27AH         LINE#         79
  C:B281H         LINE#         80
  C:B284H         LINE#         81
  C:B28BH         LINE#         82
  C:B297H         LINE#         83
  -------         ENDPROC       QIANSHOU_1
  -------         PROC          QIANSHOU_2
  -------         DO            
  X:0218H         SYMBOL        j
  -------         ENDDO         
  C:CED3H         LINE#         91
  C:CED3H         LINE#         92
  C:CED3H         LINE#         95
  C:CED6H         LINE#         96
  C:CEDBH         LINE#         97
  C:CEDBH         LINE#         98
  C:CEE1H         LINE#         99
  C:CEE4H         LINE#         100
  C:CEEBH         LINE#         101
  C:CEF7H         LINE#         103
  C:CEFCH         LINE#         104
  C:CEFCH         LINE#         105
  C:CF02H         LINE#         106
  C:CF05H         LINE#         107
  C:CF0CH         LINE#         108
  C:CF18H         LINE#         110
  C:CF1DH         LINE#         111
  C:CF1DH         LINE#         112
  C:CF23H         LINE#         113
  C:CF26H         LINE#         114
  C:CF2DH         LINE#         115
  C:CF39H         LINE#         117
  C:CF3EH         LINE#         118
  C:CF3EH         LINE#         119
  C:CF44H         LINE#         120
  C:CF47H         LINE#         121
  C:CF4EH         LINE#         122
  C:CF5AH         LINE#         123
  -------         ENDPROC       QIANSHOU_2
BL51 BANKED LINKER/LOCATER V6.22                                                      06/24/2016  11:44:38  PAGE 148


  -------         PROC          _QIANSHOU_3
  X:0218H         SYMBOL        number
  -------         DO            
  X:0219H         SYMBOL        j
  X:021AH         SYMBOL        i
  -------         ENDDO         
  C:B75EH         LINE#         132
  C:B763H         LINE#         133
  C:B763H         LINE#         135
  C:B766H         LINE#         136
  C:B766H         LINE#         137
  C:B76CH         LINE#         138
  C:B772H         LINE#         139
  C:B775H         LINE#         140
  C:B77CH         LINE#         141
  C:B788H         LINE#         143
  C:B78BH         LINE#         145
  C:B7A0H         LINE#         146
  C:B7A0H         LINE#         148
  C:B7A5H         LINE#         149
  C:B7A5H         LINE#         150
  C:B7ABH         LINE#         151
  C:B7B1H         LINE#         152
  C:B7B4H         LINE#         153
  C:B7BBH         LINE#         154
  C:B7C7H         LINE#         155
  C:B7CCH         LINE#         157
  C:B7D1H         LINE#         158
  C:B7D1H         LINE#         159
  C:B7D7H         LINE#         160
  C:B7DDH         LINE#         161
  C:B7E0H         LINE#         162
  C:B7E7H         LINE#         163
  C:B7F3H         LINE#         165
  C:B7F8H         LINE#         166
  C:B7F8H         LINE#         167
  C:B7FEH         LINE#         168
  C:B804H         LINE#         169
  C:B807H         LINE#         170
  C:B80EH         LINE#         171
  C:B81AH         LINE#         172
  C:B81FH         LINE#         174
  C:B824H         LINE#         175
  C:B824H         LINE#         176
  C:B82AH         LINE#         177
  C:B830H         LINE#         178
  C:B833H         LINE#         179
  C:B83AH         LINE#         180
  C:B846H         LINE#         181
  C:B84FH         LINE#         183
  C:B852H         LINE#         185
  C:B857H         LINE#         186
  C:B857H         LINE#         187
  C:B85DH         LINE#         188
  C:B863H         LINE#         189
  C:B866H         LINE#         190
  C:B86DH         LINE#         191
BL51 BANKED LINKER/LOCATER V6.22                                                      06/24/2016  11:44:38  PAGE 149


  C:B879H         LINE#         192
  -------         ENDPROC       _QIANSHOU_3
  -------         PROC          _QIANSHOU_4
  X:0218H         SYMBOL        number
  -------         DO            
  X:0219H         SYMBOL        j
  X:021AH         SYMBOL        i
  -------         ENDDO         
  C:8EC8H         LINE#         198
  C:8ECDH         LINE#         199
  C:8ECDH         LINE#         202
  C:8ED0H         LINE#         203
  C:8ED0H         LINE#         204
  C:8ED6H         LINE#         205
  C:8EDCH         LINE#         206
  C:8EDFH         LINE#         207
  C:8EE6H         LINE#         208
  C:8EF2H         LINE#         209
  C:8EF7H         LINE#         210
  C:8EF7H         LINE#         211
  C:8EFDH         LINE#         212
  C:8F03H         LINE#         213
  C:8F09H         LINE#         214
  C:8F0FH         LINE#         215
  C:8F12H         LINE#         216
  C:8F19H         LINE#         217
  C:8F25H         LINE#         219
  C:8F2AH         LINE#         220
  C:8F2AH         LINE#         221
  C:8F30H         LINE#         222
  C:8F36H         LINE#         223
  C:8F3CH         LINE#         224
  C:8F42H         LINE#         225
  C:8F45H         LINE#         226
  C:8F4CH         LINE#         227
  C:8F58H         LINE#         229
  C:8F5DH         LINE#         230
  C:8F5DH         LINE#         231
  C:8F63H         LINE#         232
  C:8F69H         LINE#         233
  C:8F6FH         LINE#         234
  C:8F75H         LINE#         235
  C:8F78H         LINE#         236
  C:8F7FH         LINE#         237
  C:8F8BH         LINE#         238
  C:8F8EH         LINE#         241
  C:8F93H         LINE#         242
  C:8F93H         LINE#         243
  C:8F99H         LINE#         244
  C:8F9FH         LINE#         245
  C:8FA5H         LINE#         246
  C:8FABH         LINE#         247
  C:8FAEH         LINE#         248
  C:8FB5H         LINE#         249
  C:8FC1H         LINE#         250
  C:8FD6H         LINE#         251
  C:8FD6H         LINE#         252
BL51 BANKED LINKER/LOCATER V6.22                                                      06/24/2016  11:44:38  PAGE 150


  C:8FDBH         LINE#         253
  C:8FDBH         LINE#         254
  C:8FE1H         LINE#         255
  C:8FE7H         LINE#         256
  C:8FEDH         LINE#         257
  C:8FF3H         LINE#         258
  C:8FF6H         LINE#         259
  C:8FFDH         LINE#         260
  C:9009H         LINE#         262
  C:900EH         LINE#         263
  C:900EH         LINE#         264
  C:9014H         LINE#         265
  C:901AH         LINE#         266
  C:9020H         LINE#         267
  C:9026H         LINE#         268
  C:9029H         LINE#         269
  C:9030H         LINE#         270
  C:903CH         LINE#         272
  C:9041H         LINE#         273
  C:9041H         LINE#         274
  C:9047H         LINE#         275
  C:904DH         LINE#         276
  C:9053H         LINE#         277
  C:9059H         LINE#         278
  C:905CH         LINE#         279
  C:9063H         LINE#         280
  C:906FH         LINE#         281
  C:9074H         LINE#         282
  C:9074H         LINE#         283
  C:907AH         LINE#         284
  C:9080H         LINE#         285
  C:9086H         LINE#         286
  C:908CH         LINE#         287
  C:908FH         LINE#         288
  C:9096H         LINE#         289
  C:90A2H         LINE#         290
  C:90ABH         LINE#         291
  C:90AEH         LINE#         294
  C:90B3H         LINE#         295
  C:90B3H         LINE#         296
  C:90B9H         LINE#         297
  C:90BFH         LINE#         298
  C:90C2H         LINE#         299
  C:90C9H         LINE#         300
  C:90D5H         LINE#         302
  -------         ENDPROC       _QIANSHOU_4
  -------         PROC          _QIANSHOU_5
  X:0218H         SYMBOL        number
  X:0219H         SYMBOL        sudu1
  -------         DO            
  X:021AH         SYMBOL        j
  X:021BH         SYMBOL        i
  -------         ENDDO         
  C:CC97H         LINE#         308
  C:CC9FH         LINE#         309
  C:CC9FH         LINE#         311
  C:CCB1H         LINE#         312
BL51 BANKED LINKER/LOCATER V6.22                                                      06/24/2016  11:44:38  PAGE 151


  C:CCB1H         LINE#         313
  C:CCB6H         LINE#         314
  C:CCB6H         LINE#         315
  C:CCBDH         LINE#         316
  C:CCC4H         LINE#         317
  C:CCCAH         LINE#         318
  C:CCD0H         LINE#         319
  C:CCD3H         LINE#         320
  C:CCDDH         LINE#         321
  C:CCE9H         LINE#         323
  C:CCEEH         LINE#         324
  C:CCEEH         LINE#         325
  C:CCF5H         LINE#         326
  C:CCFCH         LINE#         327
  C:CD02H         LINE#         328
  C:CD08H         LINE#         329
  C:CD0BH         LINE#         330
  C:CD15H         LINE#         331
  C:CD21H         LINE#         332
  C:CD2AH         LINE#         333
  -------         ENDPROC       _QIANSHOU_5
  -------         PROC          QIANSHOU_6
  -------         DO            
  X:0218H         SYMBOL        i
  X:021AH         SYMBOL        i1
  X:021CH         SYMBOL        i2
  -------         ENDDO         
  C:8CB8H         LINE#         340
  C:8CB8H         LINE#         341
  C:8CB8H         LINE#         344
  C:8CC5H         LINE#         345
  C:8CD2H         LINE#         347
  C:8CD5H         LINE#         348
  C:8CD8H         LINE#         349
  C:8CDBH         LINE#         351
  C:8D03H         LINE#         353
  C:8D7CH         LINE#         354
  C:8D87H         LINE#         357
  C:8D8AH         LINE#         358
  C:8D8DH         LINE#         359
  C:8D90H         LINE#         360
  C:8D95H         LINE#         362
  C:8DC8H         LINE#         363
  C:8E41H         LINE#         364
  C:8E4CH         LINE#         365
  C:8E51H         LINE#         368
  C:8EB8H         LINE#         369
  C:8EC3H         LINE#         370
  -------         ENDPROC       QIANSHOU_6
  -------         PROC          _QIANSHOU_7
  X:0218H         SYMBOL        number
  -------         DO            
  X:0219H         SYMBOL        j
  X:021AH         SYMBOL        i
  -------         ENDDO         
  C:621BH         LINE#         379
  C:6220H         LINE#         380
BL51 BANKED LINKER/LOCATER V6.22                                                      06/24/2016  11:44:38  PAGE 152


  C:6220H         LINE#         382
  C:6223H         LINE#         383
  C:6223H         LINE#         384
  C:622AH         LINE#         385
  C:6231H         LINE#         386
  C:6237H         LINE#         387
  C:623DH         LINE#         388
  C:6240H         LINE#         389
  C:6247H         LINE#         390
  C:6253H         LINE#         392
  C:6256H         LINE#         394
  C:626BH         LINE#         395
  C:626BH         LINE#         396
  C:6270H         LINE#         397
  C:6270H         LINE#         398
  C:6276H         LINE#         399
  C:627BH         LINE#         400
  C:627FH         LINE#         401
  C:6283H         LINE#         402
  C:6288H         LINE#         403
  C:628CH         LINE#         404
  C:628FH         LINE#         405
  C:6296H         LINE#         406
  C:62A2H         LINE#         407
  C:62A5H         LINE#         408
  C:62A8H         LINE#         409
  C:62ADH         LINE#         410
  C:62ADH         LINE#         411
  C:62B3H         LINE#         412
  C:62B8H         LINE#         413
  C:62BCH         LINE#         414
  C:62C0H         LINE#         415
  C:62C5H         LINE#         416
  C:62C9H         LINE#         417
  C:62CCH         LINE#         418
  C:62D3H         LINE#         419
  C:62DFH         LINE#         420
  C:62E8H         LINE#         422
  C:62EBH         LINE#         423
  C:6316H         LINE#         424
  C:6316H         LINE#         425
  C:631CH         LINE#         426
  C:6321H         LINE#         427
  C:6325H         LINE#         428
  C:6329H         LINE#         429
  C:632EH         LINE#         430
  C:6332H         LINE#         431
  C:6335H         LINE#         432
  C:633CH         LINE#         433
  C:6344H         LINE#         434
  C:6366H         LINE#         435
  C:6366H         LINE#         436
  C:6366H         LINE#         437
  C:6366H         LINE#         438
  C:6366H         LINE#         439
  C:6366H         LINE#         440
  C:6366H         LINE#         441
BL51 BANKED LINKER/LOCATER V6.22                                                      06/24/2016  11:44:38  PAGE 153


  C:6366H         LINE#         442
  C:6369H         LINE#         443
  C:6370H         LINE#         444
  C:6378H         LINE#         446
  C:637DH         LINE#         447
  C:637DH         LINE#         448
  C:6384H         LINE#         449
  C:638BH         LINE#         450
  C:6392H         LINE#         451
  C:6399H         LINE#         452
  C:639CH         LINE#         453
  C:63A3H         LINE#         454
  C:63AFH         LINE#         455
  C:63B4H         LINE#         456
  C:63B7H         LINE#         458
  C:63CCH         LINE#         459
  C:63CCH         LINE#         460
  C:63D1H         LINE#         461
  C:63D1H         LINE#         462
  C:63D7H         LINE#         463
  C:63DDH         LINE#         464
  C:63E3H         LINE#         465
  C:63E9H         LINE#         466
  C:63ECH         LINE#         467
  C:63F3H         LINE#         468
  C:63FFH         LINE#         470
  C:6404H         LINE#         471
  C:6404H         LINE#         472
  C:640AH         LINE#         473
  C:6410H         LINE#         474
  C:6416H         LINE#         475
  C:641CH         LINE#         476
  C:641FH         LINE#         477
  C:6426H         LINE#         478
  C:6432H         LINE#         480
  C:6437H         LINE#         481
  C:6437H         LINE#         482
  C:643DH         LINE#         483
  C:6443H         LINE#         484
  C:6449H         LINE#         485
  C:644FH         LINE#         486
  C:6452H         LINE#         487
  C:6459H         LINE#         488
  C:6465H         LINE#         489
  C:646AH         LINE#         490
  C:646AH         LINE#         491
  C:6470H         LINE#         492
  C:6476H         LINE#         493
  C:647CH         LINE#         494
  C:6482H         LINE#         495
  C:6485H         LINE#         496
  C:648CH         LINE#         497
  C:6498H         LINE#         498
  C:64A1H         LINE#         500
  C:64A4H         LINE#         501
  C:64C6H         LINE#         502
  C:64C6H         LINE#         503
BL51 BANKED LINKER/LOCATER V6.22                                                      06/24/2016  11:44:38  PAGE 154


  C:64C6H         LINE#         504
  C:64C6H         LINE#         505
  C:64C6H         LINE#         506
  C:64C6H         LINE#         507
  C:64C6H         LINE#         508
  C:64C6H         LINE#         509
  C:64C9H         LINE#         510
  C:64D0H         LINE#         511
  C:64D8H         LINE#         513
  C:6503H         LINE#         514
  C:6503H         LINE#         515
  C:6509H         LINE#         516
  C:650EH         LINE#         517
  C:6512H         LINE#         518
  C:6516H         LINE#         519
  C:651BH         LINE#         520
  C:651FH         LINE#         521
  C:6522H         LINE#         522
  C:6529H         LINE#         523
  C:6531H         LINE#         525
  C:6536H         LINE#         526
  C:6536H         LINE#         527
  C:653CH         LINE#         528
  C:6542H         LINE#         529
  C:6545H         LINE#         530
  C:654CH         LINE#         531
  C:6558H         LINE#         532
  -------         ENDPROC       _QIANSHOU_7
  -------         PROC          QIANSHOU_8
  -------         DO            
  X:0218H         SYMBOL        j
  -------         ENDDO         
  C:BD9BH         LINE#         539
  C:BD9BH         LINE#         540
  C:BD9BH         LINE#         543
  C:BDA0H         LINE#         544
  C:BDA0H         LINE#         545
  C:BDA7H         LINE#         546
  C:BDAEH         LINE#         547
  C:BDB4H         LINE#         548
  C:BDBAH         LINE#         549
  C:BDBDH         LINE#         550
  C:BDC4H         LINE#         551
  C:BDD0H         LINE#         553
  C:BDD3H         LINE#         555
  C:BDD8H         LINE#         556
  C:BDD8H         LINE#         557
  C:BDDEH         LINE#         558
  C:BDE2H         LINE#         559
  C:BDE6H         LINE#         560
  C:BDEAH         LINE#         561
  C:BDEDH         LINE#         562
  C:BDF4H         LINE#         563
  C:BE00H         LINE#         565
  C:BE05H         LINE#         567
  C:BE0AH         LINE#         568
  C:BE0AH         LINE#         569
BL51 BANKED LINKER/LOCATER V6.22                                                      06/24/2016  11:44:38  PAGE 155


  C:BE10H         LINE#         570
  C:BE14H         LINE#         571
  C:BE18H         LINE#         572
  C:BE1CH         LINE#         573
  C:BE1FH         LINE#         574
  C:BE26H         LINE#         575
  C:BE32H         LINE#         577
  C:BE37H         LINE#         579
  C:BE3CH         LINE#         580
  C:BE3CH         LINE#         581
  C:BE42H         LINE#         582
  C:BE46H         LINE#         583
  C:BE4AH         LINE#         584
  C:BE4EH         LINE#         585
  C:BE51H         LINE#         586
  C:BE58H         LINE#         587
  C:BE64H         LINE#         589
  C:BE67H         LINE#         591
  C:BE6CH         LINE#         592
  C:BE6CH         LINE#         593
  C:BE73H         LINE#         594
  C:BE7AH         LINE#         595
  C:BE80H         LINE#         596
  C:BE86H         LINE#         597
  C:BE89H         LINE#         598
  C:BE90H         LINE#         599
  C:BE9CH         LINE#         600
  -------         ENDPROC       QIANSHOU_8
  -------         PROC          _QIANSHOU_9
  X:0218H         SYMBOL        number
  -------         DO            
  X:0219H         SYMBOL        j
  X:021AH         SYMBOL        i
  -------         ENDDO         
  C:B639H         LINE#         607
  C:B63EH         LINE#         608
  C:B63EH         LINE#         612
  C:B653H         LINE#         613
  C:B653H         LINE#         614
  C:B656H         LINE#         615
  C:B65BH         LINE#         616
  C:B65BH         LINE#         617
  C:B662H         LINE#         618
  C:B669H         LINE#         619
  C:B66FH         LINE#         620
  C:B675H         LINE#         621
  C:B678H         LINE#         622
  C:B67FH         LINE#         623
  C:B68BH         LINE#         624
  C:B68EH         LINE#         625
  C:B691H         LINE#         626
  C:B696H         LINE#         627
  C:B696H         LINE#         628
  C:B69DH         LINE#         629
  C:B6A4H         LINE#         630
  C:B6AAH         LINE#         631
  C:B6B0H         LINE#         632
BL51 BANKED LINKER/LOCATER V6.22                                                      06/24/2016  11:44:38  PAGE 156


  C:B6B3H         LINE#         633
  C:B6BAH         LINE#         634
  C:B6C6H         LINE#         635
  C:B6C9H         LINE#         636
  C:B6D2H         LINE#         638
  C:B6E4H         LINE#         639
  C:B6E4H         LINE#         640
  C:B6E7H         LINE#         641
  C:B6ECH         LINE#         642
  C:B6ECH         LINE#         643
  C:B6F3H         LINE#         644
  C:B6FAH         LINE#         645
  C:B700H         LINE#         646
  C:B706H         LINE#         647
  C:B709H         LINE#         648
  C:B710H         LINE#         649
  C:B71CH         LINE#         650
  C:B721H         LINE#         651
  C:B721H         LINE#         652
  C:B728H         LINE#         653
  C:B72FH         LINE#         654
  C:B735H         LINE#         655
  C:B73BH         LINE#         656
  C:B73EH         LINE#         657
  C:B745H         LINE#         658
  C:B751H         LINE#         659
  C:B754H         LINE#         660
  C:B75DH         LINE#         661
  -------         ENDPROC       _QIANSHOU_9
  -------         PROC          _QIANSHOU_10
  X:0218H         SYMBOL        number
  -------         DO            
  X:0219H         SYMBOL        j
  X:021AH         SYMBOL        i
  -------         ENDDO         
  C:90D6H         LINE#         667
  C:90DBH         LINE#         668
  C:90DBH         LINE#         671
  C:90DEH         LINE#         672
  C:90DEH         LINE#         673
  C:90E4H         LINE#         674
  C:90EAH         LINE#         675
  C:90EDH         LINE#         676
  C:90F4H         LINE#         677
  C:9100H         LINE#         678
  C:9105H         LINE#         679
  C:9105H         LINE#         680
  C:910BH         LINE#         681
  C:9111H         LINE#         682
  C:9117H         LINE#         683
  C:911DH         LINE#         684
  C:9120H         LINE#         685
  C:9127H         LINE#         686
  C:9133H         LINE#         688
  C:9138H         LINE#         689
  C:9138H         LINE#         690
  C:913EH         LINE#         691
BL51 BANKED LINKER/LOCATER V6.22                                                      06/24/2016  11:44:38  PAGE 157


  C:9144H         LINE#         692
  C:914AH         LINE#         693
  C:9150H         LINE#         694
  C:9153H         LINE#         695
  C:915AH         LINE#         696
  C:9166H         LINE#         698
  C:916BH         LINE#         699
  C:916BH         LINE#         700
  C:9171H         LINE#         701
  C:9177H         LINE#         702
  C:917DH         LINE#         703
  C:9183H         LINE#         704
  C:9186H         LINE#         705
  C:918DH         LINE#         706
  C:9199H         LINE#         707
  C:919CH         LINE#         710
  C:91A1H         LINE#         711
  C:91A1H         LINE#         712
  C:91A7H         LINE#         713
  C:91ADH         LINE#         714
  C:91B3H         LINE#         715
  C:91B9H         LINE#         716
  C:91BCH         LINE#         717
  C:91C3H         LINE#         718
  C:91CFH         LINE#         719
  C:91E4H         LINE#         720
  C:91E4H         LINE#         721
  C:91E9H         LINE#         722
  C:91E9H         LINE#         723
  C:91EFH         LINE#         724
  C:91F5H         LINE#         725
  C:91FBH         LINE#         726
  C:9201H         LINE#         727
  C:9204H         LINE#         728
  C:920BH         LINE#         729
  C:9217H         LINE#         731
  C:921CH         LINE#         732
  C:921CH         LINE#         733
  C:9222H         LINE#         734
  C:9228H         LINE#         735
  C:922EH         LINE#         736
  C:9234H         LINE#         737
  C:9237H         LINE#         738
  C:923EH         LINE#         739
  C:924AH         LINE#         741
  C:924FH         LINE#         742
  C:924FH         LINE#         743
  C:9255H         LINE#         744
  C:925BH         LINE#         745
  C:9261H         LINE#         746
  C:9267H         LINE#         747
  C:926AH         LINE#         748
  C:9271H         LINE#         749
  C:927DH         LINE#         750
  C:9282H         LINE#         751
  C:9282H         LINE#         752
  C:9288H         LINE#         753
BL51 BANKED LINKER/LOCATER V6.22                                                      06/24/2016  11:44:38  PAGE 158


  C:928EH         LINE#         754
  C:9294H         LINE#         755
  C:929AH         LINE#         756
  C:929DH         LINE#         757
  C:92A4H         LINE#         758
  C:92B0H         LINE#         759
  C:92B9H         LINE#         760
  C:92BCH         LINE#         763
  C:92C1H         LINE#         764
  C:92C1H         LINE#         765
  C:92C7H         LINE#         766
  C:92CDH         LINE#         767
  C:92D0H         LINE#         768
  C:92D7H         LINE#         769
  C:92E3H         LINE#         770
  -------         ENDPROC       _QIANSHOU_10
  -------         PROC          QIANSHOU
  -------         DO            
  X:0217H         SYMBOL        j
  -------         ENDDO         
  C:C71BH         LINE#         777
  C:C71BH         LINE#         778
  C:C71BH         LINE#         780
  C:C720H         LINE#         781
  C:C720H         LINE#         782
  C:C727H         LINE#         783
  C:C72EH         LINE#         784
  C:C734H         LINE#         785
  C:C738H         LINE#         786
  C:C73BH         LINE#         787
  C:C742H         LINE#         788
  C:C74EH         LINE#         790
  C:C753H         LINE#         792
  C:C756H         LINE#         793
  C:C759H         LINE#         794
  C:C75EH         LINE#         795
  C:C763H         LINE#         796
  C:C768H         LINE#         797
  C:C76DH         LINE#         798
  C:C774H         LINE#         799
  C:C77BH         LINE#         800
  C:C782H         LINE#         801
  C:C789H         LINE#         802
  C:C790H         LINE#         803
  C:C795H         LINE#         804
  C:C798H         LINE#         805
  C:C79DH         LINE#         806
  C:C7A0H         LINE#         808
  C:C7A5H         LINE#         809
  C:C7A5H         LINE#         810
  C:C7ACH         LINE#         811
  C:C7B3H         LINE#         812
  C:C7B9H         LINE#         813
  C:C7BDH         LINE#         814
  C:C7C0H         LINE#         815
  C:C7C7H         LINE#         816
  C:C7D3H         LINE#         817
BL51 BANKED LINKER/LOCATER V6.22                                                      06/24/2016  11:44:38  PAGE 159


  -------         ENDPROC       QIANSHOU
  -------         ENDMOD        QIANSHOU

  -------         MODULE        QIAOXIYANG
  C:0000H         SYMBOL        _ICE_DUMMY_
  D:0080H         PUBLIC        P0
  D:0090H         PUBLIC        P1
  D:00A0H         PUBLIC        P2
  D:00B0H         PUBLIC        P3
  D:00C0H         PUBLIC        P4
  D:00C8H         PUBLIC        P5
  D:00E8H         PUBLIC        P6
  D:00F8H         PUBLIC        P7
  D:00A8H         PUBLIC        IE
  D:00B8H         PUBLIC        IP
  D:00D8H         PUBLIC        CCON
  C:001EH         PUBLIC        xiyang_1
  C:001FH         PUBLIC        xiyang_2
  C:0020H         PUBLIC        xiyang_3
  C:0021H         PUBLIC        xiyang_4
  C:A90CH         PUBLIC        xiyang_5
  C:2F52H         PUBLIC        xiyang_6
  C:5484H         PUBLIC        xiyang_7
  C:C9FFH         PUBLIC        xiyang_8
  C:7A7CH         PUBLIC        xiyang_9
  D:0098H         PUBLIC        SCON
  D:0088H         PUBLIC        TCON
  C:E080H         PUBLIC        qiaoxiyang
  D:00F0H         PUBLIC        B
  C:7CE0H         PUBLIC        xiyang_10
  C:D495H         PUBLIC        _xiyang_xiao7
  D:00D0H         PUBLIC        PSW
  -------         PROC          XIYANG_1
  C:001EH         LINE#         14
  C:001EH         LINE#         15
  C:001EH         LINE#         168
  -------         ENDPROC       XIYANG_1
  -------         PROC          XIYANG_2
  C:001FH         LINE#         175
  C:001FH         LINE#         176
  C:001FH         LINE#         425
  -------         ENDPROC       XIYANG_2
  -------         PROC          XIYANG_3
  C:0020H         LINE#         432
  C:0020H         LINE#         433
  C:0020H         LINE#         501
  -------         ENDPROC       XIYANG_3
  -------         PROC          XIYANG_4
  C:0021H         LINE#         508
  C:0021H         LINE#         509
  C:0021H         LINE#         766
  -------         ENDPROC       XIYANG_4
  -------         PROC          XIYANG_5
  -------         DO            
  X:0217H         SYMBOL        j
  X:0218H         SYMBOL        i
  -------         ENDDO         
BL51 BANKED LINKER/LOCATER V6.22                                                      06/24/2016  11:44:38  PAGE 160


  C:A90CH         LINE#         774
  C:A90CH         LINE#         775
  C:A90CH         LINE#         777
  C:A911H         LINE#         778
  C:A911H         LINE#         779
  C:A917H         LINE#         780
  C:A91BH         LINE#         781
  C:A91FH         LINE#         782
  C:A923H         LINE#         783
  C:A926H         LINE#         784
  C:A92DH         LINE#         785
  C:A939H         LINE#         786
  C:A93EH         LINE#         787
  C:A941H         LINE#         788
  C:A944H         LINE#         789
  C:A947H         LINE#         790
  C:A94AH         LINE#         791
  C:A94DH         LINE#         792
  C:A950H         LINE#         793
  C:A953H         LINE#         794
  C:A956H         LINE#         795
  C:A95BH         LINE#         796
  C:A95BH         LINE#         797
  C:A960H         LINE#         798
  C:A960H         LINE#         799
  C:A967H         LINE#         800
  C:A96CH         LINE#         801
  C:A971H         LINE#         802
  C:A978H         LINE#         803
  C:A97BH         LINE#         804
  C:A982H         LINE#         805
  C:A98EH         LINE#         806
  C:A993H         LINE#         807
  C:A998H         LINE#         808
  C:A998H         LINE#         809
  C:A99FH         LINE#         810
  C:A9A4H         LINE#         811
  C:A9A9H         LINE#         812
  C:A9B0H         LINE#         813
  C:A9B3H         LINE#         814
  C:A9BAH         LINE#         815
  C:A9C6H         LINE#         816
  C:A9CBH         LINE#         817
  C:A9D7H         LINE#         818
  C:A9DAH         LINE#         819
  C:A9DDH         LINE#         820
  C:A9E0H         LINE#         821
  C:A9E3H         LINE#         822
  C:A9E6H         LINE#         823
  C:A9E9H         LINE#         824
  C:A9ECH         LINE#         825
  C:A9EFH         LINE#         826
  C:A9F4H         LINE#         827
  C:A9F4H         LINE#         828
  C:A9F9H         LINE#         829
  C:A9F9H         LINE#         830
  C:AA00H         LINE#         831
BL51 BANKED LINKER/LOCATER V6.22                                                      06/24/2016  11:44:38  PAGE 161


  C:AA05H         LINE#         832
  C:AA0AH         LINE#         833
  C:AA11H         LINE#         834
  C:AA14H         LINE#         835
  C:AA1BH         LINE#         836
  C:AA27H         LINE#         837
  C:AA2CH         LINE#         838
  C:AA2CH         LINE#         839
  C:AA33H         LINE#         840
  C:AA38H         LINE#         841
  C:AA3DH         LINE#         842
  C:AA44H         LINE#         843
  C:AA47H         LINE#         844
  C:AA4EH         LINE#         845
  C:AA5AH         LINE#         846
  C:AA66H         LINE#         847
  C:AA6BH         LINE#         848
  C:AA70H         LINE#         849
  C:AA70H         LINE#         850
  C:AA76H         LINE#         851
  C:AA7AH         LINE#         852
  C:AA7EH         LINE#         853
  C:AA82H         LINE#         854
  C:AA85H         LINE#         855
  C:AA8CH         LINE#         856
  C:AA98H         LINE#         857
  C:AA9DH         LINE#         858
  -------         ENDPROC       XIYANG_5
  -------         PROC          XIYANG_6
  -------         DO            
  X:0217H         SYMBOL        j
  X:0218H         SYMBOL        i
  X:0219H         SYMBOL        k
  X:021AH         SYMBOL        l
  -------         ENDDO         
  C:2F52H         LINE#         867
  C:2F52H         LINE#         868
  C:2F52H         LINE#         870
  C:2F57H         LINE#         871
  C:2F57H         LINE#         872
  C:2F5EH         LINE#         873
  C:2F65H         LINE#         874
  C:2F68H         LINE#         875
  C:2F6FH         LINE#         876
  C:2F7BH         LINE#         877
  C:2F80H         LINE#         878
  C:2F80H         LINE#         879
  C:2F87H         LINE#         880
  C:2F8EH         LINE#         881
  C:2F91H         LINE#         882
  C:2F98H         LINE#         883
  C:2FA4H         LINE#         884
  C:2FA9H         LINE#         885
  C:2FAEH         LINE#         886
  C:2FAEH         LINE#         887
  C:2FB3H         LINE#         888
  C:2FB3H         LINE#         889
BL51 BANKED LINKER/LOCATER V6.22                                                      06/24/2016  11:44:38  PAGE 162


  C:2FB9H         LINE#         890
  C:2FBDH         LINE#         891
  C:2FC1H         LINE#         892
  C:2FC5H         LINE#         893
  C:2FCAH         LINE#         894
  C:2FCFH         LINE#         895
  C:2FD4H         LINE#         896
  C:2FD9H         LINE#         897
  C:2FDEH         LINE#         898
  C:2FE1H         LINE#         899
  C:2FE8H         LINE#         900
  C:2FF4H         LINE#         901
  C:2FF9H         LINE#         902
  C:2FFEH         LINE#         903
  C:2FFEH         LINE#         904
  C:3004H         LINE#         905
  C:3008H         LINE#         906
  C:300CH         LINE#         907
  C:3010H         LINE#         908
  C:3015H         LINE#         909
  C:301AH         LINE#         910
  C:301FH         LINE#         911
  C:3024H         LINE#         912
  C:3029H         LINE#         913
  C:302CH         LINE#         914
  C:3033H         LINE#         915
  C:303FH         LINE#         916
  C:3044H         LINE#         917
  C:3053H         LINE#         918
  C:3058H         LINE#         919
  C:3058H         LINE#         920
  C:305FH         LINE#         921
  C:3066H         LINE#         922
  C:3069H         LINE#         923
  C:3070H         LINE#         924
  C:307CH         LINE#         925
  C:3081H         LINE#         926
  C:3081H         LINE#         927
  C:3086H         LINE#         928
  C:3086H         LINE#         929
  C:308CH         LINE#         930
  C:3090H         LINE#         931
  C:3094H         LINE#         932
  C:3098H         LINE#         933
  C:309DH         LINE#         934
  C:30A2H         LINE#         935
  C:30A7H         LINE#         936
  C:30ACH         LINE#         937
  C:30B1H         LINE#         938
  C:30B4H         LINE#         939
  C:30BBH         LINE#         940
  C:30C7H         LINE#         941
  C:30CCH         LINE#         942
  C:30D1H         LINE#         943
  C:30D1H         LINE#         944
  C:30D7H         LINE#         945
  C:30DBH         LINE#         946
BL51 BANKED LINKER/LOCATER V6.22                                                      06/24/2016  11:44:38  PAGE 163


  C:30DFH         LINE#         947
  C:30E3H         LINE#         948
  C:30E8H         LINE#         949
  C:30EDH         LINE#         950
  C:30F2H         LINE#         951
  C:30F7H         LINE#         952
  C:30FCH         LINE#         953
  C:30FFH         LINE#         954
  C:3106H         LINE#         955
  C:3112H         LINE#         956
  C:3117H         LINE#         957
  C:3126H         LINE#         958
  C:312BH         LINE#         959
  C:312BH         LINE#         960
  C:3132H         LINE#         961
  C:3139H         LINE#         962
  C:3140H         LINE#         963
  C:3143H         LINE#         964
  C:314AH         LINE#         965
  C:3156H         LINE#         966
  C:315BH         LINE#         967
  C:3161H         LINE#         968
  C:3166H         LINE#         969
  C:3166H         LINE#         970
  C:316BH         LINE#         971
  C:316BH         LINE#         972
  C:3171H         LINE#         973
  C:3175H         LINE#         974
  C:3179H         LINE#         975
  C:317DH         LINE#         976
  C:3188H         LINE#         977
  C:318FH         LINE#         978
  C:3192H         LINE#         979
  C:3199H         LINE#         980
  C:31A5H         LINE#         981
  C:31AAH         LINE#         982
  C:31AFH         LINE#         983
  C:31AFH         LINE#         984
  C:31B5H         LINE#         985
  C:31B9H         LINE#         986
  C:31BDH         LINE#         987
  C:31C1H         LINE#         988
  C:31D0H         LINE#         989
  C:31D6H         LINE#         990
  C:31D9H         LINE#         991
  C:31E0H         LINE#         992
  C:31ECH         LINE#         993
  C:31F1H         LINE#         994
  C:31F8H         LINE#         995
  C:3207H         LINE#         996
  C:320CH         LINE#         997
  C:320CH         LINE#         998
  C:3213H         LINE#         999
  C:3218H         LINE#         1000
  C:321BH         LINE#         1001
  C:3222H         LINE#         1002
  C:322EH         LINE#         1003
BL51 BANKED LINKER/LOCATER V6.22                                                      06/24/2016  11:44:38  PAGE 164


  C:3233H         LINE#         1004
  C:3239H         LINE#         1005
  C:323EH         LINE#         1006
  C:323EH         LINE#         1007
  C:3243H         LINE#         1008
  C:3243H         LINE#         1009
  C:3249H         LINE#         1010
  C:324DH         LINE#         1011
  C:3251H         LINE#         1012
  C:3255H         LINE#         1013
  C:3260H         LINE#         1014
  C:3267H         LINE#         1015
  C:326EH         LINE#         1016
  C:3271H         LINE#         1017
  C:3278H         LINE#         1018
  C:3284H         LINE#         1019
  C:3289H         LINE#         1020
  C:328EH         LINE#         1021
  C:328EH         LINE#         1022
  C:3294H         LINE#         1023
  C:3298H         LINE#         1024
  C:329CH         LINE#         1025
  C:32A0H         LINE#         1026
  C:32AFH         LINE#         1027
  C:32B5H         LINE#         1028
  C:32BCH         LINE#         1029
  C:32BFH         LINE#         1030
  C:32C6H         LINE#         1031
  C:32D2H         LINE#         1032
  C:32D7H         LINE#         1033
  C:32DEH         LINE#         1034
  C:32EDH         LINE#         1035
  C:32F2H         LINE#         1036
  C:32F2H         LINE#         1037
  C:32F9H         LINE#         1038
  C:32FCH         LINE#         1039
  C:3303H         LINE#         1040
  C:330FH         LINE#         1041
  C:3314H         LINE#         1042
  C:3319H         LINE#         1043
  C:3319H         LINE#         1044
  C:331EH         LINE#         1045
  C:331EH         LINE#         1046
  C:3325H         LINE#         1047
  C:332AH         LINE#         1048
  C:332FH         LINE#         1049
  C:3334H         LINE#         1050
  C:3337H         LINE#         1051
  C:333EH         LINE#         1052
  C:334AH         LINE#         1053
  C:334FH         LINE#         1054
  C:3354H         LINE#         1055
  C:3354H         LINE#         1056
  C:335BH         LINE#         1057
  C:3360H         LINE#         1058
  C:3365H         LINE#         1059
  C:336AH         LINE#         1060
BL51 BANKED LINKER/LOCATER V6.22                                                      06/24/2016  11:44:38  PAGE 165


  C:336DH         LINE#         1061
  C:3374H         LINE#         1062
  C:3380H         LINE#         1063
  C:3385H         LINE#         1064
  C:3391H         LINE#         1065
  C:3396H         LINE#         1066
  C:3396H         LINE#         1067
  C:339DH         LINE#         1068
  C:33A2H         LINE#         1069
  C:33A5H         LINE#         1070
  C:33ACH         LINE#         1071
  C:33B8H         LINE#         1072
  C:33BDH         LINE#         1073
  C:33C2H         LINE#         1074
  C:33C2H         LINE#         1075
  C:33C9H         LINE#         1076
  C:33D0H         LINE#         1077
  C:33D3H         LINE#         1078
  C:33DAH         LINE#         1079
  C:33E6H         LINE#         1080
  C:33EBH         LINE#         1081
  -------         ENDPROC       XIYANG_6
  -------         PROC          _XIYANG_XIAO7
  X:021AH         SYMBOL        sudu1
  -------         DO            
  X:021BH         SYMBOL        i
  -------         ENDDO         
  C:D495H         LINE#         1091
  C:D49AH         LINE#         1092
  C:D49AH         LINE#         1095
  C:D49DH         LINE#         1096
  C:D49DH         LINE#         1097
  C:D4A4H         LINE#         1098
  C:D4A9H         LINE#         1099
  C:D4ACH         LINE#         1100
  C:D4B6H         LINE#         1102
  C:D4C2H         LINE#         1103
  C:D4C7H         LINE#         1104
  C:D4C7H         LINE#         1105
  C:D4CEH         LINE#         1106
  C:D4D3H         LINE#         1107
  C:D4D6H         LINE#         1108
  C:D4E0H         LINE#         1109
  C:D4ECH         LINE#         1112
  -------         ENDPROC       _XIYANG_XIAO7
  -------         PROC          XIYANG_7
  -------         DO            
  X:0217H         SYMBOL        k
  X:0218H         SYMBOL        i
  X:0219H         SYMBOL        j
  -------         ENDDO         
  C:5484H         LINE#         1120
  C:5484H         LINE#         1121
  C:5484H         LINE#         1123
  C:5489H         LINE#         1124
  C:5489H         LINE#         1125
  C:548FH         LINE#         1126
BL51 BANKED LINKER/LOCATER V6.22                                                      06/24/2016  11:44:38  PAGE 166


  C:5495H         LINE#         1127
  C:5498H         LINE#         1128
  C:549FH         LINE#         1129
  C:54ABH         LINE#         1130
  C:54B0H         LINE#         1131
  C:54B0H         LINE#         1132
  C:54B5H         LINE#         1133
  C:54B5H         LINE#         1134
  C:54BBH         LINE#         1135
  C:54BFH         LINE#         1136
  C:54C3H         LINE#         1137
  C:54C7H         LINE#         1138
  C:54CBH         LINE#         1139
  C:54D1H         LINE#         1140
  C:54D4H         LINE#         1141
  C:54DBH         LINE#         1142
  C:54E7H         LINE#         1143
  C:54ECH         LINE#         1144
  C:54ECH         LINE#         1145
  C:54F2H         LINE#         1146
  C:54F6H         LINE#         1148
  C:54FAH         LINE#         1149
  C:54FEH         LINE#         1151
  C:5502H         LINE#         1153
  C:5508H         LINE#         1154
  C:550BH         LINE#         1155
  C:5512H         LINE#         1156
  C:551EH         LINE#         1157
  C:5523H         LINE#         1158
  C:5523H         LINE#         1159
  C:5529H         LINE#         1160
  C:552DH         LINE#         1161
  C:5531H         LINE#         1162
  C:5535H         LINE#         1163
  C:5539H         LINE#         1164
  C:553FH         LINE#         1165
  C:5542H         LINE#         1166
  C:5549H         LINE#         1167
  C:5555H         LINE#         1168
  C:5564H         LINE#         1169
  C:5569H         LINE#         1170
  C:5569H         LINE#         1171
  C:556FH         LINE#         1172
  C:5575H         LINE#         1173
  C:5578H         LINE#         1174
  C:557FH         LINE#         1175
  C:558BH         LINE#         1177
  C:5590H         LINE#         1178
  C:5590H         LINE#         1179
  C:5596H         LINE#         1180
  C:559CH         LINE#         1181
  C:559FH         LINE#         1182
  C:55A6H         LINE#         1183
  C:55B2H         LINE#         1185
  C:55B7H         LINE#         1186
  C:55BCH         LINE#         1187
  C:55C1H         LINE#         1188
BL51 BANKED LINKER/LOCATER V6.22                                                      06/24/2016  11:44:38  PAGE 167


  C:55C6H         LINE#         1189
  C:55CBH         LINE#         1190
  C:55CBH         LINE#         1191
  C:55D5H         LINE#         1192
  C:55D5H         LINE#         1194
  C:55DAH         LINE#         1195
  C:55DAH         LINE#         1196
  C:55E0H         LINE#         1197
  C:55E4H         LINE#         1198
  C:55E8H         LINE#         1199
  C:55ECH         LINE#         1200
  C:55EFH         LINE#         1201
  C:55F6H         LINE#         1202
  C:5602H         LINE#         1203
  C:5607H         LINE#         1204
  C:560CH         LINE#         1205
  C:560CH         LINE#         1206
  C:5613H         LINE#         1207
  C:5618H         LINE#         1208
  C:561DH         LINE#         1209
  C:5624H         LINE#         1210
  C:5629H         LINE#         1211
  C:562CH         LINE#         1212
  C:5633H         LINE#         1214
  C:563FH         LINE#         1215
  C:5644H         LINE#         1216
  C:5649H         LINE#         1217
  C:5649H         LINE#         1218
  C:5650H         LINE#         1219
  C:5655H         LINE#         1220
  C:565AH         LINE#         1221
  C:5661H         LINE#         1222
  C:5666H         LINE#         1223
  C:5669H         LINE#         1224
  C:5670H         LINE#         1225
  C:567CH         LINE#         1226
  C:5681H         LINE#         1227
  C:5686H         LINE#         1228
  C:5686H         LINE#         1229
  C:568CH         LINE#         1230
  C:5690H         LINE#         1231
  C:5694H         LINE#         1232
  C:5698H         LINE#         1233
  C:569BH         LINE#         1234
  C:56A2H         LINE#         1235
  C:56B1H         LINE#         1237
  C:56B1H         LINE#         1241
  C:56B1H         LINE#         1242
  C:56B6H         LINE#         1243
  C:56B6H         LINE#         1244
  C:56BCH         LINE#         1245
  C:56C0H         LINE#         1246
  C:56C4H         LINE#         1247
  C:56C8H         LINE#         1248
  C:56CBH         LINE#         1249
  C:56D2H         LINE#         1250
  C:56DEH         LINE#         1251
BL51 BANKED LINKER/LOCATER V6.22                                                      06/24/2016  11:44:38  PAGE 168


  C:56E3H         LINE#         1252
  C:56E8H         LINE#         1253
  C:56E8H         LINE#         1254
  C:56EFH         LINE#         1255
  C:56F4H         LINE#         1256
  C:56F9H         LINE#         1257
  C:5700H         LINE#         1258
  C:5705H         LINE#         1259
  C:5708H         LINE#         1260
  C:570FH         LINE#         1262
  C:571BH         LINE#         1263
  C:5720H         LINE#         1264
  C:5725H         LINE#         1265
  C:5725H         LINE#         1266
  C:572CH         LINE#         1267
  C:5731H         LINE#         1268
  C:5736H         LINE#         1269
  C:573DH         LINE#         1270
  C:5742H         LINE#         1271
  C:5745H         LINE#         1272
  C:574CH         LINE#         1273
  C:5758H         LINE#         1274
  C:575DH         LINE#         1275
  C:5762H         LINE#         1276
  C:5762H         LINE#         1277
  C:5768H         LINE#         1278
  C:576CH         LINE#         1279
  C:5770H         LINE#         1280
  C:5774H         LINE#         1281
  C:5777H         LINE#         1282
  C:577EH         LINE#         1283
  C:578AH         LINE#         1285
  C:578AH         LINE#         1286
  C:5790H         LINE#         1287
  C:579FH         LINE#         1288
  C:57A6H         LINE#         1289
  C:57ABH         LINE#         1290
  C:57ABH         LINE#         1291
  C:57B0H         LINE#         1292
  C:57B0H         LINE#         1293
  C:57B7H         LINE#         1294
  C:57BEH         LINE#         1295
  C:57C1H         LINE#         1296
  C:57C8H         LINE#         1297
  C:57D4H         LINE#         1298
  C:57D9H         LINE#         1299
  C:57E5H         LINE#         1301
  C:57EAH         LINE#         1302
  C:57EAH         LINE#         1303
  C:57F1H         LINE#         1304
  C:57F6H         LINE#         1305
  C:57FBH         LINE#         1306
  C:5800H         LINE#         1307
  C:5803H         LINE#         1308
  C:580AH         LINE#         1309
  C:5816H         LINE#         1310
  C:581BH         LINE#         1311
BL51 BANKED LINKER/LOCATER V6.22                                                      06/24/2016  11:44:38  PAGE 169


  -------         ENDPROC       XIYANG_7
  -------         PROC          XIYANG_8
  -------         DO            
  X:0217H         SYMBOL        i
  -------         ENDDO         
  C:C9FFH         LINE#         1320
  C:C9FFH         LINE#         1321
  C:C9FFH         LINE#         1325
  C:CA04H         LINE#         1326
  C:CA04H         LINE#         1327
  C:CA0BH         LINE#         1328
  C:CA12H         LINE#         1329
  C:CA18H         LINE#         1330
  C:CA1BH         LINE#         1331
  C:CA22H         LINE#         1332
  C:CA2EH         LINE#         1334
  C:CA33H         LINE#         1335
  C:CA33H         LINE#         1336
  C:CA39H         LINE#         1337
  C:CA3FH         LINE#         1338
  C:CA42H         LINE#         1339
  C:CA49H         LINE#         1340
  C:CA55H         LINE#         1341
  C:CA5AH         LINE#         1343
  C:CA5FH         LINE#         1344
  C:CA5FH         LINE#         1345
  C:CA65H         LINE#         1346
  C:CA6BH         LINE#         1347
  C:CA6EH         LINE#         1348
  C:CA75H         LINE#         1349
  C:CA81H         LINE#         1350
  C:CA86H         LINE#         1351
  C:CA86H         LINE#         1352
  C:CA8DH         LINE#         1353
  C:CA94H         LINE#         1354
  C:CA9AH         LINE#         1355
  C:CA9DH         LINE#         1356
  C:CAA4H         LINE#         1357
  C:CAB0H         LINE#         1358
  -------         ENDPROC       XIYANG_8
  -------         PROC          XIYANG_9
  -------         DO            
  X:0217H         SYMBOL        j
  X:0218H         SYMBOL        i
  -------         ENDDO         
  C:7A7CH         LINE#         1366
  C:7A7CH         LINE#         1367
  C:7A7CH         LINE#         1369
  C:7A81H         LINE#         1370
  C:7A81H         LINE#         1371
  C:7A87H         LINE#         1372
  C:7A8CH         LINE#         1373
  C:7A90H         LINE#         1375
  C:7A94H         LINE#         1376
  C:7A99H         LINE#         1377
  C:7A9DH         LINE#         1378
  C:7AA0H         LINE#         1379
BL51 BANKED LINKER/LOCATER V6.22                                                      06/24/2016  11:44:38  PAGE 170


  C:7AA7H         LINE#         1380
  C:7AB3H         LINE#         1381
  C:7AB8H         LINE#         1382
  C:7AB8H         LINE#         1383
  C:7ABDH         LINE#         1384
  C:7ABDH         LINE#         1385
  C:7AC3H         LINE#         1386
  C:7AC7H         LINE#         1388
  C:7ACBH         LINE#         1389
  C:7ACFH         LINE#         1391
  C:7AD6H         LINE#         1392
  C:7ADDH         LINE#         1393
  C:7AE0H         LINE#         1394
  C:7AE7H         LINE#         1395
  C:7AF3H         LINE#         1396
  C:7AF8H         LINE#         1397
  C:7AF8H         LINE#         1398
  C:7AFEH         LINE#         1399
  C:7B03H         LINE#         1400
  C:7B07H         LINE#         1401
  C:7B0DH         LINE#         1402
  C:7B11H         LINE#         1404
  C:7B18H         LINE#         1405
  C:7B1FH         LINE#         1406
  C:7B22H         LINE#         1407
  C:7B29H         LINE#         1408
  C:7B35H         LINE#         1410
  C:7B3AH         LINE#         1411
  C:7B3AH         LINE#         1412
  C:7B40H         LINE#         1413
  C:7B45H         LINE#         1414
  C:7B49H         LINE#         1415
  C:7B4FH         LINE#         1416
  C:7B53H         LINE#         1418
  C:7B5AH         LINE#         1419
  C:7B61H         LINE#         1420
  C:7B64H         LINE#         1421
  C:7B6BH         LINE#         1422
  C:7B77H         LINE#         1424
  C:7B7CH         LINE#         1425
  C:7B7CH         LINE#         1426
  C:7B82H         LINE#         1427
  C:7B86H         LINE#         1429
  C:7B8AH         LINE#         1430
  C:7B8EH         LINE#         1432
  C:7B94H         LINE#         1433
  C:7B9AH         LINE#         1435
  C:7BA0H         LINE#         1436
  C:7BA6H         LINE#         1437
  C:7BA9H         LINE#         1438
  C:7BB0H         LINE#         1439
  C:7BBCH         LINE#         1440
  C:7BC1H         LINE#         1441
  C:7BC1H         LINE#         1442
  C:7BC7H         LINE#         1443
  C:7BCBH         LINE#         1445
  C:7BD2H         LINE#         1446
BL51 BANKED LINKER/LOCATER V6.22                                                      06/24/2016  11:44:38  PAGE 171


  C:7BD9H         LINE#         1448
  C:7BE0H         LINE#         1449
  C:7BE7H         LINE#         1450
  C:7BEAH         LINE#         1451
  C:7BF1H         LINE#         1452
  C:7BFDH         LINE#         1453
  C:7C0CH         LINE#         1454
  C:7C0CH         LINE#         1455
  C:7C12H         LINE#         1456
  C:7C16H         LINE#         1458
  C:7C1AH         LINE#         1459
  C:7C1EH         LINE#         1461
  C:7C24H         LINE#         1462
  C:7C2AH         LINE#         1464
  C:7C30H         LINE#         1465
  C:7C36H         LINE#         1467
  C:7C3FH         LINE#         1468
  C:7C3FH         LINE#         1469
  C:7C45H         LINE#         1470
  C:7C4BH         LINE#         1472
  C:7C51H         LINE#         1473
  C:7C57H         LINE#         1474
  C:7C57H         LINE#         1475
  C:7C5AH         LINE#         1476
  C:7C61H         LINE#         1477
  C:7C69H         LINE#         1480
  C:7C6EH         LINE#         1481
  C:7C6EH         LINE#         1482
  C:7C75H         LINE#         1483
  C:7C7CH         LINE#         1484
  C:7C7FH         LINE#         1485
  C:7C86H         LINE#         1486
  C:7C92H         LINE#         1487
  C:7CA1H         LINE#         1488
  C:7CA6H         LINE#         1489
  C:7CA6H         LINE#         1490
  C:7CACH         LINE#         1491
  C:7CB1H         LINE#         1492
  C:7CB5H         LINE#         1494
  C:7CB9H         LINE#         1495
  C:7CBEH         LINE#         1496
  C:7CC2H         LINE#         1497
  C:7CC5H         LINE#         1498
  C:7CCCH         LINE#         1499
  C:7CD8H         LINE#         1500
  C:7CDDH         LINE#         1501
  -------         ENDPROC       XIYANG_9
  -------         PROC          XIYANG_10
  -------         DO            
  X:0217H         SYMBOL        j
  X:0218H         SYMBOL        i
  -------         ENDDO         
  C:7CE0H         LINE#         1510
  C:7CE0H         LINE#         1511
  C:7CE0H         LINE#         1513
  C:7CE5H         LINE#         1514
  C:7CE5H         LINE#         1515
BL51 BANKED LINKER/LOCATER V6.22                                                      06/24/2016  11:44:38  PAGE 172


  C:7CEBH         LINE#         1516
  C:7CF0H         LINE#         1517
  C:7CF4H         LINE#         1519
  C:7CF8H         LINE#         1520
  C:7CFDH         LINE#         1521
  C:7D01H         LINE#         1522
  C:7D04H         LINE#         1523
  C:7D0BH         LINE#         1524
  C:7D17H         LINE#         1526
  C:7D1CH         LINE#         1527
  C:7D1CH         LINE#         1528
  C:7D21H         LINE#         1529
  C:7D21H         LINE#         1530
  C:7D27H         LINE#         1531
  C:7D2BH         LINE#         1533
  C:7D2FH         LINE#         1534
  C:7D33H         LINE#         1536
  C:7D3AH         LINE#         1537
  C:7D41H         LINE#         1538
  C:7D44H         LINE#         1539
  C:7D4BH         LINE#         1540
  C:7D57H         LINE#         1541
  C:7D5CH         LINE#         1542
  C:7D5CH         LINE#         1543
  C:7D62H         LINE#         1544
  C:7D67H         LINE#         1545
  C:7D6BH         LINE#         1546
  C:7D71H         LINE#         1547
  C:7D75H         LINE#         1548
  C:7D7CH         LINE#         1549
  C:7D83H         LINE#         1550
  C:7D86H         LINE#         1551
  C:7D8DH         LINE#         1552
  C:7D99H         LINE#         1554
  C:7D9EH         LINE#         1555
  C:7D9EH         LINE#         1556
  C:7DA4H         LINE#         1557
  C:7DA9H         LINE#         1558
  C:7DADH         LINE#         1559
  C:7DB3H         LINE#         1560
  C:7DB7H         LINE#         1561
  C:7DBEH         LINE#         1562
  C:7DC5H         LINE#         1563
  C:7DC8H         LINE#         1564
  C:7DCFH         LINE#         1565
  C:7DDBH         LINE#         1567
  C:7DE0H         LINE#         1568
  C:7DE0H         LINE#         1569
  C:7DE6H         LINE#         1570
  C:7DEAH         LINE#         1572
  C:7DEEH         LINE#         1573
  C:7DF2H         LINE#         1575
  C:7DF8H         LINE#         1576
  C:7DFEH         LINE#         1578
  C:7E04H         LINE#         1579
  C:7E0AH         LINE#         1580
  C:7E0DH         LINE#         1581
BL51 BANKED LINKER/LOCATER V6.22                                                      06/24/2016  11:44:38  PAGE 173


  C:7E14H         LINE#         1582
  C:7E20H         LINE#         1583
  C:7E25H         LINE#         1584
  C:7E25H         LINE#         1585
  C:7E2BH         LINE#         1586
  C:7E2FH         LINE#         1588
  C:7E36H         LINE#         1589
  C:7E3DH         LINE#         1591
  C:7E44H         LINE#         1592
  C:7E4BH         LINE#         1593
  C:7E4EH         LINE#         1594
  C:7E55H         LINE#         1595
  C:7E61H         LINE#         1596
  C:7E70H         LINE#         1597
  C:7E70H         LINE#         1598
  C:7E76H         LINE#         1599
  C:7E7AH         LINE#         1601
  C:7E7EH         LINE#         1602
  C:7E82H         LINE#         1604
  C:7E88H         LINE#         1605
  C:7E8EH         LINE#         1607
  C:7E94H         LINE#         1608
  C:7E9AH         LINE#         1610
  C:7EA3H         LINE#         1611
  C:7EA3H         LINE#         1612
  C:7EA9H         LINE#         1613
  C:7EAFH         LINE#         1615
  C:7EB5H         LINE#         1616
  C:7EBBH         LINE#         1617
  C:7EBBH         LINE#         1618
  C:7EBEH         LINE#         1619
  C:7EC5H         LINE#         1620
  C:7ECDH         LINE#         1623
  C:7ED2H         LINE#         1624
  C:7ED2H         LINE#         1625
  C:7ED9H         LINE#         1626
  C:7EE0H         LINE#         1627
  C:7EE3H         LINE#         1628
  C:7EEAH         LINE#         1629
  C:7EF6H         LINE#         1631
  C:7F05H         LINE#         1633
  C:7F0AH         LINE#         1634
  C:7F0AH         LINE#         1635
  C:7F10H         LINE#         1636
  C:7F15H         LINE#         1637
  C:7F19H         LINE#         1639
  C:7F1DH         LINE#         1640
  C:7F22H         LINE#         1641
  C:7F26H         LINE#         1642
  C:7F29H         LINE#         1643
  C:7F30H         LINE#         1644
  C:7F3CH         LINE#         1645
  C:7F41H         LINE#         1646
  -------         ENDPROC       XIYANG_10
  -------         PROC          QIAOXIYANG
  C:E080H         LINE#         1654
  C:E080H         LINE#         1655
BL51 BANKED LINKER/LOCATER V6.22                                                      06/24/2016  11:44:38  PAGE 174


  C:E080H         LINE#         1656
  C:E083H         LINE#         1657
  C:E086H         LINE#         1658
  C:E089H         LINE#         1659
  C:E08CH         LINE#         1660
  C:E08FH         LINE#         1661
  C:E092H         LINE#         1662
  C:E095H         LINE#         1663
  C:E098H         LINE#         1664
  C:E09BH         LINE#         1665
  C:E09EH         LINE#         1666
  -------         ENDPROC       QIAOXIYANG
  -------         ENDMOD        QIAOXIYANG

  -------         MODULE        HT1621
  C:0000H         SYMBOL        _ICE_DUMMY_
  D:0080H         PUBLIC        P0
  D:0090H         PUBLIC        P1
  D:00A0H         PUBLIC        P2
  D:00B0H         PUBLIC        P3
  D:00C0H         PUBLIC        P4
  D:00C8H         PUBLIC        P5
  D:00E8H         PUBLIC        P6
  D:00F8H         PUBLIC        P7
  X:032EH         PUBLIC        IR_SampleCnt
  D:00A8H         PUBLIC        IE
  X:032FH         PUBLIC        IR_DataShit
  C:E1A6H         PUBLIC        Inf_Init
  X:0330H         PUBLIC        IR_data
  X:0331H         PUBLIC        IR_code
  D:00B8H         PUBLIC        IP
  D:00D8H         PUBLIC        CCON
  B:0022H.3       PUBLIC        B_IrUserErr
  B:0022H.4       PUBLIC        B_IR_Press
  D:0098H         PUBLIC        SCON
  D:0089H         PUBLIC        TMOD
  D:0088H         PUBLIC        TCON
  B:00B0H.2       PUBLIC        P32
  B:0022H.5       PUBLIC        B_IR_Sync
  D:00F0H         PUBLIC        B
  X:0332H         PUBLIC        IR_BitCnt
  B:00A8H.3       PUBLIC        ET1
  B:0088H.7       PUBLIC        TF1
  D:008DH         PUBLIC        TH1
  B:0088H.0       PUBLIC        IT0
  B:00A8H.0       PUBLIC        EX0
  C:E0E0H         PUBLIC        INT0_Interrupt
  D:008BH         PUBLIC        TL1
  B:00B0H.2       PUBLIC        P_IR_RX
  B:0088H.6       PUBLIC        TR1
  X:0333H         PUBLIC        IR_UserH
  C:C25FH         PUBLIC        Timer1_Interrupt
  X:0334H         PUBLIC        IR_UserL
  B:0022H.6       PUBLIC        P_IR_RX_temp
  B:00D0H.5       PUBLIC        F0
  X:0335H         PUBLIC        SampleTime
  D:00D0H         PUBLIC        PSW
BL51 BANKED LINKER/LOCATER V6.22                                                      06/24/2016  11:44:38  PAGE 175


  -------         PROC          INF_INIT
  C:E1A6H         LINE#         180
  C:E1A6H         LINE#         181
  C:E1A6H         LINE#         182
  C:E1A8H         LINE#         183
  C:E1ABH         LINE#         184
  C:E1AEH         LINE#         185
  C:E1B1H         LINE#         186
  C:E1B3H         LINE#         187
  C:E1B5H         LINE#         188
  C:E1B7H         LINE#         190
  C:E1B9H         LINE#         191
  C:E1BBH         LINE#         194
  -------         ENDPROC       INF_INIT
  -------         PROC          INT0_INTERRUPT
  C:E0E0H         LINE#         197
  C:E0E6H         LINE#         199
  C:E0E8H         LINE#         200
  C:E0EBH         LINE#         201
  C:E0EEH         LINE#         202
  C:E0F3H         LINE#         203
  C:E0F5H         LINE#         204
  C:E0F7H         LINE#         205
  -------         ENDPROC       INT0_INTERRUPT
  -------         PROC          TIMER1_INTERRUPT
  C:C25FH         LINE#         208
  C:C26EH         LINE#         212
  C:C274H         LINE#         214
  C:C278H         LINE#         215
  C:C27CH         LINE#         216
  C:C288H         LINE#         217
  C:C288H         LINE#         218
  C:C28EH         LINE#         219
  C:C293H         LINE#         221
  C:C29EH         LINE#         222
  C:C2A8H         LINE#         223
  C:C2A8H         LINE#         224
  C:C2ADH         LINE#         225
  C:C2ADH         LINE#         226
  C:C2AFH         LINE#         227
  C:C2B5H         LINE#         228
  C:C2B5H         LINE#         229
  C:C2B7H         LINE#         230
  C:C2BAH         LINE#         231
  C:C2BAH         LINE#         232
  C:C2C4H         LINE#         234
  C:C2C4H         LINE#         235
  C:C2CBH         LINE#         236
  C:C2DBH         LINE#         237
  C:C2E3H         LINE#         238
  C:C2E3H         LINE#         239
  C:C2E5H         LINE#         240
  C:C2F1H         LINE#         241
  C:C2F1H         LINE#         242
  C:C2FDH         LINE#         244
  C:C301H         LINE#         245
  C:C303H         LINE#         247
BL51 BANKED LINKER/LOCATER V6.22                                                      06/24/2016  11:44:38  PAGE 176


  C:C308H         LINE#         248
  C:C30AH         LINE#         249
  C:C30CH         LINE#         251
  C:C30CH         LINE#         252
  C:C30EH         LINE#         253
  C:C316H         LINE#         254
  C:C316H         LINE#         255
  C:C31AH         LINE#         256
  C:C322H         LINE#         257
  C:C328H         LINE#         258
  C:C328H         LINE#         259
  C:C328H         LINE#         260
  C:C328H         LINE#         261
  C:C328H         LINE#         262
  -------         ENDPROC       TIMER1_INTERRUPT
  -------         ENDMOD        HT1621

  -------         MODULE        ?C?FPMUL
  C:1B50H         PUBLIC        ?C?FPMUL
  -------         ENDMOD        ?C?FPMUL

  -------         MODULE        ?C?FPDIV
  C:1C59H         PUBLIC        ?C?FPDIV
  -------         ENDMOD        ?C?FPDIV

  -------         MODULE        ?C?FCAST
  C:1D00H         PUBLIC        ?C?FCASTC
  C:1CFBH         PUBLIC        ?C?FCASTI
  C:1CF6H         PUBLIC        ?C?FCASTL
  -------         ENDMOD        ?C?FCAST

  -------         MODULE        ?C?CASTF
  C:1D34H         PUBLIC        ?C?CASTF
  -------         ENDMOD        ?C?CASTF

  -------         MODULE        PRINTF
  X:0204H         PUBLIC        ?_PRINTF?BYTE
  X:0204H         PUBLIC        ?_SPRINTF?BYTE
  C:3459H         PUBLIC        _PRINTF
  C:3453H         PUBLIC        _SPRINTF
  -------         ENDMOD        PRINTF

  -------         MODULE        ?C?FPROUND
  C:1DB5H         PUBLIC        ?C?FPROUND
  -------         ENDMOD        ?C?FPROUND

  -------         MODULE        ?C?FPCONVERT
  C:1DF2H         PUBLIC        ?C?FPCONVERT
  -------         ENDMOD        ?C?FPCONVERT

  -------         MODULE        ?C?FPADD
  C:1EFEH         PUBLIC        ?C?FPADD
  C:1EFAH         PUBLIC        ?C?FPSUB
  -------         ENDMOD        ?C?FPADD

  -------         MODULE        ?C?FTNPWR
  C:201FH         PUBLIC        ?C?FTNPWR
BL51 BANKED LINKER/LOCATER V6.22                                                      06/24/2016  11:44:38  PAGE 177


  -------         ENDMOD        ?C?FTNPWR

  -------         MODULE        ?C?COPY
  C:212FH         PUBLIC        ?C?COPY
  -------         ENDMOD        ?C?COPY

  -------         MODULE        ?C?CLDPTR
  C:2155H         PUBLIC        ?C?CLDPTR
  -------         ENDMOD        ?C?CLDPTR

  -------         MODULE        ?C?CLDOPTR
  C:216EH         PUBLIC        ?C?CLDOPTR
  -------         ENDMOD        ?C?CLDOPTR

  -------         MODULE        ?C?CSTPTR
  C:219BH         PUBLIC        ?C?CSTPTR
  -------         ENDMOD        ?C?CSTPTR

  -------         MODULE        ?C?IMUL
  C:21ADH         PUBLIC        ?C?IMUL
  -------         ENDMOD        ?C?IMUL

  -------         MODULE        ?C?UIDIV
  C:21BFH         PUBLIC        ?C?UIDIV
  -------         ENDMOD        ?C?UIDIV

  -------         MODULE        ?C?IILDX
  C:2214H         PUBLIC        ?C?IILDX
  -------         ENDMOD        ?C?IILDX

  -------         MODULE        ?C?ILDPTR
  C:222AH         PUBLIC        ?C?ILDPTR
  -------         ENDMOD        ?C?ILDPTR

  -------         MODULE        ?C?IILDPTR
  C:2255H         PUBLIC        ?C?IILDPTR
  -------         ENDMOD        ?C?IILDPTR

  -------         MODULE        ?C?ISTPTR
  C:228DH         PUBLIC        ?C?ISTPTR
  -------         ENDMOD        ?C?ISTPTR

  -------         MODULE        ?C?LNEG
  C:22ACH         PUBLIC        ?C?LNEG
  -------         ENDMOD        ?C?LNEG

  -------         MODULE        ?C?SLCMP
  C:22BAH         PUBLIC        ?C?SLCMP
  -------         ENDMOD        ?C?SLCMP

  -------         MODULE        ?C?ULCMP
  C:22D0H         PUBLIC        ?C?ULCMP
  -------         ENDMOD        ?C?ULCMP

  -------         MODULE        ?C?ULSHR
  C:22E1H         PUBLIC        ?C?ULSHR
  -------         ENDMOD        ?C?ULSHR
BL51 BANKED LINKER/LOCATER V6.22                                                      06/24/2016  11:44:38  PAGE 178



  -------         MODULE        ?C?LSHL
  C:22F4H         PUBLIC        ?C?LSHL
  -------         ENDMOD        ?C?LSHL

  -------         MODULE        ?C?LLDPTR
  C:2307H         PUBLIC        ?C?LLDPTR
  -------         ENDMOD        ?C?LLDPTR

  -------         MODULE        ?C?LSTXDATA
  C:2327H         PUBLIC        ?C?LSTXDATA
  -------         ENDMOD        ?C?LSTXDATA

  -------         MODULE        ?C?LSTKXDATA
  C:2333H         PUBLIC        ?C?LSTKXDATA
  -------         ENDMOD        ?C?LSTKXDATA

  -------         MODULE        ?C?PLDIXDATA
  C:2364H         PUBLIC        ?C?PLDIXDATA
  -------         ENDMOD        ?C?PLDIXDATA

  -------         MODULE        ?C?PSTXDATA
  C:237BH         PUBLIC        ?C?PSTXDATA
  -------         ENDMOD        ?C?PSTXDATA

  -------         MODULE        ?C?CCASE
  C:2384H         PUBLIC        ?C?CCASE
  -------         ENDMOD        ?C?CCASE

  -------         MODULE        ?C?ICASE
  C:23AAH         PUBLIC        ?C?ICASE
  -------         ENDMOD        ?C?ICASE

  -------         MODULE        PUTCHAR
  C:DFCEH         PUBLIC        _PUTCHAR
  -------         ENDMOD        PUTCHAR

  -------         MODULE        ABS
  C:E271H         PUBLIC        _ABS
  -------         ENDMOD        ABS

  -------         MODULE        ?C?STRCPY
  C:24A3H         PUBLIC        ?C?STRCPY
  -------         ENDMOD        ?C?STRCPY

  -------         MODULE        SETJMP
  C:D358H         PUBLIC        _LONGJMP
  C:D327H         PUBLIC        _SETJMP
  -------         ENDMOD        SETJMP

  -------         MODULE        ?C?CSTOPTR
  C:24C0H         PUBLIC        ?C?CSTOPTR
  -------         ENDMOD        ?C?CSTOPTR

  -------         MODULE        ?C?ILDOPTR
  C:24E2H         PUBLIC        ?C?ILDOPTR
  -------         ENDMOD        ?C?ILDOPTR
BL51 BANKED LINKER/LOCATER V6.22                                                      06/24/2016  11:44:38  PAGE 179



  -------         MODULE        ?C?ISTOPTR
  C:251AH         PUBLIC        ?C?ISTOPTR
  -------         ENDMOD        ?C?ISTOPTR

  -------         MODULE        ?C?LLDIDATA
  C:2547H         PUBLIC        ?C?LLDIDATA
  -------         ENDMOD        ?C?LLDIDATA

  -------         MODULE        ?C?LLDXDATA
  C:2553H         PUBLIC        ?C?LLDXDATA
  -------         ENDMOD        ?C?LLDXDATA

  -------         MODULE        ?C?LLDPDATA
  C:255FH         PUBLIC        ?C?LLDPDATA
  -------         ENDMOD        ?C?LLDPDATA

  -------         MODULE        ?C?LLDCODE
  C:256BH         PUBLIC        ?C?LLDCODE
  -------         ENDMOD        ?C?LLDCODE

  -------         MODULE        ?C_XBP
  D:000DH         PUBLIC        ?C_XBP
  -------         ENDMOD        ?C_XBP

  -------         MODULE        ?C_IBP
  D:000FH         PUBLIC        ?C_IBP
  -------         ENDMOD        ?C_IBP

  -------         MODULE        ?C_PBP
  D:0010H         PUBLIC        ?C_PBP
  -------         ENDMOD        ?C_PBP

*** WARNING L13: RECURSIVE CALL TO SEGMENT
    SEGMENT: ?PR?PWM_24?MAIN
    CALLER:  ?PR?ADC_ADJUST?ADC

*** WARNING L13: RECURSIVE CALL TO SEGMENT
    SEGMENT: ?PR?_P_TO_P?BASAL
    CALLER:  ?PR?HPQ?BASAL

*** WARNING L13: RECURSIVE CALL TO SEGMENT
    SEGMENT: ?PR?_P_TO_P?BASAL
    CALLER:  ?PR?QIANPQ?BASAL

*** WARNING L16: UNCALLED SEGMENT, IGNORED FOR OVERLAY PROCESS
    SEGMENT: ?PR?_UART1_PRINTSTRING?MAIN

*** WARNING L16: UNCALLED SEGMENT, IGNORED FOR OVERLAY PROCESS
    SEGMENT: ?PR?CH376ENDDIRINFO?MAIN

*** WARNING L16: UNCALLED SEGMENT, IGNORED FOR OVERLAY PROCESS
    SEGMENT: ?PR?CH376GETDISKSTATUS?MAIN

*** WARNING L16: UNCALLED SEGMENT, IGNORED FOR OVERLAY PROCESS
    SEGMENT: ?PR?_FM300MS?BUZZ

BL51 BANKED LINKER/LOCATER V6.22                                                      06/24/2016  11:44:38  PAGE 180


*** WARNING L16: UNCALLED SEGMENT, IGNORED FOR OVERLAY PROCESS
    SEGMENT: ?PR?_FM50MS?BUZZ

*** WARNING L16: UNCALLED SEGMENT, IGNORED FOR OVERLAY PROCESS
    SEGMENT: ?PR?_FM1MS?BUZZ

*** WARNING L16: UNCALLED SEGMENT, IGNORED FOR OVERLAY PROCESS
    SEGMENT: ?PR?INITIAL_POSITION_SLOW?BASAL

*** WARNING L16: UNCALLED SEGMENT, IGNORED FOR OVERLAY PROCESS
    SEGMENT: ?PR?FUWEI?BASAL

*** WARNING L16: UNCALLED SEGMENT, IGNORED FOR OVERLAY PROCESS
    SEGMENT: ?PR?QIMA?WALKING

*** WARNING L16: UNCALLED SEGMENT, IGNORED FOR OVERLAY PROCESS
    SEGMENT: ?PR?TABU1?WALKING

Program Size: data=20.7 xdata=832 code=58052
LINK/LOCATE RUN COMPLETE.  13 WARNING(S),  0 ERROR(S)
