BL51 BANKED LINKER/LOCATER V6.00                                                        09/09/2017  17:29:44  PAGE 1


BL51 BANKED LINKER/LOCATER V6.00, INVOKED BY:
C:\KEIL\C51\BIN\BL51.EXE main.obj, delay.obj, tuxinghua.obj, adc.obj, BUZZ.obj, basal.obj, walking.obj, jiewu.obj, ticao
>> .obj, qianshou.obj, qiaoxiyang.obj, HT1621.obj TO SHProject RAMSIZE (256)




PROGRAM RECURSIONS REMOVED FROM CALL TREE
=========================================
+--> ?PR?PWM_24?MAIN
<--+ ?PR?ADC_ADJUST?ADC


+--> ?PR?_P_TO_P?BASAL
|  | ?PR?PWM_24?MAIN
|  | ?PR?ADC_ADJUST?ADC
<--+ ?PR?HPQ?BASAL


+--> ?PR?_P_TO_P?BASAL
|  | ?PR?PWM_24?MAIN
|  | ?PR?ADC_ADJUST?ADC
<--+ ?PR?QIANPQ?BASAL



MEMORY MODEL: LARGE WITH FLOATING POINT ARITHMETIC


INPUT MODULES INCLUDED:
  main.obj (MAIN)
  delay.obj (DELAY)
  tuxinghua.obj (TUXINGHUA)
  adc.obj (ADC)
  BUZZ.obj (BUZZ)
  basal.obj (BASAL)
  walking.obj (WALKING)
  jiewu.obj (JIEWU)
  ticao.obj (TICAO)
  qianshou.obj (QIANSHOU)
  qiaoxiyang.obj (QIAOXIYANG)
  HT1621.obj (HT1621)
  C:\KEIL\C51\LIB\C51FPL.LIB (?C?FPMUL)
  C:\KEIL\C51\LIB\C51FPL.LIB (?C?FPDIV)
  C:\KEIL\C51\LIB\C51FPL.LIB (?C?FCAST)
  C:\KEIL\C51\LIB\C51FPL.LIB (?C?CASTF)
  C:\KEIL\C51\LIB\C51FPL.LIB (PRINTF)
  C:\KEIL\C51\LIB\C51FPL.LIB (?C?FPGETOPN)
  C:\KEIL\C51\LIB\C51FPL.LIB (?C?FPROUND)
  C:\KEIL\C51\LIB\C51FPL.LIB (?C?FPCONVERT)
  C:\KEIL\C51\LIB\C51FPL.LIB (?C?FPADD)
  C:\KEIL\C51\LIB\C51FPL.LIB (?C?FTNPWR)
  C:\KEIL\C51\LIB\C51L.LIB (?C_STARTUP)
  C:\KEIL\C51\LIB\C51L.LIB (?C?COPY)
  C:\KEIL\C51\LIB\C51L.LIB (?C?CLDPTR)
  C:\KEIL\C51\LIB\C51L.LIB (?C?CLDOPTR)
  C:\KEIL\C51\LIB\C51L.LIB (?C?CSTPTR)
  C:\KEIL\C51\LIB\C51L.LIB (?C?IMUL)
BL51 BANKED LINKER/LOCATER V6.00                                                      09/09/2017  17:29:44  PAGE 2


  C:\KEIL\C51\LIB\C51L.LIB (?C?UIDIV)
  C:\KEIL\C51\LIB\C51L.LIB (?C?IILDX)
  C:\KEIL\C51\LIB\C51L.LIB (?C?ILDPTR)
  C:\KEIL\C51\LIB\C51L.LIB (?C?IILDPTR)
  C:\KEIL\C51\LIB\C51L.LIB (?C?ISTPTR)
  C:\KEIL\C51\LIB\C51L.LIB (?C?LNEG)
  C:\KEIL\C51\LIB\C51L.LIB (?C?SLCMP)
  C:\KEIL\C51\LIB\C51L.LIB (?C?ULCMP)
  C:\KEIL\C51\LIB\C51L.LIB (?C?ULSHR)
  C:\KEIL\C51\LIB\C51L.LIB (?C?LSHL)
  C:\KEIL\C51\LIB\C51L.LIB (?C?LLDPTR)
  C:\KEIL\C51\LIB\C51L.LIB (?C?LSTXDATA)
  C:\KEIL\C51\LIB\C51L.LIB (?C?LSTKXDATA)
  C:\KEIL\C51\LIB\C51L.LIB (?C?PLDIXDATA)
  C:\KEIL\C51\LIB\C51L.LIB (?C?PSTXDATA)
  C:\KEIL\C51\LIB\C51L.LIB (?C?CCASE)
  C:\KEIL\C51\LIB\C51L.LIB (?C?ICASE)
  C:\KEIL\C51\LIB\C51L.LIB (PUTCHAR)
  C:\KEIL\C51\LIB\C51L.LIB (ABS)
  C:\KEIL\C51\LIB\C51L.LIB (?C?STRCPY)
  C:\KEIL\C51\LIB\C51L.LIB (SETJMP)
  C:\KEIL\C51\LIB\C51L.LIB (?C_INIT)
  C:\KEIL\C51\LIB\C51L.LIB (?C?CSTOPTR)
  C:\KEIL\C51\LIB\C51L.LIB (?C?ILDOPTR)
  C:\KEIL\C51\LIB\C51L.LIB (?C?ISTOPTR)
  C:\KEIL\C51\LIB\C51L.LIB (?C?LLDIDATA)
  C:\KEIL\C51\LIB\C51L.LIB (?C?LLDXDATA)
  C:\KEIL\C51\LIB\C51L.LIB (?C?LLDPDATA)
  C:\KEIL\C51\LIB\C51L.LIB (?C?LLDCODE)
  C:\KEIL\C51\LIB\C51L.LIB (?C_XBP)
  C:\KEIL\C51\LIB\C51L.LIB (?C_IBP)
  C:\KEIL\C51\LIB\C51L.LIB (?C_PBP)


LINK MAP OF MODULE:  SHProject (MAIN)


            TYPE    BASE      LENGTH    RELOCATION   SEGMENT NAME
            -----------------------------------------------------

            * * * * * * *   D A T A   M E M O R Y   * * * * * * *
            REG     0000H     0008H     ABSOLUTE     "REG BANK 0"
            DATA    0008H     0005H     UNIT         _DATA_GROUP_
            DATA    000DH     0004H     UNIT         ?C?LIB_DATA
                    0011H     000FH                  *** GAP ***
            BIT     0020H.0   0001H.2   UNIT         _BIT_GROUP_
            BIT     0021H.2   0001H.1   UNIT         ?BI?MAIN
            BIT     0022H.3   0000H.4   UNIT         ?BI?HT1621
                    0022H.7   0000H.1                *** GAP ***
            IDATA   0023H     0001H     UNIT         ?STACK

            * * * * * * *  X D A T A   M E M O R Y  * * * * * * *
            XDATA   0000H     01D8H     UNIT         ?XD?MAIN
            XDATA   01D8H     00A1H     UNIT         _XDATA_GROUP_
            XDATA   0279H     0074H     UNIT         ?XD?BASAL
            XDATA   02EDH     0030H     UNIT         ?XD?TUXINGHUA
            XDATA   031DH     0014H     UNIT         ?XD?ADC
BL51 BANKED LINKER/LOCATER V6.00                                                      09/09/2017  17:29:44  PAGE 3


            XDATA   0331H     0008H     UNIT         ?XD?HT1621
            XDATA   0339H     0002H     UNIT         ?XD?_FM300MS?BUZZ
            XDATA   033BH     0002H     UNIT         ?XD?_FM50MS?BUZZ
            XDATA   033DH     0002H     UNIT         ?XD?_FM1MS?BUZZ

            * * * * * * *   C O D E   M E M O R Y   * * * * * * *
            CODE    0000H     0003H     ABSOLUTE     
            CODE    0003H     0003H     ABSOLUTE     
            CODE    0006H     0004H     UNIT         ?PR?DELAY1US_PSX?MAIN
            CODE    000AH     0001H     UNIT         ?PR?XIYANG_1?QIAOXIYANG
            CODE    000BH     0003H     ABSOLUTE     
            CODE    000EH     000DH     UNIT         ?PR?UART4_RESETBAUTERATE?MAIN
            CODE    001BH     0003H     ABSOLUTE     
            CODE    001EH     0001H     UNIT         ?PR?XIYANG_2?QIAOXIYANG
            CODE    001FH     0001H     UNIT         ?PR?XIYANG_3?QIAOXIYANG
            CODE    0020H     0001H     UNIT         ?PR?XIYANG_4?QIAOXIYANG
                    0021H     0002H                  *** GAP ***
            CODE    0023H     0003H     ABSOLUTE     
                    0026H     0005H                  *** GAP ***
            CODE    002BH     0003H     ABSOLUTE     
            CODE    002EH     0013H     UNIT         ?PR?_DELAY500US?DELAY
                    0041H     0002H                  *** GAP ***
            CODE    0043H     0003H     ABSOLUTE     
            CODE    0046H     0045H     UNIT         ?PR?_CH376READBLOCK?MAIN
            CODE    008BH     0003H     ABSOLUTE     
                    008EH     0005H                  *** GAP ***
            CODE    0093H     0003H     ABSOLUTE     
            CODE    0096H     0EADH     UNIT         ?PR?MAIN?MAIN
            CODE    0F43H     0C0CH     UNIT         ?PR?WUDAO?BASAL
            CODE    1B4FH     0A2BH     UNIT         ?C?LIB_CODE
            CODE    257AH     0656H     UNIT         ?PR?DAOLI?BASAL
            CODE    2BD0H     04D0H     UNIT         ?PR?HGF?BASAL
            CODE    30A0H     049EH     UNIT         ?PR?QGF?BASAL
            CODE    353EH     049CH     UNIT         ?PR?XIYANG_6?QIAOXIYANG
            CODE    39DAH     0483H     UNIT         ?PR?PRINTF?PRINTF
            CODE    3E5DH     047DH     UNIT         ?PR?_LOCATION?TUXINGHUA
            CODE    42DAH     0467H     UNIT         ?PR?MAIN1?TUXINGHUA
            CODE    4741H     045DH     UNIT         ?PR?_FWC?BASAL
            CODE    4B9EH     0454H     UNIT         ?PR?PCH?BASAL
            CODE    4FF2H     0417H     UNIT         ?PR?XQ_TD?TICAO
            CODE    5409H     03E3H     UNIT         ?PR?_L_PYI?BASAL
            CODE    57ECH     03E3H     UNIT         ?PR?_R_PYI?BASAL
            CODE    5BCFH     03D4H     UNIT         ?PR?OBTAIN_PSXCODE?MAIN
            CODE    5FA3H     03B4H     UNIT         ?PR?_CYC?TUXINGHUA
            CODE    6357H     039AH     UNIT         ?PR?XIYANG_7?QIAOXIYANG
            CODE    66F1H     035FH     UNIT         ?PR?_SHOU_DD?JIEWU
            CODE    6A50H     033EH     UNIT         ?PR?_QIANSHOU_7?QIANSHOU
            CODE    6D8EH     033AH     UNIT         ?PR?_TURN_RIGHT?BASAL
            CODE    70C8H     0334H     UNIT         ?PR?_TURN_LEFT?BASAL
            CODE    73FCH     0313H     UNIT         ?PR?TICE_YD?TICAO
            CODE    770FH     02F6H     UNIT         ?PR?QIANPQ?BASAL
            CODE    7A05H     02BEH     UNIT         ?PR?_GOAL_L?BASAL
            CODE    7CC3H     02BAH     UNIT         ?PR?_GOAL_R?BASAL
            CODE    7F7DH     02B5H     UNIT         ?PR?KUAIZOU2?WALKING
            CODE    8232H     02B4H     UNIT         ?PR?HOUTUI2?WALKING
            CODE    84E6H     02A1H     UNIT         ?PR?HOUTUI1?WALKING
            CODE    8787H     0278H     UNIT         ?PR?_P_TO_P?BASAL
BL51 BANKED LINKER/LOCATER V6.00                                                      09/09/2017  17:29:44  PAGE 4


            CODE    89FFH     0266H     UNIT         ?C_INITSEG
            CODE    8C65H     0264H     UNIT         ?PR?XIYANG_9?QIAOXIYANG
            CODE    8EC9H     0264H     UNIT         ?PR?XIYANG_10?QIAOXIYANG
            CODE    912DH     0237H     UNIT         ?PR?ADC_ADJUST?ADC
            CODE    9364H     0235H     UNIT         ?PR?YAOBIBAITOU?JIEWU
            CODE    9599H     0233H     UNIT         ?PR?HPQ?BASAL
            CODE    97CCH     0228H     UNIT         ?PR?QIANSHOU_6?QIANSHOU
            CODE    99F4H     020EH     UNIT         ?PR?_QIANSHOU_4?QIANSHOU
            CODE    9C02H     020EH     UNIT         ?PR?_QIANSHOU_10?QIANSHOU
            CODE    9E10H     020DH     UNIT         ?PR?PWM_24?MAIN
            CODE    A01DH     020BH     UNIT         ?PR?QHZY_NIU?JIEWU
            CODE    A228H     01FCH     UNIT         ?PR?HP?BASAL
            CODE    A424H     01F8H     UNIT         ?PR?KUAIZOU1?WALKING
            CODE    A61CH     01F8H     UNIT         ?PR?PY_SS_LEFT?TICAO
            CODE    A814H     01F8H     UNIT         ?PR?PY_SS_RIGHT?TICAO
            CODE    AA0CH     01F4H     UNIT         ?PR?SHENZHAN?TICAO
            CODE    AC00H     01DCH     UNIT         ?PR?QIANPAXIA?BASAL
            CODE    ADDCH     01CEH     UNIT         ?PR?HFH_R?JIEWU
            CODE    AFAAH     01CEH     UNIT         ?PR?HFH_L?JIEWU
            CODE    B178H     01B6H     UNIT         ?PR?_RELATIVE?BASAL
            CODE    B32EH     01A1H     UNIT         ?PR?_WDL_PYI?JIEWU
            CODE    B4CFH     01A1H     UNIT         ?PR?_WDR_PYI?JIEWU
            CODE    B670H     0194H     UNIT         ?PR?XIYANG_5?QIAOXIYANG
            CODE    B804H     0188H     UNIT         ?PR?ZUOGOUQIU?BASAL
            CODE    B98CH     016AH     UNIT         ?PR?YOUGOUQIU?BASAL
            CODE    BAF6H     015FH     UNIT         ?PR?CS_XD_LEFT?TICAO
            CODE    BC55H     015FH     UNIT         ?PR?CS_XD_RIGHT?TICAO
            CODE    BDB4H     0147H     UNIT         ?PR?_YANGWOQIZUO?BASAL
            CODE    BEFBH     013EH     UNIT         ?PR?_INITIAL_POSITION_SLOWONE?BASAL
            CODE    C039H     013BH     UNIT         ?PR?DPZHCH?JIEWU
            CODE    C174H     013BH     UNIT         ?PR?QIANSHOU_1?QIANSHOU
            CODE    C2AFH     0137H     UNIT         ?PR?ADC_INT?ADC
            CODE    C3E6H     0125H     UNIT         ?PR?_QIANSHOU_9?QIANSHOU
            CODE    C50BH     011CH     UNIT         ?PR?_QIANSHOU_3?QIANSHOU
            CODE    C627H     011AH     UNIT         ?PR?DT_L?BASAL
            CODE    C741H     011AH     UNIT         ?PR?DT_R?BASAL
            CODE    C85BH     010DH     UNIT         ?PR?UART2_INTERRUPT?MAIN
            CODE    C968H     0102H     UNIT         ?PR?_READSDCARDFILEALLBYTES?MAIN
            CODE    CA6AH     0102H     UNIT         ?PR?QIANSHOU_8?QIANSHOU
            CODE    CB6CH     00F8H     UNIT         ?PR?_CH376SETFILENAME?MAIN
            CODE    CC64H     00F3H     UNIT         ?PR?_DPZC_1?JIEWU
            CODE    CD57H     00EDH     UNIT         ?PR?KUOXIONG?TICAO
            CODE    CE44H     00D6H     UNIT         ?PR?TIMER1_INTERRUPT?HT1621
            CODE    CF1AH     00CFH     UNIT         ?PR?JIEWU?JIEWU
            CODE    CFE9H     00C8H     UNIT         ?PR?ARRAY?BASAL
            CODE    D0B1H     00C7H     UNIT         ?PR?_CH376SEPARATEPATH?MAIN
            CODE    D178H     00C4H     UNIT         ?PR?_WALK?WALKING
            CODE    D23CH     00C4H     UNIT         ?PR?_HOUTUI?WALKING
            CODE    D300H     00BDH     UNIT         ?PR?QIANSHOU?QIANSHOU
            CODE    D3BDH     00BAH     UNIT         ?PR?TAIJIAOZI?BASAL
            CODE    D477H     00B4H     UNIT         ?PR?XIYANG_8?QIAOXIYANG
            CODE    D52BH     00AFH     UNIT         ?PR?JINGLI_L?BASAL
            CODE    D5DAH     00AAH     UNIT         ?PR?INITIAL_POSITION?BASAL
            CODE    D684H     00AAH     UNIT         ?PR?JINGLI_R?BASAL
            CODE    D72EH     00A9H     UNIT         ?PR?_START_STATUS?WALKING
            CODE    D7D7H     009FH     UNIT         ?PR?TICAO?TICAO
            CODE    D876H     0095H     UNIT         ?PR?_CREATESDCARDFILE?MAIN
BL51 BANKED LINKER/LOCATER V6.00                                                      09/09/2017  17:29:44  PAGE 5


            CODE    D90BH     0094H     UNIT         ?PR?_QIANSHOU_5?QIANSHOU
            CODE    D99FH     008FH     UNIT         ?PR?_CH376FILEOPENDIR?MAIN
            CODE    DA2EH     008CH     UNIT         ?C_C51STARTUP
            CODE    DABAH     008AH     UNIT         ?PR?QIANSHOU_2?QIANSHOU
            CODE    DB44H     0086H     UNIT         ?PR?_QHZY_NIU_2?JIEWU
            CODE    DBCAH     0083H     UNIT         ?PR?_CH376BYTEREAD?MAIN
            CODE    DC4DH     0080H     UNIT         ?PR?CH376READ32BITDAT?MAIN
            CODE    DCCDH     007AH     UNIT         ?PR?FUWEI?BASAL
            CODE    DD47H     0077H     UNIT         ?PR?_CH376BYTEWRITE?MAIN
            CODE    DDBEH     0073H     UNIT         ?PR?_MAX?BASAL
            CODE    DE31H     006BH     UNIT         ?PR?CLEAR_PSXBUFF?MAIN
            CODE    DE9CH     006AH     UNIT         ?PR?CPU_INIT?MAIN
            CODE    DF06H     0063H     UNIT         ?PR?PSXKEY_FILTER?MAIN
            CODE    DF69H     005FH     UNIT         ?PR?SETJMP?SETJMP
            CODE    DFC8H     0059H     UNIT         ?PR?READRAM?TUXINGHUA
            CODE    E021H     0058H     UNIT         ?PR?XREADCH376DATA?MAIN
            CODE    E079H     0058H     UNIT         ?PR?_XIYANG_XIAO7?QIAOXIYANG
            CODE    E0D1H     0055H     UNIT         ?PR?UART1_INTERRUPT?MAIN
            CODE    E126H     0054H     UNIT         ?PR?SETVALUEPARAS?MAIN
            CODE    E17AH     0053H     UNIT         ?PR?WAIT376INTERRUPT?MAIN
            CODE    E1CDH     004FH     UNIT         ?PR?_CH376WRITEVAR32?MAIN
            CODE    E21CH     0049H     UNIT         ?PR?_LEFT_UP?WALKING
            CODE    E265H     0049H     UNIT         ?PR?_RIGHT_UP?WALKING
            CODE    E2AEH     0049H     UNIT         ?PR?_LEFT_DOWN?WALKING
            CODE    E2F7H     0049H     UNIT         ?PR?_RIGHT_DOWN?WALKING
            CODE    E340H     0045H     UNIT         ?PR?_CH376FILEOPEN?MAIN
            CODE    E385H     0042H     UNIT         ?PR?_WRITESDCARDFILEBUFFBYTES?MAIN
            CODE    E3C7H     0042H     UNIT         ?PR?_LOW_LEVEL_500U?BASAL
            CODE    E409H     0042H     UNIT         ?PR?_SIT_DOWN?BASAL
            CODE    E44BH     0042H     UNIT         ?PR?_STAND_UP?BASAL
            CODE    E48DH     0041H     UNIT         ?PR?BACKDELAY?BASAL
            CODE    E4CEH     0041H     UNIT         ?PR?INITIAL_POSITION_SLOW?BASAL
            CODE    E50FH     0040H     UNIT         ?PR?_XSETCH376CMDDATA?MAIN
            CODE    E54FH     003DH     UNIT         ?PR?_READSDCARDFILE32BYTES?MAIN
            CODE    E58CH     003CH     UNIT         ?PR?FORWARDDELAY?BASAL
            CODE    E5C8H     003CH     UNIT         ?PR?_LEFT_FORWARD?WALKING
            CODE    E604H     003CH     UNIT         ?PR?_RIGHT_FORWARD?WALKING
            CODE    E640H     003BH     UNIT         ?PR?_CH376BYTELOCATE?MAIN
            CODE    E67BH     003AH     UNIT         ?PR?QIANSHOU_DOINIT?MAIN
            CODE    E6B5H     0039H     UNIT         ?PR?UART_INIT?MAIN
            CODE    E6EEH     0038H     UNIT         ?PR?_CH376WRITEREQBLOCK?MAIN
            CODE    E726H     0038H     UNIT         ?PR?DOCHECKOUT_ONLINE?MAIN
            CODE    E75EH     0038H     UNIT         ?PR?_LEFT_CS?WALKING
            CODE    E796H     0038H     UNIT         ?PR?_RIGHT_CS?WALKING
            CODE    E7CEH     0036H     UNIT         ?PR?_DELAY1S?DELAY
            CODE    E804H     0035H     UNIT         ?PR?_MP3_SETPLAY?MAIN
            CODE    E839H     0035H     UNIT         ?PR?GET_BALANCE_VALUE?ADC
            CODE    E86EH     0034H     UNIT         ?PR?_XSETCH376CMD?MAIN
            CODE    E8A2H     0033H     UNIT         ?PR?ONLINE_DOINIT?MAIN
            CODE    E8D5H     0032H     UNIT         ?PR?_UART1_PRINTARRAYBYTES?MAIN
            CODE    E907H     002FH     UNIT         ?PR?_MP3_SETVOLUME?MAIN
            CODE    E936H     002EH     UNIT         ?PR?_DUOJI?TUXINGHUA
            CODE    E964H     002DH     UNIT         ?PR?UART1SEND_INITPOSITON?MAIN
            CODE    E991H     002CH     UNIT         ?PR?MINITCH376HOST?MAIN
            CODE    E9BDH     002AH     UNIT         ?PR?_XWRITECH376CMD?MAIN
            CODE    E9E7H     002AH     UNIT         ?PR?_FM300MS?BUZZ
            CODE    EA11H     002AH     UNIT         ?PR?_FM200MS?BUZZ
BL51 BANKED LINKER/LOCATER V6.00                                                      09/09/2017  17:29:44  PAGE 6


            CODE    EA3BH     002AH     UNIT         ?PR?_FM100MS?BUZZ
            CODE    EA65H     002AH     UNIT         ?PR?_FM50MS?BUZZ
            CODE    EA8FH     002AH     UNIT         ?PR?_FM1MS?BUZZ
            CODE    EAB9H     0028H     UNIT         ?PR?_DELAY10MS?DELAY
            CODE    EAE1H     0028H     UNIT         ?PR?_DELAY500MS?DELAY
            CODE    EB09H     0027H     UNIT         ?PR?PUTCHAR?PUTCHAR
            CODE    EB30H     0025H     UNIT         ?PR?_XWRITECH376DATA?MAIN
            CODE    EB55H     0022H     UNIT         ?PR?UART4_INTERRUPT?MAIN
            CODE    EB77H     0022H     UNIT         ?CO?MAIN
            CODE    EB99H     0022H     UNIT         ?CO?TUXINGHUA
            CODE    EBBBH     0021H     UNIT         ?PR?QIAOXIYANG?QIAOXIYANG
            CODE    EBDCH     0020H     UNIT         ?PR?UART3_INTERRUPT?MAIN
            CODE    EBFCH     001FH     UNIT         ?PR?GET_PRESENT_VALUE?ADC
            CODE    EC1BH     001EH     UNIT         ?PR?INT0_INTERRUPT?HT1621
            CODE    EC39H     001BH     UNIT         ?PR?_UART3_PRINTBYTE?MAIN
            CODE    EC54H     0019H     UNIT         ?PR?_DELAY100US?DELAY
            CODE    EC6DH     0019H     UNIT         ?PR?_DELAY1MS?DELAY
            CODE    EC86H     0019H     UNIT         ?PR?T0_INTERRUPT?BASAL
            CODE    EC9FH     0018H     UNIT         ?PR?_UART1_PRINTSTRING?MAIN
            CODE    ECB7H     0018H     UNIT         ?PR?T0_INIT?BASAL
            CODE    ECCFH     0016H     UNIT         ?PR?ACCEL_INIT?MAIN
            CODE    ECE5H     0016H     UNIT         ?PR?INF_INIT?HT1621
            CODE    ECFBH     0013H     UNIT         ?PR?_LOW_LEVEL_T0?BASAL
            CODE    ED0EH     0012H     UNIT         ?PR?INIT_SPI?MAIN
            CODE    ED20H     0012H     UNIT         ?PR?_DELAY8US?DELAY
            CODE    ED32H     0012H     UNIT         ?PR?_DELAY10US?DELAY
            CODE    ED44H     0011H     UNIT         ?PR?MP3_STOP?MAIN
            CODE    ED55H     0011H     UNIT         ?PR?MP3_PAUSE?MAIN
            CODE    ED66H     0011H     UNIT         ?PR?MP3_REPLAY?MAIN
            CODE    ED77H     0011H     UNIT         ?PR?_CH376WRITEVAR8?MAIN
            CODE    ED88H     0011H     UNIT         ?PR?INITIAL_ADC?ADC
            CODE    ED99H     0010H     UNIT         ?PR?_CH376READVAR8?MAIN
            CODE    EDA9H     0010H     UNIT         ?PR?_CH376READVAR32?MAIN
            CODE    EDB9H     0010H     UNIT         ?PR?_CH376SENDCMDDATWAITINT?MAIN
            CODE    EDC9H     000EH     UNIT         ?PR?_CH376FILECREATE?MAIN
            CODE    EDD7H     000CH     UNIT         ?PR?START_ADC?ADC
            CODE    EDE3H     000CH     UNIT         ?PR?_ABS?ABS
            CODE    EDEFH     000BH     UNIT         ?PR?QUERY376INTERRUPT?MAIN
            CODE    EDFAH     000AH     UNIT         ?PR?_UART1_PRINTBYTE?MAIN
            CODE    EE04H     0009H     UNIT         ?PR?CH376GETINTSTATUS?MAIN
            CODE    EE0DH     0008H     UNIT         ?PR?DELAY3US_PSX?MAIN
            CODE    EE15H     0008H     UNIT         ?CO?BASAL
            CODE    EE1DH     0007H     UNIT         ?PR?CH376ENDDIRINFO?MAIN
            CODE    EE24H     0007H     UNIT         ?PR?_CH376SENDCMDWAITINT?MAIN
            CODE    EE2BH     0006H     UNIT         ?PR?CH376GETFILESIZE?MAIN
            CODE    EE31H     0006H     UNIT         ?PR?CH376GETDISKSTATUS?MAIN



OVERLAY MAP OF MODULE:   SHProject (MAIN)


SEGMENT                                        BIT_GROUP          DATA_GROUP          XDATA_GROUP
  +--> CALLED SEGMENT                       START    LENGTH     START    LENGTH     START    LENGTH
---------------------------------------------------------------------------------------------------
?PR?ADC_INT?ADC                             -----    -----      -----    -----      01D8H    0003H

BL51 BANKED LINKER/LOCATER V6.00                                                      09/09/2017  17:29:44  PAGE 7


*** NEW ROOT ***************************************************

?C_C51STARTUP                               -----    -----      -----    -----      -----    -----
  +--> ?PR?MAIN?MAIN
  +--> ?C_INITSEG

?PR?MAIN?MAIN                               -----    -----      -----    -----      01DBH    0007H
  +--> ?PR?CPU_INIT?MAIN
  +--> ?PR?_FM100MS?BUZZ
  +--> ?PR?QIANSHOU_DOINIT?MAIN
  +--> ?PR?INITIAL_POSITION?BASAL
  +--> ?PR?ACCEL_INIT?MAIN
  +--> ?PR?_MP3_SETVOLUME?MAIN
  +--> ?PR?_FM200MS?BUZZ
  +--> ?PR?_MP3_SETPLAY?MAIN
  +--> ?PR?SETJMP?SETJMP
  +--> ?PR?DOCHECKOUT_ONLINE?MAIN
  +--> ?PR?ONLINE_DOINIT?MAIN
  +--> ?PR?_DELAY1S?DELAY
  +--> ?PR?MAIN1?TUXINGHUA
  +--> ?PR?_START_STATUS?WALKING
  +--> ?PR?KUAIZOU2?WALKING
  +--> ?PR?KUAIZOU1?WALKING
  +--> ?PR?HOUTUI2?WALKING
  +--> ?PR?HOUTUI1?WALKING
  +--> ?PR?_TURN_LEFT?BASAL
  +--> ?PR?_TURN_RIGHT?BASAL
  +--> ?PR?QGF?BASAL
  +--> ?PR?HGF?BASAL
  +--> ?PR?_L_PYI?BASAL
  +--> ?PR?_R_PYI?BASAL
  +--> ?PR?ZUOGOUQIU?BASAL
  +--> ?PR?YOUGOUQIU?BASAL
  +--> ?PR?_GOAL_L?BASAL
  +--> ?PR?_GOAL_R?BASAL
  +--> ?PR?SETVALUEPARAS?MAIN
  +--> ?PR?_RELATIVE?BASAL
  +--> ?PR?_P_TO_P?BASAL
  +--> ?PR?_DELAY10MS?DELAY
  +--> ?PR?_LOCATION?TUXINGHUA
  +--> ?PR?ADC_ADJUST?ADC
  +--> ?PR?_DELAY100US?DELAY
  +--> ?PR?OBTAIN_PSXCODE?MAIN
  +--> ?PR?PSXKEY_FILTER?MAIN
  +--> ?PR?_INITIAL_POSITION_SLOWONE?BASAL
  +--> ?PR?CLEAR_PSXBUFF?MAIN
  +--> ?PR?JIEWU?JIEWU
  +--> ?PR?TICAO?TICAO
  +--> ?PR?QIANSHOU?QIANSHOU
  +--> ?PR?QIAOXIYANG?QIAOXIYANG
  +--> ?PR?DT_L?BASAL
  +--> ?PR?DT_R?BASAL
  +--> ?PR?WUDAO?BASAL
  +--> ?PR?QIANPAXIA?BASAL
  +--> ?PR?QIANPQ?BASAL
  +--> ?PR?_FWC?BASAL
  +--> ?PR?DAOLI?BASAL
BL51 BANKED LINKER/LOCATER V6.00                                                      09/09/2017  17:29:44  PAGE 8


  +--> ?PR?HP?BASAL
  +--> ?PR?HPQ?BASAL
  +--> ?PR?_YANGWOQIZUO?BASAL
  +--> ?PR?PCH?BASAL
  +--> ?PR?_WALK?WALKING
  +--> ?PR?_HOUTUI?WALKING

?PR?CPU_INIT?MAIN                           -----    -----      -----    -----      -----    -----
  +--> ?PR?UART_INIT?MAIN
  +--> ?PR?INF_INIT?HT1621
  +--> ?PR?T0_INIT?BASAL
  +--> ?PR?INIT_SPI?MAIN
  +--> ?PR?MINITCH376HOST?MAIN
  +--> ?PR?_MP3_SETPLAY?MAIN
  +--> ?PR?_FM100MS?BUZZ
  +--> ?PR?_DELAY500MS?DELAY
  +--> ?PR?_DELAY10MS?DELAY

?PR?MINITCH376HOST?MAIN                     -----    -----      -----    -----      -----    -----
  +--> ?PR?_XSETCH376CMDDATA?MAIN
  +--> ?PR?_XSETCH376CMD?MAIN
  +--> ?PR?_XWRITECH376CMD?MAIN
  +--> ?PR?_XWRITECH376DATA?MAIN
  +--> ?PR?UART4_RESETBAUTERATE?MAIN
  +--> ?PR?XREADCH376DATA?MAIN

?PR?XREADCH376DATA?MAIN                     -----    -----      -----    -----      0237H    0004H
  +--> ?PR?_XWRITECH376CMD?MAIN

?PR?_MP3_SETPLAY?MAIN                       -----    -----      -----    -----      -----    -----
  +--> ?PR?_UART3_PRINTBYTE?MAIN

?PR?_FM100MS?BUZZ                           -----    -----      -----    -----      01F5H    0002H
  +--> ?PR?_DELAY10MS?DELAY

?PR?_DELAY10MS?DELAY                        -----    -----      -----    -----      0248H    0002H
  +--> ?PR?_DELAY1MS?DELAY

?PR?_DELAY1MS?DELAY                         -----    -----      -----    -----      -----    -----
  +--> ?PR?_DELAY10US?DELAY

?PR?_DELAY500MS?DELAY                       -----    -----      -----    -----      0248H    0002H
  +--> ?PR?_DELAY1MS?DELAY

?PR?QIANSHOU_DOINIT?MAIN                    -----    -----      -----    -----      01E2H    000AH
  +--> ?CO?MAIN
  +--> ?PR?_READSDCARDFILE32BYTES?MAIN

?PR?_READSDCARDFILE32BYTES?MAIN             -----    -----      -----    -----      0225H    0002H
  +--> ?PR?_CH376FILEOPENDIR?MAIN
  +--> ?PR?_CH376BYTELOCATE?MAIN
  +--> ?PR?_CH376BYTEREAD?MAIN
  +--> ?PR?_CH376SENDCMDDATWAITINT?MAIN

?PR?_CH376FILEOPENDIR?MAIN                  -----    -----      -----    -----      0227H    0005H
  +--> ?PR?_CH376FILEOPEN?MAIN

BL51 BANKED LINKER/LOCATER V6.00                                                      09/09/2017  17:29:44  PAGE 9


?PR?_CH376FILEOPEN?MAIN                     -----    -----      -----    -----      022CH    0003H
  +--> ?PR?_CH376SETFILENAME?MAIN
  +--> ?PR?_CH376WRITEVAR32?MAIN
  +--> ?PR?_CH376SENDCMDWAITINT?MAIN

?PR?_CH376SETFILENAME?MAIN                  -----    -----      -----    -----      022FH    0004H
  +--> ?PR?_XWRITECH376CMD?MAIN
  +--> ?PR?XREADCH376DATA?MAIN
  +--> ?PR?_CH376READVAR8?MAIN
  +--> ?PR?_XWRITECH376DATA?MAIN
  +--> ?PR?_CH376SENDCMDWAITINT?MAIN
  +--> ?PR?_CH376READVAR32?MAIN
  +--> ?PR?_CH376WRITEVAR32?MAIN

?PR?_CH376READVAR8?MAIN                     -----    -----      -----    -----      -----    -----
  +--> ?PR?_XWRITECH376CMD?MAIN
  +--> ?PR?_XWRITECH376DATA?MAIN
  +--> ?PR?XREADCH376DATA?MAIN

?PR?_CH376SENDCMDWAITINT?MAIN               -----    -----      -----    -----      -----    -----
  +--> ?PR?_XWRITECH376CMD?MAIN
  +--> ?PR?WAIT376INTERRUPT?MAIN

?PR?WAIT376INTERRUPT?MAIN                   -----    -----      -----    -----      0233H    0004H
  +--> ?PR?QUERY376INTERRUPT?MAIN
  +--> ?PR?CH376GETINTSTATUS?MAIN

?PR?CH376GETINTSTATUS?MAIN                  -----    -----      -----    -----      -----    -----
  +--> ?PR?_XWRITECH376CMD?MAIN
  +--> ?PR?XREADCH376DATA?MAIN

?PR?_CH376READVAR32?MAIN                    -----    -----      -----    -----      -----    -----
  +--> ?PR?_XWRITECH376CMD?MAIN
  +--> ?PR?_XWRITECH376DATA?MAIN
  +--> ?PR?CH376READ32BITDAT?MAIN

?PR?CH376READ32BITDAT?MAIN                  -----    -----      -----    -----      0233H    0004H
  +--> ?PR?XREADCH376DATA?MAIN

?PR?_CH376WRITEVAR32?MAIN                   -----    -----      -----    -----      0233H    0005H
  +--> ?PR?_XWRITECH376CMD?MAIN
  +--> ?PR?_XWRITECH376DATA?MAIN

?PR?_CH376BYTELOCATE?MAIN                   -----    -----      -----    -----      0227H    0004H
  +--> ?PR?_XWRITECH376CMD?MAIN
  +--> ?PR?_XWRITECH376DATA?MAIN
  +--> ?PR?WAIT376INTERRUPT?MAIN

?PR?_CH376BYTEREAD?MAIN                     -----    -----      -----    -----      0227H    0008H
  +--> ?PR?_XWRITECH376CMD?MAIN
  +--> ?PR?_XWRITECH376DATA?MAIN
  +--> ?PR?WAIT376INTERRUPT?MAIN
  +--> ?PR?_CH376READBLOCK?MAIN

?PR?_CH376READBLOCK?MAIN                    -----    -----      -----    -----      022FH    0005H
  +--> ?PR?XREADCH376DATA?MAIN

BL51 BANKED LINKER/LOCATER V6.00                                                      09/09/2017  17:29:44  PAGE 10


?PR?_CH376SENDCMDDATWAITINT?MAIN            -----    -----      -----    -----      -----    -----
  +--> ?PR?_XWRITECH376CMD?MAIN
  +--> ?PR?_XWRITECH376DATA?MAIN
  +--> ?PR?WAIT376INTERRUPT?MAIN

?PR?INITIAL_POSITION?BASAL                  -----    -----      -----    -----      021AH    000BH
  +--> ?CO?BASAL
  +--> ?PR?_READSDCARDFILE32BYTES?MAIN
  +--> ?PR?PWM_24?MAIN
  +--> ?PR?_LOW_LEVEL_500U?BASAL

?PR?PWM_24?MAIN                             -----    -----      -----    -----      0245H    0002H
  +--> ?PR?ARRAY?BASAL
  +--> ?PR?_LOW_LEVEL_T0?BASAL
  +--> ?PR?_DELAY500US?DELAY
  +--> ?PR?_DELAY8US?DELAY
  +--> ?PR?ADC_ADJUST?ADC
  +--> ?PR?SETJMP?SETJMP

?PR?ADC_ADJUST?ADC                          -----    -----      -----    -----      0247H    0001H
  +--> ?PR?GET_PRESENT_VALUE?ADC
  +--> ?PR?_DELAY500US?DELAY
  +--> ?PR?_DELAY500MS?DELAY
  +--> ?PR?HPQ?BASAL
  +--> ?PR?QIANPQ?BASAL

?PR?GET_PRESENT_VALUE?ADC                   -----    -----      -----    -----      -----    -----
  +--> ?PR?START_ADC?ADC

?PR?HPQ?BASAL                               -----    -----      -----    -----      -----    -----
  +--> ?PR?_RELATIVE?BASAL
  +--> ?PR?_DELAY10MS?DELAY

?PR?_RELATIVE?BASAL                         -----    -----      -----    -----      0248H    0031H

?PR?QIANPQ?BASAL                            -----    -----      -----    -----      -----    -----
  +--> ?PR?_RELATIVE?BASAL
  +--> ?PR?_DELAY10MS?DELAY

?PR?_LOW_LEVEL_500U?BASAL                   -----    -----      -----    -----      0245H    0004H
  +--> ?PR?_DELAY500US?DELAY

?PR?ACCEL_INIT?MAIN                         -----    -----      -----    -----      -----    -----
  +--> ?PR?_DELAY500US?DELAY
  +--> ?PR?INITIAL_ADC?ADC
  +--> ?PR?GET_BALANCE_VALUE?ADC

?PR?GET_BALANCE_VALUE?ADC                   -----    -----      -----    -----      -----    -----
  +--> ?PR?START_ADC?ADC

?PR?_MP3_SETVOLUME?MAIN                     -----    -----      -----    -----      -----    -----
  +--> ?PR?_UART3_PRINTBYTE?MAIN

?PR?_FM200MS?BUZZ                           -----    -----      -----    -----      01F5H    0002H
  +--> ?PR?_DELAY10MS?DELAY

?PR?DOCHECKOUT_ONLINE?MAIN                  -----    -----      -----    -----      01E2H    0002H
BL51 BANKED LINKER/LOCATER V6.00                                                      09/09/2017  17:29:44  PAGE 11


  +--> ?PR?READRAM?TUXINGHUA
  +--> ?PR?_DELAY10MS?DELAY

?PR?ONLINE_DOINIT?MAIN                      -----    -----      -----    -----      01E2H    000AH
  +--> ?PR?_UART1_PRINTBYTE?MAIN
  +--> ?PR?_DELAY1S?DELAY
  +--> ?CO?MAIN
  +--> ?PR?_READSDCARDFILE32BYTES?MAIN
  +--> ?PR?UART1SEND_INITPOSITON?MAIN

?PR?_DELAY1S?DELAY                          -----    -----      -----    -----      021DH    0003H
  +--> ?PR?_DELAY10MS?DELAY

?PR?UART1SEND_INITPOSITON?MAIN              -----    -----      -----    -----      01ECH    0001H
  +--> ?PR?_UART1_PRINTBYTE?MAIN
  +--> ?PR?_DELAY10MS?DELAY

?PR?MAIN1?TUXINGHUA                         0020H.0  0000H.1    -----    -----      01E2H    0013H
  +--> ?PR?READRAM?TUXINGHUA
  +--> ?CO?TUXINGHUA
  +--> ?PR?PRINTF?PRINTF
  +--> ?PR?_CH376FILEOPENDIR?MAIN
  +--> ?PR?_CH376READVAR32?MAIN
  +--> ?PR?_WRITESDCARDFILEBUFFBYTES?MAIN
  +--> ?PR?_DUOJI?TUXINGHUA
  +--> ?PR?_FM200MS?BUZZ
  +--> ?PR?_UART1_PRINTBYTE?MAIN
  +--> ?PR?_READSDCARDFILEALLBYTES?MAIN
  +--> ?PR?_DELAY10MS?DELAY
  +--> ?PR?_FM100MS?BUZZ
  +--> ?PR?_DELAY500MS?DELAY
  +--> ?PR?_CREATESDCARDFILE?MAIN
  +--> ?PR?_P_TO_P?BASAL

?PR?PRINTF?PRINTF                           0020H.1  0001H.1    0008H    0005H      0203H    0030H
  +--> ?PR?PUTCHAR?PUTCHAR

?PR?_WRITESDCARDFILEBUFFBYTES?MAIN          -----    -----      -----    -----      01F5H    0004H
  +--> ?PR?_CH376FILEOPENDIR?MAIN
  +--> ?PR?_CH376BYTELOCATE?MAIN
  +--> ?PR?_CH376BYTEWRITE?MAIN
  +--> ?PR?_CH376SENDCMDDATWAITINT?MAIN

?PR?_CH376BYTEWRITE?MAIN                    -----    -----      -----    -----      01F9H    0008H
  +--> ?PR?_XWRITECH376CMD?MAIN
  +--> ?PR?_XWRITECH376DATA?MAIN
  +--> ?PR?WAIT376INTERRUPT?MAIN
  +--> ?PR?_CH376WRITEREQBLOCK?MAIN

?PR?_CH376WRITEREQBLOCK?MAIN                -----    -----      -----    -----      0201H    0003H
  +--> ?PR?XREADCH376DATA?MAIN
  +--> ?PR?_XWRITECH376DATA?MAIN

?PR?_DUOJI?TUXINGHUA                        -----    -----      -----    -----      -----    -----
  +--> ?PR?_P_TO_P?BASAL

?PR?_P_TO_P?BASAL                           -----    -----      -----    -----      021DH    0028H
BL51 BANKED LINKER/LOCATER V6.00                                                      09/09/2017  17:29:44  PAGE 12


  +--> ?PR?_MAX?BASAL
  +--> ?PR?PWM_24?MAIN
  +--> ?PR?_LOW_LEVEL_500U?BASAL

?PR?_MAX?BASAL                              -----    -----      -----    -----      0245H    0004H
  +--> ?PR?_ABS?ABS

?PR?_READSDCARDFILEALLBYTES?MAIN            -----    -----      -----    -----      01F5H    000EH
  +--> ?PR?_CH376FILEOPENDIR?MAIN
  +--> ?PR?CH376GETFILESIZE?MAIN
  +--> ?PR?_CH376BYTELOCATE?MAIN
  +--> ?PR?_CH376BYTEREAD?MAIN
  +--> ?PR?_UART1_PRINTARRAYBYTES?MAIN
  +--> ?PR?_CH376SENDCMDDATWAITINT?MAIN

?PR?CH376GETFILESIZE?MAIN                   -----    -----      -----    -----      -----    -----
  +--> ?PR?_CH376READVAR32?MAIN

?PR?_UART1_PRINTARRAYBYTES?MAIN             -----    -----      -----    -----      0203H    0002H

?PR?_CREATESDCARDFILE?MAIN                  -----    -----      -----    -----      01F5H    0009H
  +--> ?PR?_CH376SEPARATEPATH?MAIN
  +--> ?PR?_CH376FILEOPENDIR?MAIN
  +--> ?PR?_CH376READVAR32?MAIN
  +--> ?PR?_CH376FILECREATE?MAIN
  +--> ?PR?_CH376SENDCMDDATWAITINT?MAIN

?PR?_CH376SEPARATEPATH?MAIN                 -----    -----      -----    -----      01FEH    0006H

?PR?_CH376FILECREATE?MAIN                   -----    -----      -----    -----      -----    -----
  +--> ?PR?_CH376SETFILENAME?MAIN
  +--> ?PR?_CH376SENDCMDWAITINT?MAIN

?PR?_START_STATUS?WALKING                   -----    -----      -----    -----      01E2H    0001H
  +--> ?PR?_RELATIVE?BASAL
  +--> ?PR?_P_TO_P?BASAL

?PR?KUAIZOU2?WALKING                        -----    -----      -----    -----      01E2H    0001H
  +--> ?PR?_RELATIVE?BASAL
  +--> ?PR?_P_TO_P?BASAL
  +--> ?PR?_DELAY10MS?DELAY

?PR?KUAIZOU1?WALKING                        -----    -----      -----    -----      01E2H    0001H
  +--> ?PR?_RELATIVE?BASAL
  +--> ?PR?_P_TO_P?BASAL

?PR?HOUTUI2?WALKING                         -----    -----      -----    -----      01E2H    0001H
  +--> ?PR?_RELATIVE?BASAL
  +--> ?PR?_P_TO_P?BASAL
  +--> ?PR?_DELAY10MS?DELAY

?PR?HOUTUI1?WALKING                         -----    -----      -----    -----      01E2H    0001H
  +--> ?PR?_RELATIVE?BASAL
  +--> ?PR?_P_TO_P?BASAL

?PR?_TURN_LEFT?BASAL                        -----    -----      -----    -----      0216H    0002H
  +--> ?PR?_RELATIVE?BASAL
BL51 BANKED LINKER/LOCATER V6.00                                                      09/09/2017  17:29:44  PAGE 13


  +--> ?PR?_P_TO_P?BASAL

?PR?_TURN_RIGHT?BASAL                       -----    -----      -----    -----      0216H    0002H
  +--> ?PR?_RELATIVE?BASAL
  +--> ?PR?_P_TO_P?BASAL

?PR?QGF?BASAL                               -----    -----      -----    -----      -----    -----
  +--> ?PR?_RELATIVE?BASAL
  +--> ?PR?_P_TO_P?BASAL

?PR?HGF?BASAL                               -----    -----      -----    -----      -----    -----
  +--> ?PR?_RELATIVE?BASAL
  +--> ?PR?_P_TO_P?BASAL
  +--> ?PR?_DELAY10MS?DELAY

?PR?_L_PYI?BASAL                            -----    -----      -----    -----      0216H    0002H
  +--> ?PR?_RELATIVE?BASAL
  +--> ?PR?_P_TO_P?BASAL

?PR?_R_PYI?BASAL                            -----    -----      -----    -----      0216H    0002H
  +--> ?PR?_RELATIVE?BASAL
  +--> ?PR?_P_TO_P?BASAL

?PR?ZUOGOUQIU?BASAL                         -----    -----      -----    -----      -----    -----
  +--> ?PR?_RELATIVE?BASAL
  +--> ?PR?_P_TO_P?BASAL

?PR?YOUGOUQIU?BASAL                         -----    -----      -----    -----      -----    -----
  +--> ?PR?_RELATIVE?BASAL
  +--> ?PR?_P_TO_P?BASAL

?PR?_GOAL_L?BASAL                           -----    -----      -----    -----      0216H    0002H
  +--> ?PR?_RELATIVE?BASAL
  +--> ?PR?_P_TO_P?BASAL
  +--> ?PR?_DELAY500MS?DELAY

?PR?_GOAL_R?BASAL                           -----    -----      -----    -----      0216H    0002H
  +--> ?PR?_RELATIVE?BASAL
  +--> ?PR?_P_TO_P?BASAL
  +--> ?PR?_DELAY500MS?DELAY

?PR?SETVALUEPARAS?MAIN                      -----    -----      -----    -----      01E2H    000BH
  +--> ?PR?_MP3_SETVOLUME?MAIN
  +--> ?CO?MAIN
  +--> ?PR?_CH376FILEOPENDIR?MAIN
  +--> ?PR?_WRITESDCARDFILEBUFFBYTES?MAIN

?PR?_LOCATION?TUXINGHUA                     -----    -----      -----    -----      01E2H    0021H
  +--> ?CO?TUXINGHUA
  +--> ?PR?PRINTF?PRINTF
  +--> ?PR?_CH376FILEOPENDIR?MAIN
  +--> ?PR?_CH376READVAR32?MAIN
  +--> ?PR?_MP3_SETPLAY?MAIN
  +--> ?PR?_DELAY10MS?DELAY
  +--> ?PR?_CH376BYTELOCATE?MAIN
  +--> ?PR?_CH376BYTEREAD?MAIN
  +--> ?PR?MP3_STOP?MAIN
BL51 BANKED LINKER/LOCATER V6.00                                                      09/09/2017  17:29:44  PAGE 14


  +--> ?PR?DAOLI?BASAL
  +--> ?PR?PCH?BASAL
  +--> ?PR?_TURN_LEFT?BASAL
  +--> ?PR?_WALK?WALKING
  +--> ?PR?_TURN_RIGHT?BASAL
  +--> ?PR?_L_PYI?BASAL
  +--> ?PR?_FWC?BASAL
  +--> ?PR?_R_PYI?BASAL
  +--> ?PR?_GOAL_L?BASAL
  +--> ?PR?_YANGWOQIZUO?BASAL
  +--> ?PR?_GOAL_R?BASAL
  +--> ?PR?JINGLI_L?BASAL
  +--> ?PR?JINGLI_R?BASAL
  +--> ?PR?QIAOXIYANG?QIAOXIYANG
  +--> ?PR?JIEWU?JIEWU
  +--> ?PR?QIANSHOU?QIANSHOU
  +--> ?PR?TICAO?TICAO
  +--> ?PR?QGF?BASAL
  +--> ?PR?HGF?BASAL
  +--> ?PR?QIANPAXIA?BASAL
  +--> ?PR?QIANPQ?BASAL
  +--> ?PR?HP?BASAL
  +--> ?PR?HPQ?BASAL
  +--> ?PR?TAIJIAOZI?BASAL
  +--> ?PR?_HOUTUI?WALKING
  +--> ?PR?_P_TO_P?BASAL
  +--> ?PR?_CYC?TUXINGHUA
  +--> ?PR?_CH376SENDCMDDATWAITINT?MAIN

?PR?MP3_STOP?MAIN                           -----    -----      -----    -----      -----    -----
  +--> ?PR?_UART3_PRINTBYTE?MAIN

?PR?DAOLI?BASAL                             -----    -----      -----    -----      -----    -----
  +--> ?PR?INITIAL_POSITION?BASAL
  +--> ?PR?_RELATIVE?BASAL
  +--> ?PR?_P_TO_P?BASAL
  +--> ?PR?_DELAY1S?DELAY
  +--> ?PR?_DELAY10MS?DELAY

?PR?PCH?BASAL                               -----    -----      -----    -----      -----    -----
  +--> ?PR?_RELATIVE?BASAL
  +--> ?PR?_P_TO_P?BASAL
  +--> ?PR?_DELAY1S?DELAY

?PR?_WALK?WALKING                           -----    -----      -----    -----      0217H    0002H
  +--> ?PR?_SIT_DOWN?BASAL
  +--> ?PR?_DELAY500MS?DELAY
  +--> ?PR?_LEFT_CS?WALKING
  +--> ?PR?_RIGHT_UP?WALKING
  +--> ?PR?_RIGHT_FORWARD?WALKING
  +--> ?PR?_RIGHT_DOWN?WALKING
  +--> ?PR?_RIGHT_CS?WALKING
  +--> ?PR?_LEFT_UP?WALKING
  +--> ?PR?_LEFT_FORWARD?WALKING
  +--> ?PR?_LEFT_DOWN?WALKING
  +--> ?PR?_STAND_UP?BASAL

BL51 BANKED LINKER/LOCATER V6.00                                                      09/09/2017  17:29:44  PAGE 15


?PR?_SIT_DOWN?BASAL                         -----    -----      -----    -----      0219H    0002H
  +--> ?PR?PWM_24?MAIN
  +--> ?PR?_LOW_LEVEL_500U?BASAL

?PR?_LEFT_CS?WALKING                        -----    -----      -----    -----      0219H    0002H
  +--> ?PR?PWM_24?MAIN
  +--> ?PR?_LOW_LEVEL_500U?BASAL

?PR?_RIGHT_UP?WALKING                       -----    -----      -----    -----      0219H    0002H
  +--> ?PR?PWM_24?MAIN
  +--> ?PR?_LOW_LEVEL_500U?BASAL

?PR?_RIGHT_FORWARD?WALKING                  -----    -----      -----    -----      0219H    0002H
  +--> ?PR?PWM_24?MAIN
  +--> ?PR?_LOW_LEVEL_500U?BASAL

?PR?_RIGHT_DOWN?WALKING                     -----    -----      -----    -----      0219H    0002H
  +--> ?PR?PWM_24?MAIN
  +--> ?PR?_LOW_LEVEL_500U?BASAL

?PR?_RIGHT_CS?WALKING                       -----    -----      -----    -----      0219H    0002H
  +--> ?PR?PWM_24?MAIN
  +--> ?PR?_LOW_LEVEL_500U?BASAL

?PR?_LEFT_UP?WALKING                        -----    -----      -----    -----      0219H    0002H
  +--> ?PR?PWM_24?MAIN
  +--> ?PR?_LOW_LEVEL_500U?BASAL

?PR?_LEFT_FORWARD?WALKING                   -----    -----      -----    -----      0219H    0002H
  +--> ?PR?PWM_24?MAIN
  +--> ?PR?_LOW_LEVEL_500U?BASAL

?PR?_LEFT_DOWN?WALKING                      -----    -----      -----    -----      0219H    0002H
  +--> ?PR?PWM_24?MAIN
  +--> ?PR?_LOW_LEVEL_500U?BASAL

?PR?_STAND_UP?BASAL                         -----    -----      -----    -----      0219H    0002H
  +--> ?PR?PWM_24?MAIN
  +--> ?PR?_LOW_LEVEL_500U?BASAL

?PR?_FWC?BASAL                              -----    -----      -----    -----      0216H    0003H
  +--> ?PR?_RELATIVE?BASAL
  +--> ?PR?_P_TO_P?BASAL
  +--> ?PR?PWM_24?MAIN
  +--> ?PR?_LOW_LEVEL_500U?BASAL
  +--> ?PR?_DELAY10MS?DELAY

?PR?_YANGWOQIZUO?BASAL                      -----    -----      -----    -----      0216H    0003H
  +--> ?PR?_RELATIVE?BASAL
  +--> ?PR?_P_TO_P?BASAL
  +--> ?PR?HP?BASAL
  +--> ?PR?_DELAY10MS?DELAY
  +--> ?PR?PWM_24?MAIN
  +--> ?PR?_LOW_LEVEL_500U?BASAL
  +--> ?PR?_DELAY1MS?DELAY
  +--> ?PR?HPQ?BASAL

BL51 BANKED LINKER/LOCATER V6.00                                                      09/09/2017  17:29:44  PAGE 16


?PR?HP?BASAL                                -----    -----      -----    -----      -----    -----
  +--> ?PR?_RELATIVE?BASAL
  +--> ?PR?_P_TO_P?BASAL
  +--> ?PR?_DELAY10MS?DELAY
  +--> ?PR?INITIAL_POSITION?BASAL

?PR?JINGLI_L?BASAL                          -----    -----      -----    -----      0218H    0001H
  +--> ?PR?PWM_24?MAIN
  +--> ?PR?_LOW_LEVEL_500U?BASAL
  +--> ?PR?_DELAY500MS?DELAY

?PR?JINGLI_R?BASAL                          -----    -----      -----    -----      0216H    0001H
  +--> ?PR?PWM_24?MAIN
  +--> ?PR?_LOW_LEVEL_500U?BASAL
  +--> ?PR?_DELAY1S?DELAY
  +--> ?PR?_DELAY500MS?DELAY

?PR?QIAOXIYANG?QIAOXIYANG                   -----    -----      -----    -----      -----    -----
  +--> ?PR?XIYANG_6?QIAOXIYANG
  +--> ?PR?XIYANG_4?QIAOXIYANG
  +--> ?PR?XIYANG_3?QIAOXIYANG
  +--> ?PR?XIYANG_5?QIAOXIYANG
  +--> ?PR?XIYANG_2?QIAOXIYANG
  +--> ?PR?XIYANG_9?QIAOXIYANG
  +--> ?PR?XIYANG_1?QIAOXIYANG
  +--> ?PR?XIYANG_7?QIAOXIYANG
  +--> ?PR?XIYANG_10?QIAOXIYANG
  +--> ?PR?XIYANG_8?QIAOXIYANG

?PR?XIYANG_6?QIAOXIYANG                     -----    -----      -----    -----      0216H    0004H
  +--> ?PR?PWM_24?MAIN
  +--> ?PR?_LOW_LEVEL_500U?BASAL
  +--> ?PR?_DELAY10MS?DELAY
  +--> ?PR?_DELAY500MS?DELAY
  +--> ?PR?INITIAL_POSITION?BASAL

?PR?XIYANG_5?QIAOXIYANG                     -----    -----      -----    -----      0216H    0002H
  +--> ?PR?PWM_24?MAIN
  +--> ?PR?_LOW_LEVEL_500U?BASAL
  +--> ?PR?_DELAY10MS?DELAY
  +--> ?PR?FORWARDDELAY?BASAL
  +--> ?PR?_DELAY500MS?DELAY
  +--> ?PR?BACKDELAY?BASAL
  +--> ?PR?INITIAL_POSITION?BASAL

?PR?FORWARDDELAY?BASAL                      -----    -----      -----    -----      021DH    0001H
  +--> ?PR?_DELAY10MS?DELAY

?PR?BACKDELAY?BASAL                         -----    -----      -----    -----      021DH    0001H
  +--> ?PR?_DELAY10MS?DELAY

?PR?XIYANG_9?QIAOXIYANG                     -----    -----      -----    -----      0216H    0002H
  +--> ?PR?PWM_24?MAIN
  +--> ?PR?_LOW_LEVEL_500U?BASAL
  +--> ?PR?_DELAY10MS?DELAY
  +--> ?PR?INITIAL_POSITION?BASAL

BL51 BANKED LINKER/LOCATER V6.00                                                      09/09/2017  17:29:44  PAGE 17


?PR?XIYANG_7?QIAOXIYANG                     -----    -----      -----    -----      0216H    0003H
  +--> ?PR?PWM_24?MAIN
  +--> ?PR?_LOW_LEVEL_500U?BASAL
  +--> ?PR?_XIYANG_XIAO7?QIAOXIYANG
  +--> ?PR?_DELAY10MS?DELAY
  +--> ?PR?_DELAY500MS?DELAY
  +--> ?PR?INITIAL_POSITION?BASAL

?PR?_XIYANG_XIAO7?QIAOXIYANG                -----    -----      -----    -----      0219H    0002H
  +--> ?PR?PWM_24?MAIN
  +--> ?PR?_LOW_LEVEL_500U?BASAL

?PR?XIYANG_10?QIAOXIYANG                    -----    -----      -----    -----      0216H    0002H
  +--> ?PR?PWM_24?MAIN
  +--> ?PR?_LOW_LEVEL_500U?BASAL
  +--> ?PR?_DELAY10MS?DELAY
  +--> ?PR?INITIAL_POSITION?BASAL

?PR?XIYANG_8?QIAOXIYANG                     -----    -----      -----    -----      0216H    0001H
  +--> ?PR?PWM_24?MAIN
  +--> ?PR?_LOW_LEVEL_500U?BASAL
  +--> ?PR?_DELAY1S?DELAY
  +--> ?PR?INITIAL_POSITION?BASAL

?PR?JIEWU?JIEWU                             -----    -----      -----    -----      -----    -----
  +--> ?PR?INITIAL_POSITION?BASAL
  +--> ?PR?_DELAY500MS?DELAY
  +--> ?PR?YAOBIBAITOU?JIEWU
  +--> ?PR?DPZHCH?JIEWU
  +--> ?PR?_SHOU_DD?JIEWU
  +--> ?PR?QHZY_NIU?JIEWU
  +--> ?PR?_WDL_PYI?JIEWU
  +--> ?PR?_FWC?BASAL
  +--> ?PR?HFH_R?JIEWU
  +--> ?PR?_WDR_PYI?JIEWU
  +--> ?PR?HFH_L?JIEWU
  +--> ?PR?JINGLI_R?BASAL
  +--> ?PR?JINGLI_L?BASAL

?PR?YAOBIBAITOU?JIEWU                       -----    -----      -----    -----      0216H    0003H
  +--> ?PR?PWM_24?MAIN
  +--> ?PR?_LOW_LEVEL_500U?BASAL
  +--> ?PR?_DELAY10MS?DELAY

?PR?DPZHCH?JIEWU                            -----    -----      -----    -----      0216H    0003H
  +--> ?PR?_SIT_DOWN?BASAL
  +--> ?PR?PWM_24?MAIN
  +--> ?PR?_LOW_LEVEL_500U?BASAL
  +--> ?PR?_DPZC_1?JIEWU
  +--> ?PR?_STAND_UP?BASAL

?PR?_DPZC_1?JIEWU                           -----    -----      -----    -----      0219H    0002H
  +--> ?PR?PWM_24?MAIN
  +--> ?PR?_LOW_LEVEL_500U?BASAL

?PR?_SHOU_DD?JIEWU                          -----    -----      -----    -----      0216H    0004H
  +--> ?PR?PWM_24?MAIN
BL51 BANKED LINKER/LOCATER V6.00                                                      09/09/2017  17:29:44  PAGE 18


  +--> ?PR?_LOW_LEVEL_500U?BASAL

?PR?QHZY_NIU?JIEWU                          -----    -----      -----    -----      0216H    0002H
  +--> ?PR?_SIT_DOWN?BASAL
  +--> ?PR?PWM_24?MAIN
  +--> ?PR?_LOW_LEVEL_500U?BASAL
  +--> ?PR?_DELAY1S?DELAY
  +--> ?PR?_DELAY500MS?DELAY
  +--> ?PR?_QHZY_NIU_2?JIEWU
  +--> ?PR?_STAND_UP?BASAL

?PR?_QHZY_NIU_2?JIEWU                       -----    -----      -----    -----      0218H    0003H
  +--> ?PR?PWM_24?MAIN
  +--> ?PR?_LOW_LEVEL_500U?BASAL

?PR?_WDL_PYI?JIEWU                          -----    -----      -----    -----      0216H    0003H
  +--> ?PR?_SIT_DOWN?BASAL
  +--> ?PR?PWM_24?MAIN
  +--> ?PR?_LOW_LEVEL_500U?BASAL
  +--> ?PR?_DELAY500MS?DELAY
  +--> ?PR?_STAND_UP?BASAL

?PR?HFH_R?JIEWU                             -----    -----      -----    -----      0216H    0002H
  +--> ?PR?PWM_24?MAIN
  +--> ?PR?_LOW_LEVEL_500U?BASAL
  +--> ?PR?_SIT_DOWN?BASAL
  +--> ?PR?_DELAY10MS?DELAY
  +--> ?PR?_STAND_UP?BASAL
  +--> ?PR?INITIAL_POSITION?BASAL

?PR?_WDR_PYI?JIEWU                          -----    -----      -----    -----      0216H    0003H
  +--> ?PR?_SIT_DOWN?BASAL
  +--> ?PR?PWM_24?MAIN
  +--> ?PR?_LOW_LEVEL_500U?BASAL
  +--> ?PR?_DELAY500MS?DELAY
  +--> ?PR?_STAND_UP?BASAL

?PR?HFH_L?JIEWU                             -----    -----      -----    -----      0216H    0002H
  +--> ?PR?PWM_24?MAIN
  +--> ?PR?_LOW_LEVEL_500U?BASAL
  +--> ?PR?_SIT_DOWN?BASAL
  +--> ?PR?_DELAY10MS?DELAY
  +--> ?PR?_STAND_UP?BASAL
  +--> ?PR?INITIAL_POSITION?BASAL

?PR?QIANSHOU?QIANSHOU                       -----    -----      -----    -----      0216H    0001H
  +--> ?PR?PWM_24?MAIN
  +--> ?PR?_LOW_LEVEL_500U?BASAL
  +--> ?PR?_DELAY1S?DELAY
  +--> ?PR?QIANSHOU_1?QIANSHOU
  +--> ?PR?QIANSHOU_2?QIANSHOU
  +--> ?PR?_QIANSHOU_3?QIANSHOU
  +--> ?PR?_QIANSHOU_4?QIANSHOU
  +--> ?PR?_QIANSHOU_9?QIANSHOU
  +--> ?PR?_QIANSHOU_10?QIANSHOU
  +--> ?PR?_QIANSHOU_5?QIANSHOU
  +--> ?PR?_DELAY500MS?DELAY
BL51 BANKED LINKER/LOCATER V6.00                                                      09/09/2017  17:29:44  PAGE 19


  +--> ?PR?QIANSHOU_6?QIANSHOU
  +--> ?PR?_QIANSHOU_7?QIANSHOU
  +--> ?PR?QIANSHOU_8?QIANSHOU

?PR?QIANSHOU_1?QIANSHOU                     -----    -----      -----    -----      0217H    0001H
  +--> ?PR?PWM_24?MAIN
  +--> ?PR?_LOW_LEVEL_500U?BASAL
  +--> ?PR?_DELAY500MS?DELAY

?PR?QIANSHOU_2?QIANSHOU                     -----    -----      -----    -----      0217H    0001H
  +--> ?PR?FORWARDDELAY?BASAL
  +--> ?PR?PWM_24?MAIN
  +--> ?PR?_LOW_LEVEL_500U?BASAL
  +--> ?PR?BACKDELAY?BASAL

?PR?_QIANSHOU_3?QIANSHOU                    -----    -----      -----    -----      0217H    0003H
  +--> ?PR?PWM_24?MAIN
  +--> ?PR?_LOW_LEVEL_500U?BASAL
  +--> ?PR?FORWARDDELAY?BASAL
  +--> ?PR?_DELAY1S?DELAY
  +--> ?PR?BACKDELAY?BASAL

?PR?_QIANSHOU_4?QIANSHOU                    -----    -----      -----    -----      0217H    0003H
  +--> ?PR?PWM_24?MAIN
  +--> ?PR?_LOW_LEVEL_500U?BASAL
  +--> ?PR?FORWARDDELAY?BASAL
  +--> ?PR?BACKDELAY?BASAL

?PR?_QIANSHOU_9?QIANSHOU                    -----    -----      -----    -----      0217H    0003H
  +--> ?PR?FORWARDDELAY?BASAL
  +--> ?PR?PWM_24?MAIN
  +--> ?PR?_LOW_LEVEL_500U?BASAL
  +--> ?PR?BACKDELAY?BASAL

?PR?_QIANSHOU_10?QIANSHOU                   -----    -----      -----    -----      0217H    0003H
  +--> ?PR?PWM_24?MAIN
  +--> ?PR?_LOW_LEVEL_500U?BASAL
  +--> ?PR?FORWARDDELAY?BASAL
  +--> ?PR?BACKDELAY?BASAL

?PR?_QIANSHOU_5?QIANSHOU                    -----    -----      -----    -----      0217H    0004H
  +--> ?PR?PWM_24?MAIN
  +--> ?PR?_LOW_LEVEL_500U?BASAL

?PR?QIANSHOU_6?QIANSHOU                     -----    -----      -----    -----      0217H    0006H
  +--> ?PR?FORWARDDELAY?BASAL
  +--> ?PR?_RELATIVE?BASAL
  +--> ?PR?_P_TO_P?BASAL
  +--> ?PR?BACKDELAY?BASAL
  +--> ?PR?_DELAY1S?DELAY
  +--> ?PR?_DELAY500MS?DELAY

?PR?_QIANSHOU_7?QIANSHOU                    -----    -----      -----    -----      0217H    0003H
  +--> ?PR?PWM_24?MAIN
  +--> ?PR?_LOW_LEVEL_500U?BASAL
  +--> ?PR?FORWARDDELAY?BASAL
  +--> ?PR?BACKDELAY?BASAL
BL51 BANKED LINKER/LOCATER V6.00                                                      09/09/2017  17:29:44  PAGE 20


  +--> ?PR?_DELAY10MS?DELAY

?PR?QIANSHOU_8?QIANSHOU                     -----    -----      -----    -----      0217H    0001H
  +--> ?PR?PWM_24?MAIN
  +--> ?PR?_LOW_LEVEL_500U?BASAL
  +--> ?PR?FORWARDDELAY?BASAL
  +--> ?PR?_DELAY1S?DELAY
  +--> ?PR?BACKDELAY?BASAL

?PR?TICAO?TICAO                             -----    -----      -----    -----      -----    -----
  +--> ?PR?INITIAL_POSITION?BASAL
  +--> ?PR?_DELAY10MS?DELAY
  +--> ?PR?JINGLI_R?BASAL
  +--> ?PR?_DELAY500MS?DELAY
  +--> ?PR?TICE_YD?TICAO
  +--> ?PR?CS_XD_LEFT?TICAO
  +--> ?PR?SHENZHAN?TICAO
  +--> ?PR?KUOXIONG?TICAO
  +--> ?PR?CS_XD_RIGHT?TICAO
  +--> ?PR?PY_SS_LEFT?TICAO
  +--> ?PR?PY_SS_RIGHT?TICAO
  +--> ?PR?XQ_TD?TICAO

?PR?TICE_YD?TICAO                           -----    -----      -----    -----      0216H    0002H
  +--> ?PR?PWM_24?MAIN
  +--> ?PR?_LOW_LEVEL_500U?BASAL
  +--> ?PR?_DELAY10MS?DELAY
  +--> ?PR?_DELAY1S?DELAY
  +--> ?PR?_DELAY500MS?DELAY

?PR?CS_XD_LEFT?TICAO                        -----    -----      -----    -----      0216H    0001H
  +--> ?PR?PWM_24?MAIN
  +--> ?PR?_LOW_LEVEL_500U?BASAL

?PR?SHENZHAN?TICAO                          -----    -----      -----    -----      0216H    0001H
  +--> ?PR?_P_TO_P?BASAL
  +--> ?PR?_DELAY500MS?DELAY
  +--> ?PR?_DELAY10MS?DELAY

?PR?KUOXIONG?TICAO                          -----    -----      -----    -----      0216H    0001H
  +--> ?PR?_P_TO_P?BASAL
  +--> ?PR?_DELAY10MS?DELAY
  +--> ?PR?_DELAY1S?DELAY

?PR?CS_XD_RIGHT?TICAO                       -----    -----      -----    -----      0216H    0001H
  +--> ?PR?PWM_24?MAIN
  +--> ?PR?_LOW_LEVEL_500U?BASAL

?PR?PY_SS_LEFT?TICAO                        -----    -----      -----    -----      0216H    0002H
  +--> ?PR?_SIT_DOWN?BASAL
  +--> ?PR?PWM_24?MAIN
  +--> ?PR?_LOW_LEVEL_500U?BASAL
  +--> ?PR?_STAND_UP?BASAL

?PR?PY_SS_RIGHT?TICAO                       -----    -----      -----    -----      0216H    0002H
  +--> ?PR?_SIT_DOWN?BASAL
  +--> ?PR?PWM_24?MAIN
BL51 BANKED LINKER/LOCATER V6.00                                                      09/09/2017  17:29:44  PAGE 21


  +--> ?PR?_LOW_LEVEL_500U?BASAL
  +--> ?PR?_STAND_UP?BASAL

?PR?XQ_TD?TICAO                             -----    -----      -----    -----      0216H    0002H
  +--> ?PR?PWM_24?MAIN
  +--> ?PR?_LOW_LEVEL_500U?BASAL
  +--> ?PR?_DELAY10MS?DELAY
  +--> ?PR?_P_TO_P?BASAL
  +--> ?PR?JINGLI_L?BASAL

?PR?QIANPAXIA?BASAL                         -----    -----      -----    -----      0216H    0001H
  +--> ?PR?_RELATIVE?BASAL
  +--> ?PR?_P_TO_P?BASAL
  +--> ?PR?PWM_24?MAIN
  +--> ?PR?_LOW_LEVEL_500U?BASAL
  +--> ?PR?_DELAY1S?DELAY

?PR?TAIJIAOZI?BASAL                         -----    -----      -----    -----      0216H    0001H
  +--> ?PR?_P_TO_P?BASAL
  +--> ?PR?_WALK?WALKING

?PR?_HOUTUI?WALKING                         -----    -----      -----    -----      0216H    0002H
  +--> ?PR?_SIT_DOWN?BASAL
  +--> ?PR?_DELAY500MS?DELAY
  +--> ?PR?_LEFT_CS?WALKING
  +--> ?PR?_RIGHT_UP?WALKING
  +--> ?PR?_LEFT_FORWARD?WALKING
  +--> ?PR?_RIGHT_DOWN?WALKING
  +--> ?PR?_RIGHT_CS?WALKING
  +--> ?PR?_LEFT_UP?WALKING
  +--> ?PR?_RIGHT_FORWARD?WALKING
  +--> ?PR?_LEFT_DOWN?WALKING
  +--> ?PR?_STAND_UP?BASAL

?PR?_CYC?TUXINGHUA                          -----    -----      -----    -----      0203H    0013H
  +--> ?PR?_CH376BYTELOCATE?MAIN
  +--> ?PR?_CH376BYTEREAD?MAIN
  +--> ?PR?MP3_STOP?MAIN
  +--> ?PR?_MP3_SETPLAY?MAIN
  +--> ?PR?DAOLI?BASAL
  +--> ?PR?PCH?BASAL
  +--> ?PR?_TURN_LEFT?BASAL
  +--> ?PR?_WALK?WALKING
  +--> ?PR?_TURN_RIGHT?BASAL
  +--> ?PR?_L_PYI?BASAL
  +--> ?PR?_FWC?BASAL
  +--> ?PR?_R_PYI?BASAL
  +--> ?PR?_GOAL_L?BASAL
  +--> ?PR?_YANGWOQIZUO?BASAL
  +--> ?PR?_GOAL_R?BASAL
  +--> ?PR?JINGLI_L?BASAL
  +--> ?PR?JINGLI_R?BASAL
  +--> ?PR?QIAOXIYANG?QIAOXIYANG
  +--> ?PR?JIEWU?JIEWU
  +--> ?PR?QIANSHOU?QIANSHOU
  +--> ?PR?TICAO?TICAO
  +--> ?PR?QGF?BASAL
BL51 BANKED LINKER/LOCATER V6.00                                                      09/09/2017  17:29:44  PAGE 22


  +--> ?PR?HGF?BASAL
  +--> ?PR?QIANPAXIA?BASAL
  +--> ?PR?QIANPQ?BASAL
  +--> ?PR?HP?BASAL
  +--> ?PR?HPQ?BASAL
  +--> ?PR?TAIJIAOZI?BASAL
  +--> ?PR?_HOUTUI?WALKING
  +--> ?PR?_P_TO_P?BASAL
  +--> ?PR?_DELAY10MS?DELAY

?PR?_DELAY100US?DELAY                       -----    -----      -----    -----      -----    -----
  +--> ?PR?_DELAY10US?DELAY

?PR?OBTAIN_PSXCODE?MAIN                     -----    -----      -----    -----      01E2H    000BH
  +--> ?CO?MAIN
  +--> ?PR?DELAY1US_PSX?MAIN
  +--> ?PR?DELAY3US_PSX?MAIN

?PR?_INITIAL_POSITION_SLOWONE?BASAL         -----    -----      -----    -----      01E2H    0001H
  +--> ?PR?_RELATIVE?BASAL
  +--> ?PR?_P_TO_P?BASAL

?PR?CLEAR_PSXBUFF?MAIN                      -----    -----      -----    -----      01E2H    000BH
  +--> ?CO?MAIN
  +--> ?PR?DELAY1US_PSX?MAIN
  +--> ?PR?DELAY3US_PSX?MAIN

?PR?DT_L?BASAL                              -----    -----      -----    -----      01E2H    0001H
  +--> ?PR?_RELATIVE?BASAL
  +--> ?PR?_P_TO_P?BASAL
  +--> ?PR?PWM_24?MAIN
  +--> ?PR?_LOW_LEVEL_500U?BASAL
  +--> ?PR?_DELAY10MS?DELAY
  +--> ?PR?_DELAY1S?DELAY
  +--> ?PR?INITIAL_POSITION?BASAL

?PR?DT_R?BASAL                              -----    -----      -----    -----      01E2H    0001H
  +--> ?PR?_RELATIVE?BASAL
  +--> ?PR?_P_TO_P?BASAL
  +--> ?PR?PWM_24?MAIN
  +--> ?PR?_LOW_LEVEL_500U?BASAL
  +--> ?PR?_DELAY10MS?DELAY
  +--> ?PR?_DELAY1S?DELAY
  +--> ?PR?INITIAL_POSITION?BASAL

?PR?WUDAO?BASAL                             -----    -----      -----    -----      01E2H    0001H
  +--> ?PR?_RELATIVE?BASAL
  +--> ?PR?_P_TO_P?BASAL
  +--> ?PR?_DELAY10MS?DELAY
  +--> ?PR?PWM_24?MAIN
  +--> ?PR?_LOW_LEVEL_500U?BASAL



SYMBOL TABLE OF MODULE:  SHProject (MAIN)

  VALUE           TYPE          NAME
BL51 BANKED LINKER/LOCATER V6.00                                                      09/09/2017  17:29:44  PAGE 23


  ----------------------------------

  -------         MODULE        MAIN
  C:0000H         SYMBOL        _ICE_DUMMY_
  D:0092H         PUBLIC        P1M0
  D:0093H         PUBLIC        P0M1
  D:0096H         PUBLIC        P2M0
  D:0091H         PUBLIC        P1M1
  D:0080H         PUBLIC        P0
  D:00B2H         PUBLIC        P3M0
  D:0095H         PUBLIC        P2M1
  D:0090H         PUBLIC        P1
  C:ED66H         PUBLIC        MP3_RePlay
  D:00B4H         PUBLIC        P4M0
  D:00B1H         PUBLIC        P3M1
  D:00A0H         PUBLIC        P2
  D:00CAH         PUBLIC        P5M0
  D:00B3H         PUBLIC        P4M1
  D:00B0H         PUBLIC        P3
  D:00CCH         PUBLIC        P6M0
  D:00C9H         PUBLIC        P5M1
  D:00C0H         PUBLIC        P4
  C:EE04H         PUBLIC        CH376GetIntStatus
  D:00E2H         PUBLIC        P7M0
  D:00CBH         PUBLIC        P6M1
  D:00C8H         PUBLIC        P5
  B:00A8H.7       PUBLIC        EA
  D:00E1H         PUBLIC        P7M1
  D:00E8H         PUBLIC        P6
  D:00F8H         PUBLIC        P7
  X:0000H         PUBLIC        psx_key
  C:EDC9H         PUBLIC        _CH376FileCreate
  D:00CEH         PUBLIC        SPCTL
  X:0001H         PUBLIC        envbuf
  X:0008H         PUBLIC        psx_key_buff_flag
  D:00A2H         PUBLIC        P_SW1
  C:E17AH         PUBLIC        Wait376Interrupt
  D:00BAH         PUBLIC        P_SW2
  X:0009H         PUBLIC        psx_key_buff
  D:00A8H         PUBLIC        IE
  C:ED99H         PUBLIC        _CH376ReadVar8
  C:EDEFH         PUBLIC        Query376Interrupt
  B:0021H.2       PUBLIC        anjian_bit_flag
  C:E8A2H         PUBLIC        Online_DoInit
  B:00C8H.4       PUBLIC        SPISS
  C:EE24H         PUBLIC        _CH376SendCmdWaitInt
  C:E6B5H         PUBLIC        Uart_Init
  X:000AH         PUBLIC        RX2_in
  B:0021H.3       PUBLIC        anjian_bit
  B:00A8H.4       PUBLIC        ES
  D:00B8H         PUBLIC        IP
  C:0046H         PUBLIC        _CH376ReadBlock
  X:000BH         PUBLIC        RX1_Buffer
  X:019BH         PUBLIC        RX2_Buffer
  B:0098H.0       PUBLIC        RI
  X:01ABH         PUBLIC        volume
  X:01ACH         PUBLIC        RX3_Buffer
BL51 BANKED LINKER/LOCATER V6.00                                                      09/09/2017  17:29:44  PAGE 24


  X:01ADH         PUBLIC        RX4_Buffer
  B:0098H.1       PUBLIC        TI
  C:ED77H         PUBLIC        _CH376WriteVar8
  D:0097H         PUBLIC        CLK_DIV
  C:E64BH         PUBLIC        _CH376ByteLocate
  C:E024H         PUBLIC        xReadCH376Data
  C:E0D1H         PUBLIC        UART1_Interrupt
  C:C85BH         PUBLIC        UART2_Interrupt
  D:00D8H         PUBLIC        CCON
  C:EBDCH         PUBLIC        UART3_Interrupt
  C:EB55H         PUBLIC        UART4_Interrupt
  C:0096H         PUBLIC        main
  C:E12EH         PUBLIC        SetValueParas
  X:01AEH         PUBLIC        flag_power
  C:D876H         PUBLIC        _CreateSdcardFile
  C:EDBDH         PUBLIC        _CH376SendCmdDatWaitInt
  C:EB41H         PUBLIC        _xWriteCH376Data
  D:0099H         PUBLIC        SBUF
  C:ED55H         PUBLIC        MP3_Pause
  D:0098H         PUBLIC        SCON
  B:00C0H.0       PUBLIC        P40
  D:0088H         PUBLIC        TCON
  C:E726H         PUBLIC        DoCheckout_Online
  B:00C8H.5       PUBLIC        P55
  C:9E10H         PUBLIC        PWM_24
  C:5BCFH         PUBLIC        Obtain_PSXCode
  C:EDA9H         PUBLIC        _CH376ReadVar32
  D:00AFH         PUBLIC        IE2
  D:008EH         PUBLIC        AUXR
  D:00F0H         PUBLIC        B
  C:DBD6H         PUBLIC        _CH376ByteRead
  C:EB87H         SYMBOL        _?ix1000
  C:EB90H         SYMBOL        _?ix1001
  C:E340H         PUBLIC        _CH376FileOpen
  C:E54FH         PUBLIC        _ReadSdcardFile32Bytes
  B:0021H.4       PUBLIC        acc_bit
  C:E9BDH         PUBLIC        _xWriteCH376Cmd
  C:DE31H         PUBLIC        Clear_PSXBuff
  C:E1CDH         PUBLIC        _CH376WriteVar32
  B:00A8H.0       PUBLIC        EX0
  D:00D6H         PUBLIC        T2H
  D:00D2H         PUBLIC        T4H
  C:ECCFH         PUBLIC        Accel_Init
  X:01AFH         PUBLIC        zhuangtai
  C:DD47H         PUBLIC        _CH376ByteWrite
  C:E991H         PUBLIC        mInitCH376Host
  D:00D7H         PUBLIC        T2L
  C:E6EEH         PUBLIC        _CH376WriteReqBlock
  D:00D3H         PUBLIC        T4L
  B:0088H.4       PUBLIC        TR0
  X:01B0H         PUBLIC        in
  B:0088H.6       PUBLIC        TR1
  C:E67BH         PUBLIC        QianShou_DoInit
  B:0021H.5       PUBLIC        RX1_flag
  C:ED44H         PUBLIC        MP3_Stop
  B:0021H.6       PUBLIC        RX2_flag
  X:01B2H         PUBLIC        out
BL51 BANKED LINKER/LOCATER V6.00                                                      09/09/2017  17:29:44  PAGE 25


  X:01B4H         PUBLIC        SdcardBuff
  C:E907H         PUBLIC        _MP3_SetVolume
  C:EC9FH         PUBLIC        _UART1_PrintString
  B:0021H.7       PUBLIC        RX4_flag
  C:000EH         PUBLIC        UART4_ResetBauteRate
  D:00D1H         PUBLIC        T4T3M
  C:DE9CH         PUBLIC        CPU_Init
  B:0022H.0       PUBLIC        psx_mode_flag
  C:CB6CH         PUBLIC        _CH376SetFileName
  D:00CDH         PUBLIC        SPSTAT
  C:ED0EH         PUBLIC        Init_SPI
  B:0022H.1       PUBLIC        RX1_mode
  D:009BH         PUBLIC        S2BUF
  C:E964H         PUBLIC        UART1Send_InitPositon
  X:01D4H         PUBLIC        psx_mode
  D:00ADH         PUBLIC        S3BUF
  C:D99FH         PUBLIC        _CH376FileOpenDir
  C:EE31H         PUBLIC        CH376GetDiskStatus
  D:0085H         PUBLIC        S4BUF
  C:E50FH         PUBLIC        _xSetCH376CmdData
  D:009AH         PUBLIC        S2CON
  X:01D5H         PUBLIC        RX2_Key
  D:00ACH         PUBLIC        S3CON
  D:0084H         PUBLIC        S4CON
  C:0006H         PUBLIC        Delay1us_PSX
  C:E86EH         PUBLIC        _xSetCH376Cmd
  C:EE0DH         PUBLIC        Delay3us_PSX
  C:DC4DH         PUBLIC        CH376Read32bitDat
  C:E8D5H         PUBLIC        _UART1_PrintArrayBytes
  C:EE2BH         PUBLIC        CH376GetFileSize
  B:0022H.2       PUBLIC        flag_acc_enable
  C:DF06H         PUBLIC        PSXKey_Filter
  X:01D7H         PUBLIC        anjian
  C:EE1DH         PUBLIC        CH376EndDirInfo
  C:EDFAH         PUBLIC        _UART1_PrintByte
  C:E385H         PUBLIC        _WriteSdcardFileBuffBytes
  C:D0B1H         PUBLIC        _CH376SeparatePath
  C:E80DH         PUBLIC        _MP3_SetPlay
  C:EC40H         PUBLIC        _UART3_PrintByte
  D:00D0H         PUBLIC        PSW
  C:C968H         PUBLIC        _ReadSdcardFileAllBytes
  D:00CFH         PUBLIC        SPDAT
  D:0094H         PUBLIC        P0M0
  -------         PROC          UART_INIT
  C:E6B5H         LINE#         75
  C:E6B5H         LINE#         76
  C:E6B5H         LINE#         77
  C:E6B8H         LINE#         79
  C:E6BBH         LINE#         80
  C:E6BEH         LINE#         82
  C:E6C1H         LINE#         83
  C:E6C4H         LINE#         85
  C:E6C7H         LINE#         87
  C:E6CAH         LINE#         88
  C:E6CDH         LINE#         89
  C:E6D0H         LINE#         90
  C:E6D3H         LINE#         91
BL51 BANKED LINKER/LOCATER V6.00                                                      09/09/2017  17:29:44  PAGE 26


  C:E6D6H         LINE#         93
  C:E6D9H         LINE#         94
  C:E6DCH         LINE#         95
  C:E6DFH         LINE#         97
  C:E6E2H         LINE#         98
  C:E6E5H         LINE#         100
  C:E6E8H         LINE#         102
  C:E6EAH         LINE#         103
  C:E6EDH         LINE#         104
  -------         ENDPROC       UART_INIT
  -------         PROC          UART4_RESETBAUTERATE
  C:000EH         LINE#         107
  C:000EH         LINE#         108
  C:000EH         LINE#         109
  C:0011H         LINE#         110
  C:0014H         LINE#         111
  C:0017H         LINE#         112
  C:001AH         LINE#         113
  -------         ENDPROC       UART4_RESETBAUTERATE
  -------         PROC          _UART1_PRINTSTRING
  D:0001H         SYMBOL        str
  C:EC9FH         LINE#         116
  C:EC9FH         LINE#         117
  C:EC9FH         LINE#         118
  C:ECA1H         LINE#         119
  C:ECA6H         LINE#         120
  C:ECA6H         LINE#         121
  C:ECA8H         LINE#         122
  C:ECABH         LINE#         123
  C:ECADH         LINE#         124
  C:ECB4H         LINE#         125
  C:ECB6H         LINE#         126
  -------         ENDPROC       _UART1_PRINTSTRING
  -------         PROC          _UART1_PRINTARRAYBYTES
  D:0001H         SYMBOL        str
  X:0203H         SYMBOL        len
  -------         DO            
  D:0006H         SYMBOL        i
  -------         ENDDO         
  C:E8D5H         LINE#         128
  C:E8DDH         LINE#         129
  C:E8DDH         LINE#         130
  C:E8E0H         LINE#         131
  C:E8E2H         LINE#         132
  C:E8EEH         LINE#         133
  C:E8EEH         LINE#         134
  C:E8F3H         LINE#         135
  C:E8F6H         LINE#         136
  C:E8F8H         LINE#         137
  C:E8FFH         LINE#         138
  C:E904H         LINE#         139
  C:E906H         LINE#         140
  -------         ENDPROC       _UART1_PRINTARRAYBYTES
  -------         PROC          _UART1_PRINTBYTE
  D:0007H         SYMBOL        value
  C:EDFAH         LINE#         142
  C:EDFAH         LINE#         143
BL51 BANKED LINKER/LOCATER V6.00                                                      09/09/2017  17:29:44  PAGE 27


  C:EDFAH         LINE#         144
  C:EDFCH         LINE#         145
  C:EDFEH         LINE#         146
  C:EE01H         LINE#         147
  C:EE03H         LINE#         148
  -------         ENDPROC       _UART1_PRINTBYTE
  C:EC39H         SYMBOL        L?0760
  -------         PROC          L?0759
  -------         ENDPROC       L?0759
  C:EC39H         SYMBOL        L?0760
  -------         PROC          _UART3_PRINTBYTE
  D:0007H         SYMBOL        value
  C:EC40H         LINE#         161
  C:EC40H         LINE#         162
  C:EC40H         LINE#         163
  C:EC43H         LINE#         164
  C:EC46H         LINE#         165
  C:EC48H         LINE#         166
  C:EC4DH         LINE#         167
  C:EC50H         LINE#         168
  C:EC53H         LINE#         169
  -------         ENDPROC       _UART3_PRINTBYTE
  -------         PROC          _MP3_SETVOLUME
  D:0006H         SYMBOL        volumeValue
  C:E907H         LINE#         184
  C:E909H         LINE#         185
  C:E909H         LINE#         186
  C:E915H         LINE#         187
  C:E915H         LINE#         188
  C:E91AH         LINE#         189
  C:E91FH         LINE#         190
  C:E924H         LINE#         191
  C:E929H         LINE#         192
  C:E930H         LINE#         193
  C:E935H         LINE#         194
  C:E935H         LINE#         195
  -------         ENDPROC       _MP3_SETVOLUME
  C:E804H         SYMBOL        L?0756
  C:E809H         SYMBOL        L?0757
  -------         PROC          L?0755
  -------         ENDPROC       L?0755
  C:E804H         SYMBOL        L?0756
  C:E809H         SYMBOL        L?0757
  -------         PROC          _MP3_SETPLAY
  D:0006H         SYMBOL        mulu
  D:0005H         SYMBOL        wenjian
  -------         DO            
  D:0004H         SYMBOL        i
  -------         ENDDO         
  C:E80DH         LINE#         197
  C:E80FH         LINE#         198
  C:E80FH         LINE#         199
  C:E811H         LINE#         200
  C:E816H         LINE#         201
  C:E81BH         LINE#         202
  C:E820H         LINE#         203
  C:E825H         LINE#         204
BL51 BANKED LINKER/LOCATER V6.00                                                      09/09/2017  17:29:44  PAGE 28


  C:E828H         LINE#         205
  C:E82DH         LINE#         206
  C:E830H         LINE#         207
  C:E834H         LINE#         208
  -------         ENDPROC       _MP3_SETPLAY
  -------         PROC          MP3_STOP
  C:ED44H         LINE#         212
  C:ED44H         LINE#         213
  C:ED44H         LINE#         214
  C:ED44H         LINE#         215
  C:ED47H         LINE#         216
  C:ED4CH         LINE#         217
  C:ED50H         LINE#         218
  -------         ENDPROC       MP3_STOP
  -------         PROC          MP3_PAUSE
  C:ED55H         LINE#         221
  C:ED55H         LINE#         222
  C:ED55H         LINE#         223
  C:ED55H         LINE#         224
  C:ED58H         LINE#         225
  C:ED5DH         LINE#         226
  C:ED61H         LINE#         227
  -------         ENDPROC       MP3_PAUSE
  -------         PROC          MP3_REPLAY
  C:ED66H         LINE#         230
  C:ED66H         LINE#         231
  C:ED66H         LINE#         232
  C:ED66H         LINE#         233
  C:ED69H         LINE#         234
  C:ED6EH         LINE#         235
  C:ED72H         LINE#         236
  -------         ENDPROC       MP3_REPLAY
  -------         PROC          _XWRITECH376CMD
  D:0007H         SYMBOL        mCmd
  C:E9BDH         LINE#         70
  C:E9BDH         LINE#         71
  C:E9BDH         LINE#         72
  C:E9C0H         LINE#         74
  C:E9C3H         LINE#         75
  C:E9C6H         LINE#         76
  C:E9CBH         LINE#         77
  C:E9CEH         LINE#         78
  C:E9D1H         LINE#         79
  C:E9D6H         LINE#         80
  C:E9D9H         LINE#         81
  C:E9DBH         LINE#         82
  C:E9E0H         LINE#         83
  C:E9E3H         LINE#         85
  C:E9E6H         LINE#         86
  -------         ENDPROC       _XWRITECH376CMD
  -------         PROC          L?0758
  -------         ENDPROC       L?0758
  -------         PROC          _XWRITECH376DATA
  D:0007H         SYMBOL        mData
  C:EB41H         LINE#         95
  C:EB41H         LINE#         96
  C:EB41H         LINE#         97
BL51 BANKED LINKER/LOCATER V6.00                                                      09/09/2017  17:29:44  PAGE 29


  C:EB44H         LINE#         99
  C:EB47H         LINE#         100
  C:EB49H         LINE#         101
  C:EB4EH         LINE#         102
  C:EB51H         LINE#         104
  C:EB54H         LINE#         105
  -------         ENDPROC       _XWRITECH376DATA
  -------         PROC          L?0765
  -------         ENDPROC       L?0765
  -------         PROC          XREADCH376DATA
  -------         DO            
  X:0237H         SYMBOL        i
  -------         ENDDO         
  C:E024H         LINE#         113
  C:E024H         LINE#         114
  C:E024H         LINE#         118
  C:E04AH         LINE#         119
  C:E04AH         LINE#         120
  C:E04DH         LINE#         121
  C:E04DH         LINE#         122
  C:E04FH         LINE#         124
  C:E055H         LINE#         125
  C:E055H         LINE#         126
  C:E076H         LINE#         128
  C:E078H         LINE#         129
  -------         ENDPROC       XREADCH376DATA
  -------         PROC          _XSETCH376CMDDATA
  D:0007H         SYMBOL        mCmd
  D:0005H         SYMBOL        mData
  -------         DO            
  D:0007H         SYMBOL        res
  -------         ENDDO         
  C:E50FH         LINE#         133
  C:E50FH         LINE#         134
  C:E50FH         LINE#         137
  C:E512H         LINE#         139
  C:E515H         LINE#         140
  C:E518H         LINE#         141
  C:E51DH         LINE#         142
  C:E520H         LINE#         143
  C:E523H         LINE#         144
  C:E528H         LINE#         145
  C:E52BH         LINE#         146
  C:E52DH         LINE#         147
  C:E532H         LINE#         148
  C:E535H         LINE#         149
  C:E539H         LINE#         150
  C:E53EH         LINE#         151
  C:E541H         LINE#         153
  C:E546H         LINE#         154
  C:E549H         LINE#         155
  C:E54BH         LINE#         157
  C:E54EH         LINE#         159
  C:E54EH         LINE#         160
  -------         ENDPROC       _XSETCH376CMDDATA
  -------         PROC          _XSETCH376CMD
  D:0007H         SYMBOL        mCmd
BL51 BANKED LINKER/LOCATER V6.00                                                      09/09/2017  17:29:44  PAGE 30


  -------         DO            
  D:0007H         SYMBOL        res
  -------         ENDDO         
  C:E86EH         LINE#         163
  C:E86EH         LINE#         164
  C:E86EH         LINE#         167
  C:E871H         LINE#         169
  C:E874H         LINE#         170
  C:E877H         LINE#         171
  C:E87CH         LINE#         172
  C:E87FH         LINE#         173
  C:E882H         LINE#         174
  C:E887H         LINE#         175
  C:E88AH         LINE#         176
  C:E88CH         LINE#         177
  C:E891H         LINE#         178
  C:E894H         LINE#         180
  C:E899H         LINE#         181
  C:E89CH         LINE#         182
  C:E89EH         LINE#         184
  C:E8A1H         LINE#         186
  C:E8A1H         LINE#         187
  -------         ENDPROC       _XSETCH376CMD
  -------         PROC          QUERY376INTERRUPT
  C:EDEFH         LINE#         197
  C:EDEFH         LINE#         198
  C:EDEFH         LINE#         203
  C:EDF2H         LINE#         204
  C:EDF2H         LINE#         205
  C:EDF4H         LINE#         207
  C:EDF7H         LINE#         208
  C:EDF7H         LINE#         210
  C:EDF7H         LINE#         211
  C:EDF9H         LINE#         212
  C:EDF9H         LINE#         214
  -------         ENDPROC       QUERY376INTERRUPT
  -------         PROC          MINITCH376HOST
  -------         DO            
  D:0007H         SYMBOL        res
  -------         ENDDO         
  C:E991H         LINE#         224
  C:E991H         LINE#         225
  C:E991H         LINE#         227
  C:E998H         LINE#         229
  C:E99FH         LINE#         231
  C:E9A4H         LINE#         233
  C:E9A8H         LINE#         234
  C:E9A8H         LINE#         235
  C:E9ADH         LINE#         236
  C:E9B1H         LINE#         237
  C:E9B6H         LINE#         238
  C:E9B9H         LINE#         239
  C:E9BCH         LINE#         240
  C:E9BCH         LINE#         242
  C:E9BCH         LINE#         244
  -------         ENDPROC       MINITCH376HOST
  -------         PROC          _CH376READBLOCK
BL51 BANKED LINKER/LOCATER V6.00                                                      09/09/2017  17:29:44  PAGE 31


  X:022FH         SYMBOL        buf
  -------         DO            
  X:0232H         SYMBOL        s
  X:0233H         SYMBOL        l
  -------         ENDDO         
  C:0046H         LINE#         253
  C:0051H         LINE#         254
  C:0051H         LINE#         257
  C:0053H         LINE#         258
  C:005FH         LINE#         259
  C:0061H         LINE#         260
  C:0061H         LINE#         262
  C:0061H         LINE#         263
  C:0073H         LINE#         264
  C:007DH         LINE#         265
  C:0085H         LINE#         266
  C:0085H         LINE#         267
  C:008AH         LINE#         268
  -------         ENDPROC       _CH376READBLOCK
  -------         PROC          _CH376WRITEREQBLOCK
  X:0201H         SYMBOL        buf
  -------         DO            
  D:0005H         SYMBOL        s
  D:0006H         SYMBOL        l
  -------         ENDDO         
  C:E6EEH         LINE#         277
  C:E6F9H         LINE#         278
  C:E6F9H         LINE#         281
  C:E6FBH         LINE#         282
  C:E702H         LINE#         283
  C:E705H         LINE#         284
  C:E705H         LINE#         286
  C:E705H         LINE#         287
  C:E717H         LINE#         288
  C:E721H         LINE#         289
  C:E723H         LINE#         290
  C:E723H         LINE#         292
  C:E725H         LINE#         293
  -------         ENDPROC       _CH376WRITEREQBLOCK
  -------         PROC          CH376READ32BITDAT
  -------         DO            
  X:0233H         SYMBOL        c0
  X:0234H         SYMBOL        c1
  X:0235H         SYMBOL        c2
  X:0236H         SYMBOL        c3
  -------         ENDDO         
  C:DC4DH         LINE#         301
  C:DC4DH         LINE#         302
  C:DC4DH         LINE#         305
  C:DC55H         LINE#         306
  C:DC5DH         LINE#         307
  C:DC65H         LINE#         308
  C:DC6DH         LINE#         309
  C:DCCCH         LINE#         310
  -------         ENDPROC       CH376READ32BITDAT
  -------         PROC          _CH376READVAR8
  D:0006H         SYMBOL        var
BL51 BANKED LINKER/LOCATER V6.00                                                      09/09/2017  17:29:44  PAGE 32


  -------         DO            
  D:0007H         SYMBOL        c0
  -------         ENDDO         
  C:ED99H         LINE#         318
  C:ED9BH         LINE#         319
  C:ED9BH         LINE#         322
  C:EDA0H         LINE#         323
  C:EDA5H         LINE#         324
  C:EDA8H         LINE#         325
  C:EDA8H         LINE#         326
  -------         ENDPROC       _CH376READVAR8
  -------         PROC          _CH376WRITEVAR8
  D:0006H         SYMBOL        var
  D:0005H         SYMBOL        dat
  C:ED77H         LINE#         337
  C:ED79H         LINE#         338
  C:ED79H         LINE#         339
  C:ED7EH         LINE#         340
  C:ED83H         LINE#         341
  -------         ENDPROC       _CH376WRITEVAR8
  -------         PROC          _CH376READVAR32
  D:0006H         SYMBOL        var
  C:EDA9H         LINE#         351
  C:EDABH         LINE#         352
  C:EDABH         LINE#         353
  C:EDB0H         LINE#         354
  C:EDB5H         LINE#         355
  C:EDB8H         LINE#         356
  -------         ENDPROC       _CH376READVAR32
  -------         PROC          _CH376WRITEVAR32
  D:0006H         SYMBOL        var
  X:0234H         SYMBOL        dat
  C:E1CDH         LINE#         367
  C:E1CFH         LINE#         368
  C:E1CFH         LINE#         369
  C:E1D4H         LINE#         370
  C:E1D9H         LINE#         371
  C:E1E4H         LINE#         372
  C:E1F0H         LINE#         373
  C:E206H         LINE#         374
  -------         ENDPROC       _CH376WRITEVAR32
  -------         PROC          CH376ENDDIRINFO
  C:EE1DH         LINE#         383
  C:EE1DH         LINE#         384
  C:EE1DH         LINE#         385
  -------         ENDPROC       CH376ENDDIRINFO
  -------         PROC          CH376GETFILESIZE
  C:EE2BH         LINE#         394
  C:EE2BH         LINE#         395
  C:EE2BH         LINE#         396
  C:EE30H         LINE#         397
  -------         ENDPROC       CH376GETFILESIZE
  -------         PROC          CH376GETDISKSTATUS
  C:EE31H         LINE#         405
  C:EE31H         LINE#         406
  C:EE31H         LINE#         407
  C:EE36H         LINE#         408
BL51 BANKED LINKER/LOCATER V6.00                                                      09/09/2017  17:29:44  PAGE 33


  -------         ENDPROC       CH376GETDISKSTATUS
  -------         PROC          CH376GETINTSTATUS
  -------         DO            
  D:0007H         SYMBOL        s
  -------         ENDDO         
  C:EE04H         LINE#         417
  C:EE04H         LINE#         418
  C:EE04H         LINE#         421
  C:EE09H         LINE#         422
  C:EE0CH         LINE#         423
  C:EE0CH         LINE#         424
  -------         ENDPROC       CH376GETINTSTATUS
  -------         PROC          WAIT376INTERRUPT
  -------         DO            
  X:0233H         SYMBOL        i
  -------         ENDDO         
  C:E17AH         LINE#         434
  C:E17AH         LINE#         435
  C:E17AH         LINE#         456
  C:E1A0H         LINE#         457
  C:E1A0H         LINE#         458
  C:E1A6H         LINE#         459
  C:E1A6H         LINE#         460
  C:E1A9H         LINE#         461
  C:E1A9H         LINE#         463
  C:E1CAH         LINE#         464
  C:E1CCH         LINE#         466
  -------         ENDPROC       WAIT376INTERRUPT
  -------         PROC          _CH376SENDCMDWAITINT
  D:0007H         SYMBOL        mCmd
  C:EE24H         LINE#         476
  C:EE24H         LINE#         477
  C:EE24H         LINE#         478
  C:EE27H         LINE#         479
  C:EE2AH         LINE#         480
  -------         ENDPROC       _CH376SENDCMDWAITINT
  C:EDB9H         SYMBOL        L?0762
  -------         PROC          L?0761
  -------         ENDPROC       L?0761
  C:EDB9H         SYMBOL        L?0762
  -------         PROC          _CH376SENDCMDDATWAITINT
  D:0007H         SYMBOL        mCmd
  D:0005H         SYMBOL        mDat
  C:EDBDH         LINE#         488
  C:EDBDH         LINE#         489
  C:EDBDH         LINE#         490
  C:EDC0H         LINE#         491
  C:EDC5H         LINE#         492
  C:EDC8H         LINE#         493
  -------         ENDPROC       _CH376SENDCMDDATWAITINT
  -------         PROC          _CH376SETFILENAME
  X:022FH         SYMBOL        name
  -------         DO            
  D:0006H         SYMBOL        c
  X:0232H         SYMBOL        s
  D:0007H         SYMBOL        i
  -------         ENDDO         
BL51 BANKED LINKER/LOCATER V6.00                                                      09/09/2017  17:29:44  PAGE 34


  C:CB6CH         LINE#         545
  C:CB77H         LINE#         546
  C:CB77H         LINE#         553
  C:CB7CH         LINE#         554
  C:CB7FH         LINE#         556
  C:CB88H         LINE#         557
  C:CB88H         LINE#         558
  C:CB96H         LINE#         559
  C:CB96H         LINE#         560
  C:CB9BH         LINE#         561
  C:CBA0H         LINE#         562
  C:CBAAH         LINE#         563
  C:CBAEH         LINE#         564
  C:CBAEH         LINE#         565
  C:CBB8H         LINE#         566
  C:CBBAH         LINE#         567
  C:CBBAH         LINE#         568
  C:CBE5H         LINE#         569
  C:CC10H         LINE#         570
  C:CC1FH         LINE#         571
  C:CC1FH         LINE#         572
  C:CC1FH         LINE#         573
  C:CC1FH         LINE#         574
  C:CC1FH         LINE#         576
  C:CC24H         LINE#         577
  C:CC33H         LINE#         578
  C:CC36H         LINE#         579
  C:CC39H         LINE#         580
  C:CC39H         LINE#         581
  C:CC43H         LINE#         582
  C:CC52H         LINE#         583
  C:CC5AH         LINE#         584
  C:CC5AH         LINE#         585
  C:CC5CH         LINE#         586
  C:CC5CH         LINE#         587
  C:CC61H         LINE#         588
  C:CC63H         LINE#         589
  -------         ENDPROC       _CH376SETFILENAME
  -------         PROC          _CH376FILEOPEN
  X:022CH         SYMBOL        name
  C:E340H         LINE#         597
  C:E34BH         LINE#         598
  C:E34BH         LINE#         599
  C:E359H         LINE#         601
  C:E370H         LINE#         602
  C:E370H         LINE#         603
  C:E37FH         LINE#         604
  C:E37FH         LINE#         606
  C:E384H         LINE#         607
  -------         ENDPROC       _CH376FILEOPEN
  -------         PROC          _CH376FILECREATE
  D:0001H         SYMBOL        name
  C:EDC9H         LINE#         615
  C:EDC9H         LINE#         616
  C:EDC9H         LINE#         617
  C:EDCEH         LINE#         618
  C:EDCEH         LINE#         619
BL51 BANKED LINKER/LOCATER V6.00                                                      09/09/2017  17:29:44  PAGE 35


  C:EDD1H         LINE#         620
  C:EDD1H         LINE#         621
  C:EDD6H         LINE#         622
  -------         ENDPROC       _CH376FILECREATE
  -------         PROC          _CH376SEPARATEPATH
  X:01FEH         SYMBOL        path
  -------         DO            
  X:0201H         SYMBOL        pName
  -------         ENDDO         
  C:D0B1H         LINE#         649
  C:D0BCH         LINE#         650
  C:D0BCH         LINE#         653
  C:D0E1H         LINE#         654
  C:D126H         LINE#         655
  C:D126H         LINE#         656
  C:D130H         LINE#         657
  C:D132H         LINE#         658
  C:D15FH         LINE#         659
  C:D15FH         LINE#         660
  C:D169H         LINE#         661
  C:D169H         LINE#         662
  C:D177H         LINE#         663
  -------         ENDPROC       _CH376SEPARATEPATH
  -------         PROC          _CH376FILEOPENDIR
  X:0227H         SYMBOL        PathName
  X:022AH         SYMBOL        StopName
  -------         DO            
  X:022BH         SYMBOL        i
  D:0007H         SYMBOL        s
  -------         ENDDO         
  C:D99FH         LINE#         675
  C:D9ADH         LINE#         676
  C:D9ADH         LINE#         679
  C:D9AFH         LINE#         680
  C:D9B2H         LINE#         681
  C:D9B2H         LINE#         682
  C:D9B2H         LINE#         683
  C:D9D6H         LINE#         684
  C:D9D6H         LINE#         685
  C:D9DCH         LINE#         686
  C:D9DEH         LINE#         688
  C:D9E1H         LINE#         689
  C:D9E1H         LINE#         690
  C:D9E7H         LINE#         691
  C:D9E9H         LINE#         693
  C:D9E9H         LINE#         694
  C:D9EEH         LINE#         695
  C:D9EEH         LINE#         697
  C:DA02H         LINE#         699
  C:DA12H         LINE#         700
  C:DA12H         LINE#         701
  C:DA17H         LINE#         702
  C:DA17H         LINE#         703
  C:DA1BH         LINE#         704
  C:DA1BH         LINE#         705
  C:DA1EH         LINE#         706
  C:DA1EH         LINE#         707
BL51 BANKED LINKER/LOCATER V6.00                                                      09/09/2017  17:29:44  PAGE 36


  C:DA22H         LINE#         708
  C:DA22H         LINE#         709
  C:DA25H         LINE#         710
  C:DA25H         LINE#         712
  C:DA25H         LINE#         713
  C:DA26H         LINE#         714
  C:DA26H         LINE#         715
  C:DA26H         LINE#         716
  C:DA2BH         LINE#         717
  C:DA2DH         LINE#         719
  C:DA2DH         LINE#         720
  C:DA2DH         LINE#         721
  C:DA2DH         LINE#         722
  C:DA2DH         LINE#         723
  -------         ENDPROC       _CH376FILEOPENDIR
  -------         PROC          L?0764
  -------         ENDPROC       L?0764
  -------         PROC          _CH376BYTELOCATE
  X:0227H         SYMBOL        offset
  C:E64BH         LINE#         745
  C:E651H         LINE#         746
  C:E651H         LINE#         747
  C:E656H         LINE#         748
  C:E661H         LINE#         749
  C:E66DH         LINE#         750
  C:E672H         LINE#         751
  C:E677H         LINE#         753
  C:E67AH         LINE#         754
  -------         ENDPROC       _CH376BYTELOCATE
  -------         PROC          L?0763
  -------         ENDPROC       L?0763
  -------         PROC          _CH376BYTEREAD
  X:0227H         SYMBOL        buf
  D:0004H         SYMBOL        ReqCount
  X:022CH         SYMBOL        RealCount
  -------         DO            
  D:0006H         SYMBOL        s
  -------         ENDDO         
  C:DBD6H         LINE#         767
  C:DBE1H         LINE#         768
  C:DBE1H         LINE#         771
  C:DBE6H         LINE#         772
  C:DBEBH         LINE#         773
  C:DBF0H         LINE#         775
  C:DC00H         LINE#         776
  C:DC00H         LINE#         777
  C:DC06H         LINE#         778
  C:DC06H         LINE#         780
  C:DC06H         LINE#         781
  C:DC06H         LINE#         782
  C:DC0BH         LINE#         783
  C:DC10H         LINE#         784
  C:DC10H         LINE#         785
  C:DC20H         LINE#         786
  C:DC25H         LINE#         788
  C:DC32H         LINE#         789
  C:DC42H         LINE#         790
BL51 BANKED LINKER/LOCATER V6.00                                                      09/09/2017  17:29:44  PAGE 37


  C:DC42H         LINE#         791
  C:DC48H         LINE#         792
  C:DC48H         LINE#         793
  C:DC4AH         LINE#         795
  C:DC4AH         LINE#         796
  C:DC4CH         LINE#         797
  C:DC4CH         LINE#         798
  C:DC4CH         LINE#         800
  -------         ENDPROC       _CH376BYTEREAD
  -------         PROC          _CH376BYTEWRITE
  X:01F9H         SYMBOL        buf
  D:0004H         SYMBOL        ReqCount
  X:01FEH         SYMBOL        RealCount
  -------         DO            
  D:0006H         SYMBOL        s
  -------         ENDDO         
  C:DD47H         LINE#         813
  C:DD52H         LINE#         814
  C:DD52H         LINE#         817
  C:DD57H         LINE#         818
  C:DD5CH         LINE#         819
  C:DD61H         LINE#         821
  C:DD71H         LINE#         822
  C:DD71H         LINE#         823
  C:DD77H         LINE#         824
  C:DD77H         LINE#         826
  C:DD77H         LINE#         827
  C:DD77H         LINE#         828
  C:DD7CH         LINE#         829
  C:DD81H         LINE#         830
  C:DD81H         LINE#         831
  C:DD91H         LINE#         832
  C:DD96H         LINE#         834
  C:DDA3H         LINE#         835
  C:DDB9H         LINE#         836
  C:DDBBH         LINE#         838
  C:DDBBH         LINE#         839
  C:DDBDH         LINE#         840
  C:DDBDH         LINE#         841
  C:DDBDH         LINE#         842
  -------         ENDPROC       _CH376BYTEWRITE
  -------         PROC          _CREATESDCARDFILE
  X:01F5H         SYMBOL        TarFileName
  -------         DO            
  X:01F8H         SYMBOL        s
  X:01F9H         SYMBOL        TarName
  X:01FAH         SYMBOL        TarUpDirClust
  -------         ENDDO         
  C:D876H         LINE#         985
  C:D881H         LINE#         986
  C:D881H         LINE#         991
  C:D889H         LINE#         992
  C:D88BH         LINE#         993
  C:D88BH         LINE#         994
  C:D8A3H         LINE#         995
  C:D8A7H         LINE#         996
  C:D8A7H         LINE#         997
BL51 BANKED LINKER/LOCATER V6.00                                                      09/09/2017  17:29:44  PAGE 38


  C:D8ACH         LINE#         998
  C:D8ACH         LINE#         999
  C:D8AFH         LINE#         1000
  C:D8AFH         LINE#         1001
  C:D8B3H         LINE#         1002
  C:D8B3H         LINE#         1003
  C:D8B6H         LINE#         1004
  C:D8B6H         LINE#         1006
  C:D8B6H         LINE#         1007
  C:D8B8H         LINE#         1008
  C:D8B8H         LINE#         1009
  C:D8B8H         LINE#         1010
  C:D8C3H         LINE#         1011
  C:D8C5H         LINE#         1013
  C:D8C5H         LINE#         1014
  C:D8CFH         LINE#         1015
  C:D8CFH         LINE#         1021
  C:D8EFH         LINE#         1022
  C:D8F3H         LINE#         1023
  C:D8F3H         LINE#         1024
  C:D8F6H         LINE#         1025
  C:D8F6H         LINE#         1028
  C:D8FEH         LINE#         1029
  C:D902H         LINE#         1030
  C:D902H         LINE#         1031
  C:D905H         LINE#         1032
  C:D905H         LINE#         1034
  C:D90AH         LINE#         1035
  -------         ENDPROC       _CREATESDCARDFILE
  -------         PROC          _WRITESDCARDFILEBUFFBYTES
  D:0001H         SYMBOL        SrcFileName
  X:01F5H         SYMBOL        ByteCount
  -------         DO            
  D:0007H         SYMBOL        s
  -------         ENDDO         
  C:E385H         LINE#         1041
  C:E38BH         LINE#         1042
  C:E38BH         LINE#         1046
  C:E390H         LINE#         1047
  C:E395H         LINE#         1048
  C:E396H         LINE#         1050
  C:E39CH         LINE#         1051
  C:E3A1H         LINE#         1052
  C:E3A2H         LINE#         1054
  C:E3B7H         LINE#         1055
  C:E3BCH         LINE#         1056
  C:E3BDH         LINE#         1059
  C:E3C0H         LINE#         1060
  C:E3C5H         LINE#         1061
  C:E3C6H         LINE#         1063
  C:E3C6H         LINE#         1064
  -------         ENDPROC       _WRITESDCARDFILEBUFFBYTES
  -------         PROC          _READSDCARDFILEALLBYTES
  X:01F5H         SYMBOL        SrcFileName
  -------         DO            
  X:01F8H         SYMBOL        s
  X:01F9H         SYMBOL        ThisLen
BL51 BANKED LINKER/LOCATER V6.00                                                      09/09/2017  17:29:44  PAGE 39


  X:01FBH         SYMBOL        FileSize
  X:01FFH         SYMBOL        ByteCount
  -------         ENDDO         
  C:C968H         LINE#         1069
  C:C973H         LINE#         1070
  C:C973H         LINE#         1073
  C:C97DH         LINE#         1076
  C:C97DH         LINE#         1078
  C:C992H         LINE#         1079
  C:C996H         LINE#         1080
  C:C999H         LINE#         1082
  C:C9B2H         LINE#         1083
  C:C9B2H         LINE#         1084
  C:C9BBH         LINE#         1085
  C:C9BDH         LINE#         1087
  C:C9BDH         LINE#         1088
  C:C9C8H         LINE#         1089
  C:C9CCH         LINE#         1090
  C:C9CFH         LINE#         1091
  C:C9CFH         LINE#         1093
  C:C9E3H         LINE#         1094
  C:C9E7H         LINE#         1095
  C:C9EAH         LINE#         1097
  C:CA15H         LINE#         1099
  C:CA26H         LINE#         1101
  C:CA35H         LINE#         1102
  C:CA35H         LINE#         1103
  C:CA35H         LINE#         1104
  C:CA35H         LINE#         1106
  C:CA58H         LINE#         1109
  C:CA60H         LINE#         1110
  C:CA64H         LINE#         1111
  C:CA64H         LINE#         1112
  C:CA67H         LINE#         1113
  C:CA67H         LINE#         1115
  C:CA69H         LINE#         1116
  -------         ENDPROC       _READSDCARDFILEALLBYTES
  -------         PROC          _READSDCARDFILE32BYTES
  D:0001H         SYMBOL        SrcFileName
  -------         DO            
  D:0007H         SYMBOL        s
  X:0225H         SYMBOL        ThisLen
  -------         ENDDO         
  C:E54FH         LINE#         1121
  C:E54FH         LINE#         1122
  C:E54FH         LINE#         1127
  C:E554H         LINE#         1128
  C:E559H         LINE#         1129
  C:E55AH         LINE#         1131
  C:E565H         LINE#         1132
  C:E56AH         LINE#         1133
  C:E56BH         LINE#         1135
  C:E57AH         LINE#         1136
  C:E57FH         LINE#         1137
  C:E580H         LINE#         1140
  C:E583H         LINE#         1141
  C:E588H         LINE#         1142
BL51 BANKED LINKER/LOCATER V6.00                                                      09/09/2017  17:29:44  PAGE 40


  C:E589H         LINE#         1144
  C:E58BH         LINE#         1145
  -------         ENDPROC       _READSDCARDFILE32BYTES
  -------         PROC          DELAY3US_PSX
  -------         DO            
  D:0007H         SYMBOL        i
  -------         ENDDO         
  C:EE0DH         LINE#         38
  C:EE0DH         LINE#         39
  C:EE0DH         LINE#         42
  C:EE0EH         LINE#         43
  C:EE0FH         LINE#         44
  C:EE10H         LINE#         45
  C:EE12H         LINE#         46
  C:EE14H         LINE#         47
  -------         ENDPROC       DELAY3US_PSX
  -------         PROC          DELAY1US_PSX
  C:0006H         LINE#         49
  C:0006H         LINE#         50
  C:0006H         LINE#         51
  C:0007H         LINE#         52
  C:0008H         LINE#         53
  C:0009H         LINE#         54
  -------         ENDPROC       DELAY1US_PSX
  -------         PROC          INIT_SPI
  C:ED0EH         LINE#         57
  C:ED0EH         LINE#         58
  C:ED0EH         LINE#         60
  C:ED11H         LINE#         61
  C:ED14H         LINE#         62
  C:ED17H         LINE#         63
  C:ED1AH         LINE#         65
  C:ED1CH         LINE#         66
  C:ED1FH         LINE#         67
  -------         ENDPROC       INIT_SPI
  -------         PROC          CLEAR_PSXBUFF
  -------         DO            
  X:01E2H         SYMBOL        i
  X:01E3H         SYMBOL        j
  X:01E4H         SYMBOL        psx_buff
  -------         ENDDO         
  C:DE31H         LINE#         70
  C:DE31H         LINE#         71
  C:DE31H         LINE#         72
  C:DE38H         LINE#         73
  C:DE4AH         LINE#         75
  C:DE4CH         LINE#         76
  C:DE4FH         LINE#         77
  C:DE59H         LINE#         78
  C:DE59H         LINE#         79
  C:DE5CH         LINE#         80
  C:DE61H         LINE#         82
  C:DE61H         LINE#         83
  C:DE68H         LINE#         84
  C:DE6DH         LINE#         85
  C:DE70H         LINE#         86
  C:DE70H         LINE#         87
BL51 BANKED LINKER/LOCATER V6.00                                                      09/09/2017  17:29:44  PAGE 41


  C:DE76H         LINE#         88
  C:DE7BH         LINE#         89
  C:DE7EH         LINE#         90
  C:DE8EH         LINE#         91
  C:DE91H         LINE#         92
  C:DE97H         LINE#         93
  C:DE99H         LINE#         94
  C:DE9BH         LINE#         95
  -------         ENDPROC       CLEAR_PSXBUFF
  -------         PROC          OBTAIN_PSXCODE
  -------         DO            
  X:01E2H         SYMBOL        i
  X:01E3H         SYMBOL        j
  X:01E4H         SYMBOL        psx_buff
  D:0004H         SYMBOL        psx_key_buff
  -------         ENDDO         
  C:5BCFH         LINE#         97
  C:5BCFH         LINE#         98
  C:5BCFH         LINE#         99
  C:5BD6H         LINE#         100
  C:5BE8H         LINE#         101
  C:5BEBH         LINE#         103
  C:5BEDH         LINE#         104
  C:5BF0H         LINE#         105
  C:5BFAH         LINE#         106
  C:5BFAH         LINE#         107
  C:5BFDH         LINE#         108
  C:5C02H         LINE#         110
  C:5C02H         LINE#         111
  C:5C09H         LINE#         112
  C:5C0EH         LINE#         113
  C:5C11H         LINE#         114
  C:5C11H         LINE#         115
  C:5C17H         LINE#         116
  C:5C1CH         LINE#         117
  C:5C1FH         LINE#         118
  C:5C2FH         LINE#         119
  C:5C32H         LINE#         120
  C:5C38H         LINE#         121
  C:5C3AH         LINE#         122
  C:5C3CH         LINE#         123
  C:5C44H         LINE#         124
  C:5C44H         LINE#         125
  C:5C4DH         LINE#         126
  C:5C4DH         LINE#         127
  C:5C55H         LINE#         128
  C:5C5CH         LINE#         130
  C:5C5CH         LINE#         131
  C:5C5CH         LINE#         132
  C:5C61H         LINE#         133
  C:5C65H         LINE#         134
  C:5C6FH         LINE#         135
  C:5C6FH         LINE#         136
  C:5D2FH         LINE#         137
  C:5D2FH         LINE#         138
  C:5D38H         LINE#         139
  C:5D41H         LINE#         140
BL51 BANKED LINKER/LOCATER V6.00                                                      09/09/2017  17:29:44  PAGE 42


  C:5D4AH         LINE#         141
  C:5D53H         LINE#         143
  C:5D5CH         LINE#         144
  C:5D65H         LINE#         145
  C:5D6EH         LINE#         146
  C:5D77H         LINE#         148
  C:5D80H         LINE#         149
  C:5D89H         LINE#         150
  C:5D92H         LINE#         151
  C:5D9BH         LINE#         152
  C:5DA4H         LINE#         153
  C:5DADH         LINE#         154
  C:5DB6H         LINE#         155
  C:5DBFH         LINE#         156
  C:5DC8H         LINE#         157
  C:5DD1H         LINE#         158
  C:5DDAH         LINE#         159
  C:5DE3H         LINE#         160
  C:5DECH         LINE#         161
  C:5DF5H         LINE#         162
  C:5DFEH         LINE#         163
  C:5E07H         LINE#         165
  C:5E10H         LINE#         166
  C:5E19H         LINE#         167
  C:5E22H         LINE#         168
  C:5E2BH         LINE#         169
  C:5E34H         LINE#         170
  C:5E3CH         LINE#         171
  C:5E44H         LINE#         172
  C:5E4CH         LINE#         173
  C:5E54H         LINE#         174
  C:5E5CH         LINE#         175
  C:5E64H         LINE#         176
  C:5E6CH         LINE#         177
  C:5E74H         LINE#         178
  C:5E7CH         LINE#         179
  C:5E84H         LINE#         181
  C:5E8CH         LINE#         182
  C:5E94H         LINE#         183
  C:5E9BH         LINE#         184
  C:5EA3H         LINE#         185
  C:5EABH         LINE#         186
  C:5EB3H         LINE#         188
  C:5EB9H         LINE#         189
  C:5EB9H         LINE#         190
  C:5EC1H         LINE#         192
  C:5EC7H         LINE#         193
  C:5ED2H         LINE#         194
  C:5ED2H         LINE#         195
  C:5ED6H         LINE#         196
  C:5EDDH         LINE#         197
  C:5EE6H         LINE#         199
  C:5EE6H         LINE#         200
  C:5EEAH         LINE#         201
  C:5EF1H         LINE#         202
  C:5EF1H         LINE#         203
  C:5EF8H         LINE#         204
BL51 BANKED LINKER/LOCATER V6.00                                                      09/09/2017  17:29:44  PAGE 43


  C:5F01H         LINE#         206
  C:5F01H         LINE#         207
  C:5F05H         LINE#         208
  C:5F0CH         LINE#         209
  C:5F0CH         LINE#         210
  C:5F13H         LINE#         211
  C:5F1CH         LINE#         213
  C:5F1CH         LINE#         214
  C:5F20H         LINE#         215
  C:5F27H         LINE#         216
  C:5F27H         LINE#         217
  C:5F2EH         LINE#         218
  C:5F37H         LINE#         220
  C:5F37H         LINE#         221
  C:5F3BH         LINE#         222
  C:5F42H         LINE#         223
  C:5F42H         LINE#         224
  C:5F64H         LINE#         225
  C:5F64H         LINE#         226
  C:5F6BH         LINE#         227
  C:5F72H         LINE#         228
  C:5F79H         LINE#         229
  C:5F80H         LINE#         231
  C:5F87H         LINE#         232
  C:5F8EH         LINE#         233
  C:5F95H         LINE#         234
  C:5F9CH         LINE#         252
  C:5FA2H         LINE#         253
  C:5FA2H         LINE#         254
  C:5FA2H         LINE#         255
  -------         ENDPROC       OBTAIN_PSXCODE
  -------         PROC          PSXKEY_FILTER
  C:DF06H         LINE#         257
  C:DF06H         LINE#         258
  C:DF06H         LINE#         259
  C:DF13H         LINE#         260
  C:DF13H         LINE#         261
  C:DF1AH         LINE#         262
  C:DF1AH         LINE#         263
  C:DF26H         LINE#         264
  C:DF28H         LINE#         265
  C:DF2AH         LINE#         267
  C:DF2AH         LINE#         268
  C:DF37H         LINE#         269
  C:DF39H         LINE#         270
  C:DF39H         LINE#         271
  C:DF45H         LINE#         272
  C:DF45H         LINE#         273
  C:DF47H         LINE#         274
  C:DF4CH         LINE#         275
  C:DF4CH         LINE#         276
  C:DF4EH         LINE#         278
  C:DF4EH         LINE#         279
  C:DF54H         LINE#         280
  C:DF5AH         LINE#         281
  C:DF60H         LINE#         282
  C:DF60H         LINE#         283
BL51 BANKED LINKER/LOCATER V6.00                                                      09/09/2017  17:29:44  PAGE 44


  C:DF61H         LINE#         285
  C:DF61H         LINE#         286
  C:DF64H         LINE#         287
  C:DF64H         LINE#         288
  C:DF66H         LINE#         289
  C:DF68H         LINE#         290
  C:DF68H         LINE#         291
  C:DF68H         LINE#         292
  -------         ENDPROC       PSXKEY_FILTER
  -------         PROC          CPU_INIT
  -------         DO            
  D:0007H         SYMBOL        i
  -------         ENDDO         
  C:DE9CH         LINE#         44
  C:DE9CH         LINE#         45
  C:DE9CH         LINE#         48
  C:DE9FH         LINE#         55
  C:DEA2H         LINE#         56
  C:DEA4H         LINE#         57
  C:DEA6H         LINE#         58
  C:DEA8H         LINE#         59
  C:DEAAH         LINE#         60
  C:DEACH         LINE#         61
  C:DEAEH         LINE#         62
  C:DEB0H         LINE#         63
  C:DEB3H         LINE#         64
  C:DEB5H         LINE#         65
  C:DEB8H         LINE#         66
  C:DEBAH         LINE#         67
  C:DEBCH         LINE#         68
  C:DEBEH         LINE#         69
  C:DEC0H         LINE#         70
  C:DEC2H         LINE#         72
  C:DEC5H         LINE#         75
  C:DEC8H         LINE#         77
  C:DECBH         LINE#         79
  C:DECEH         LINE#         82
  C:DED0H         LINE#         85
  C:DEF0H         LINE#         87
  C:DEF7H         LINE#         88
  C:DEFBH         LINE#         90
  C:DEFBH         LINE#         91
  C:DF05H         LINE#         92
  -------         ENDPROC       CPU_INIT
  -------         PROC          ACCEL_INIT
  C:ECCFH         LINE#         95
  C:ECCFH         LINE#         96
  C:ECCFH         LINE#         97
  C:ECD1H         LINE#         98
  C:ECD4H         LINE#         99
  C:ECD4H         LINE#         101
  C:ECD9H         LINE#         102
  C:ECDCH         LINE#         103
  C:ECE1H         LINE#         104
  C:ECE4H         LINE#         105
  C:ECE4H         LINE#         106
  -------         ENDPROC       ACCEL_INIT
BL51 BANKED LINKER/LOCATER V6.00                                                      09/09/2017  17:29:44  PAGE 45


  -------         PROC          DOCHECKOUT_ONLINE
  -------         DO            
  X:01E2H         SYMBOL        ii
  X:01E3H         SYMBOL        jj
  -------         ENDDO         
  C:E726H         LINE#         110
  C:E726H         LINE#         111
  C:E726H         LINE#         112
  C:E72DH         LINE#         113
  C:E73AH         LINE#         114
  C:E73AH         LINE#         115
  C:E742H         LINE#         116
  C:E742H         LINE#         117
  C:E747H         LINE#         118
  C:E74DH         LINE#         119
  C:E753H         LINE#         120
  C:E754H         LINE#         122
  C:E754H         LINE#         124
  C:E754H         LINE#         127
  C:E75AH         LINE#         129
  C:E75AH         LINE#         131
  C:E75CH         LINE#         132
  C:E75DH         LINE#         133
  -------         ENDPROC       DOCHECKOUT_ONLINE
  -------         PROC          UART1SEND_INITPOSITON
  -------         DO            
  X:01ECH         SYMBOL        i
  -------         ENDDO         
  C:E964H         LINE#         137
  C:E964H         LINE#         138
  C:E964H         LINE#         139
  C:E969H         LINE#         140
  C:E974H         LINE#         141
  C:E974H         LINE#         142
  C:E983H         LINE#         143
  C:E988H         LINE#         144
  C:E990H         LINE#         145
  -------         ENDPROC       UART1SEND_INITPOSITON
  -------         PROC          ONLINE_DOINIT
  -------         DO            
  X:01E2H         SYMBOL        SrcName
  -------         ENDDO         
  C:E8A2H         LINE#         149
  C:E8A2H         LINE#         150
  C:E8A2H         LINE#         152
  C:E8A7H         LINE#         153
  C:E8ACH         LINE#         154
  C:E8B1H         LINE#         155
  C:E8B6H         LINE#         156
  C:E8C5H         LINE#         157
  C:E8D1H         LINE#         158
  C:E8D1H         LINE#         159
  C:E8D4H         LINE#         160
  C:E8D4H         LINE#         161
  -------         ENDPROC       ONLINE_DOINIT
  -------         PROC          QIANSHOU_DOINIT
  -------         DO            
BL51 BANKED LINKER/LOCATER V6.00                                                      09/09/2017  17:29:44  PAGE 46


  X:01E2H         SYMBOL        SrcName
  -------         ENDDO         
  C:E67BH         LINE#         164
  C:E67BH         LINE#         165
  C:E67BH         LINE#         167
  C:E68AH         LINE#         168
  C:E696H         LINE#         169
  C:E696H         LINE#         170
  C:E69CH         LINE#         171
  C:E6A4H         LINE#         172
  C:E6ACH         LINE#         173
  C:E6B4H         LINE#         174
  C:E6B4H         LINE#         175
  -------         ENDPROC       QIANSHOU_DOINIT
  C:E126H         SYMBOL        L?0753
  C:E128H         SYMBOL        L?0754
  -------         PROC          L?0752
  -------         ENDPROC       L?0752
  C:E126H         SYMBOL        L?0753
  C:E128H         SYMBOL        L?0754
  -------         PROC          SETVALUEPARAS
  -------         DO            
  X:01E2H         SYMBOL        i
  X:01E3H         SYMBOL        SrcName
  -------         ENDDO         
  C:E12EH         LINE#         178
  C:E12EH         LINE#         179
  C:E12EH         LINE#         182
  C:E136H         LINE#         183
  C:E13EH         LINE#         184
  C:E146H         LINE#         185
  C:E155H         LINE#         186
  C:E163H         LINE#         187
  C:E179H         LINE#         188
  -------         ENDPROC       SETVALUEPARAS
  -------         PROC          PWM_24
  -------         DO            
  X:0245H         SYMBOL        i
  X:0246H         SYMBOL        j
  -------         ENDDO         
  C:9E10H         LINE#         191
  C:9E10H         LINE#         192
  C:9E10H         LINE#         194
  C:9E15H         LINE#         195
  C:9E3BH         LINE#         196
  C:9E3EH         LINE#         197
  C:9E45H         LINE#         199
  C:9E48H         LINE#         200
  C:9E4DH         LINE#         201
  C:9E52H         LINE#         202
  C:9E52H         LINE#         203
  C:9E79H         LINE#         204
  C:9E86H         LINE#         205
  C:9EA1H         LINE#         206
  C:9EADH         LINE#         207
  C:9EB3H         LINE#         210
  C:9EB8H         LINE#         211
BL51 BANKED LINKER/LOCATER V6.00                                                      09/09/2017  17:29:44  PAGE 47


  C:9EDEH         LINE#         212
  C:9EE1H         LINE#         213
  C:9EE8H         LINE#         215
  C:9EEBH         LINE#         216
  C:9EF0H         LINE#         217
  C:9EF5H         LINE#         218
  C:9EF5H         LINE#         219
  C:9F1CH         LINE#         220
  C:9F29H         LINE#         221
  C:9F44H         LINE#         222
  C:9F50H         LINE#         223
  C:9F56H         LINE#         226
  C:9F5BH         LINE#         227
  C:9F81H         LINE#         228
  C:9F84H         LINE#         229
  C:9F87H         LINE#         230
  C:9F8EH         LINE#         232
  C:9F93H         LINE#         233
  C:9F98H         LINE#         234
  C:9F98H         LINE#         235
  C:9FBFH         LINE#         236
  C:9FCCH         LINE#         237
  C:9FE7H         LINE#         238
  C:9FF3H         LINE#         239
  C:9FF9H         LINE#         240
  C:9FFBH         LINE#         243
  C:9FFEH         LINE#         244
  C:9FFEH         LINE#         245
  C:A005H         LINE#         246
  C:A005H         LINE#         247
  C:A008H         LINE#         248
  C:A00FH         LINE#         249
  C:A00FH         LINE#         250
  C:A01CH         LINE#         251
  C:A01CH         LINE#         252
  C:A01CH         LINE#         253
  C:A01CH         LINE#         255
  -------         ENDPROC       PWM_24
  -------         PROC          MAIN
  -------         DO            
  X:01DBH         SYMBOL        i
  X:01DDH         SYMBOL        j
  X:01DFH         SYMBOL        k
  X:01E1H         SYMBOL        n
  -------         ENDDO         
  C:0096H         LINE#         258
  C:0096H         LINE#         259
  C:0096H         LINE#         261
  C:009BH         LINE#         263
  C:009EH         LINE#         264
  C:00A3H         LINE#         265
  C:00A6H         LINE#         266
  C:00A9H         LINE#         267
  C:00ACH         LINE#         268
  C:00B4H         LINE#         269
  C:00B9H         LINE#         270
  C:00C0H         LINE#         271
BL51 BANKED LINKER/LOCATER V6.00                                                      09/09/2017  17:29:44  PAGE 48


  C:00C9H         LINE#         272
  C:00CEH         LINE#         274
  C:00D0H         LINE#         275
  C:00D6H         LINE#         276
  C:00DAH         LINE#         277
  C:00DCH         LINE#         278
  C:00DEH         LINE#         280
  C:00DEH         LINE#         281
  C:00DEH         LINE#         284
  C:00F0H         LINE#         285
  C:00F0H         LINE#         286
  C:00F2H         LINE#         287
  C:00F4H         LINE#         288
  C:00F9H         LINE#         289
  C:00F9H         LINE#         290
  C:00FCH         LINE#         291
  C:0103H         LINE#         292
  C:0108H         LINE#         293
  C:010BH         LINE#         294
  C:0112H         LINE#         295
  C:0112H         LINE#         296
  C:0114H         LINE#         297
  C:0116H         LINE#         298
  C:011BH         LINE#         299
  C:011BH         LINE#         301
  C:0121H         LINE#         302
  C:0121H         LINE#         303
  C:0123H         LINE#         304
  C:0125H         LINE#         305
  C:016BH         LINE#         306
  C:016BH         LINE#         307
  C:016BH         LINE#         308
  C:0172H         LINE#         309
  C:0177H         LINE#         310
  C:017AH         LINE#         311
  C:017AH         LINE#         312
  C:0181H         LINE#         313
  C:0181H         LINE#         314
  C:0188H         LINE#         315
  C:018DH         LINE#         317
  C:0190H         LINE#         318
  C:0190H         LINE#         319
  C:0192H         LINE#         320
  C:0192H         LINE#         321
  C:0199H         LINE#         322
  C:01A0H         LINE#         323
  C:01A5H         LINE#         325
  C:01A8H         LINE#         326
  C:01AEH         LINE#         327
  C:01B1H         LINE#         328
  C:01B1H         LINE#         329
  C:01B1H         LINE#         330
  C:01B4H         LINE#         331
  C:01B9H         LINE#         332
  C:01BCH         LINE#         333
  C:01BCH         LINE#         334
  C:01BCH         LINE#         335
BL51 BANKED LINKER/LOCATER V6.00                                                      09/09/2017  17:29:44  PAGE 49


  C:01BFH         LINE#         336
  C:01C4H         LINE#         337
  C:01C7H         LINE#         338
  C:01C7H         LINE#         339
  C:01CCH         LINE#         340
  C:01D3H         LINE#         341
  C:01D6H         LINE#         342
  C:01D9H         LINE#         343
  C:01D9H         LINE#         344
  C:01DEH         LINE#         345
  C:01E5H         LINE#         346
  C:01E8H         LINE#         347
  C:01EBH         LINE#         348
  C:01EBH         LINE#         349
  C:01F0H         LINE#         350
  C:01F7H         LINE#         351
  C:01FCH         LINE#         352
  C:01FFH         LINE#         353
  C:01FFH         LINE#         354
  C:0204H         LINE#         355
  C:020BH         LINE#         356
  C:0210H         LINE#         357
  C:0213H         LINE#         358
  C:0213H         LINE#         359
  C:021AH         LINE#         360
  C:021DH         LINE#         361
  C:0220H         LINE#         362
  C:0220H         LINE#         363
  C:0227H         LINE#         364
  C:022AH         LINE#         365
  C:022DH         LINE#         366
  C:022DH         LINE#         367
  C:0234H         LINE#         368
  C:0239H         LINE#         369
  C:023CH         LINE#         370
  C:023CH         LINE#         371
  C:0243H         LINE#         372
  C:0248H         LINE#         373
  C:024BH         LINE#         375
  C:024BH         LINE#         376
  C:024DH         LINE#         377
  C:0250H         LINE#         378
  C:0254H         LINE#         380
  C:0254H         LINE#         381
  C:0265H         LINE#         382
  C:0267H         LINE#         383
  C:0267H         LINE#         384
  C:0269H         LINE#         385
  C:026BH         LINE#         386
  C:026DH         LINE#         388
  C:026DH         LINE#         389
  C:026FH         LINE#         390
  C:0274H         LINE#         391
  C:0274H         LINE#         392
  C:0274H         LINE#         393
  C:0277H         LINE#         395
  C:0277H         LINE#         396
BL51 BANKED LINKER/LOCATER V6.00                                                      09/09/2017  17:29:44  PAGE 50


  C:0280H         LINE#         397
  C:0280H         LINE#         398
  C:0280H         LINE#         399
  C:0280H         LINE#         400
  C:0283H         LINE#         401
  C:0283H         LINE#         402
  C:0283H         LINE#         403
  C:0285H         LINE#         404
  C:0285H         LINE#         405
  C:028EH         LINE#         406
  C:028EH         LINE#         407
  C:0290H         LINE#         408
  C:0290H         LINE#         409
  C:0293H         LINE#         410
  C:0293H         LINE#         411
  C:029AH         LINE#         412
  C:029DH         LINE#         414
  C:029DH         LINE#         415
  C:02B3H         LINE#         416
  C:02B3H         LINE#         417
  C:0313H         LINE#         418
  C:031EH         LINE#         420
  C:0328H         LINE#         421
  C:0328H         LINE#         422
  C:0329H         LINE#         423
  C:0329H         LINE#         424
  C:0329H         LINE#         425
  C:032BH         LINE#         426
  C:032BH         LINE#         428
  C:032BH         LINE#         429
  C:0344H         LINE#         430
  C:0349H         LINE#         431
  C:035BH         LINE#         432
  C:0360H         LINE#         433
  C:036AH         LINE#         434
  C:036AH         LINE#         435
  C:036AH         LINE#         436
  C:036AH         LINE#         437
  C:036AH         LINE#         438
  C:036AH         LINE#         440
  C:036CH         LINE#         441
  C:036EH         LINE#         442
  C:0370H         LINE#         443
  C:0375H         LINE#         444
  C:0375H         LINE#         447
  C:0378H         LINE#         448
  C:0378H         LINE#         449
  C:037BH         LINE#         450
  C:037BH         LINE#         451
  C:0380H         LINE#         454
  C:0383H         LINE#         455
  C:0386H         LINE#         456
  C:0391H         LINE#         457
  C:0391H         LINE#         458
  C:0393H         LINE#         459
  C:0395H         LINE#         460
  C:039AH         LINE#         461
BL51 BANKED LINKER/LOCATER V6.00                                                      09/09/2017  17:29:44  PAGE 51


  C:039EH         LINE#         462
  C:03A4H         LINE#         463
  C:03A4H         LINE#         464
  C:0450H         LINE#         465
  C:0450H         LINE#         466
  C:0450H         LINE#         467
  C:0450H         LINE#         468
  C:0450H         LINE#         469
  C:0457H         LINE#         470
  C:045EH         LINE#         471
  C:0464H         LINE#         473
  C:0467H         LINE#         474
  C:0467H         LINE#         475
  C:046AH         LINE#         476
  C:046AH         LINE#         477
  C:046DH         LINE#         478
  C:0472H         LINE#         479
  C:0472H         LINE#         480
  C:0475H         LINE#         481
  C:0475H         LINE#         482
  C:047CH         LINE#         483
  C:0483H         LINE#         484
  C:0488H         LINE#         486
  C:048BH         LINE#         487
  C:048BH         LINE#         488
  C:048EH         LINE#         489
  C:048EH         LINE#         490
  C:0491H         LINE#         491
  C:0496H         LINE#         492
  C:0496H         LINE#         493
  C:0499H         LINE#         494
  C:0499H         LINE#         495
  C:04A0H         LINE#         496
  C:04A5H         LINE#         497
  C:04A5H         LINE#         498
  C:04A8H         LINE#         499
  C:04A8H         LINE#         500
  C:04AFH         LINE#         501
  C:04B4H         LINE#         502
  C:04B4H         LINE#         503
  C:04B7H         LINE#         504
  C:04B7H         LINE#         505
  C:04BEH         LINE#         506
  C:04C3H         LINE#         507
  C:04C3H         LINE#         508
  C:04C6H         LINE#         509
  C:04C6H         LINE#         510
  C:04CDH         LINE#         511
  C:04D2H         LINE#         512
  C:04D2H         LINE#         513
  C:04D5H         LINE#         514
  C:04D5H         LINE#         515
  C:04D5H         LINE#         516
  C:04D5H         LINE#         517
  C:04D5H         LINE#         518
  C:04D5H         LINE#         519
  C:04D5H         LINE#         520
BL51 BANKED LINKER/LOCATER V6.00                                                      09/09/2017  17:29:44  PAGE 52


  C:04D5H         LINE#         521
  C:04D5H         LINE#         522
  C:04D5H         LINE#         523
  C:04D5H         LINE#         524
  C:04D5H         LINE#         525
  C:04D5H         LINE#         526
  C:04D5H         LINE#         527
  C:04D5H         LINE#         528
  C:04D5H         LINE#         529
  C:04D5H         LINE#         530
  C:04D5H         LINE#         531
  C:04D5H         LINE#         532
  C:04D5H         LINE#         533
  C:04D5H         LINE#         534
  C:04DEH         LINE#         535
  C:04DEH         LINE#         536
  C:04DEH         LINE#         537
  C:04DEH         LINE#         538
  C:04E1H         LINE#         539
  C:04E1H         LINE#         540
  C:04E1H         LINE#         541
  C:04E4H         LINE#         542
  C:04E4H         LINE#         543
  C:04E4H         LINE#         544
  C:04E4H         LINE#         545
  C:04E4H         LINE#         546
  C:04E4H         LINE#         547
  C:04E4H         LINE#         548
  C:04E7H         LINE#         549
  C:04E7H         LINE#         550
  C:04E7H         LINE#         551
  C:04E7H         LINE#         552
  C:04E7H         LINE#         556
  C:04E7H         LINE#         557
  C:04F0H         LINE#         558
  C:04F0H         LINE#         559
  C:04F2H         LINE#         560
  C:04F2H         LINE#         561
  C:04F5H         LINE#         562
  C:04F5H         LINE#         563
  C:04F5H         LINE#         564
  C:04F8H         LINE#         565
  C:04F8H         LINE#         566
  C:04F8H         LINE#         567
  C:04F8H         LINE#         568
  C:04F8H         LINE#         569
  C:04FBH         LINE#         570
  C:04FBH         LINE#         571
  C:04FBH         LINE#         572
  C:04FBH         LINE#         573
  C:04FBH         LINE#         574
  C:04FEH         LINE#         576
  C:04FEH         LINE#         577
  C:0500H         LINE#         578
  C:0503H         LINE#         579
  C:0506H         LINE#         581
  C:0506H         LINE#         582
BL51 BANKED LINKER/LOCATER V6.00                                                      09/09/2017  17:29:44  PAGE 53


  C:0517H         LINE#         583
  C:0519H         LINE#         584
  C:0519H         LINE#         585
  C:0519H         LINE#         586
  C:0519H         LINE#         587
  C:051CH         LINE#         589
  C:051CH         LINE#         590
  C:051CH         LINE#         591
  C:051CH         LINE#         592
  C:051CH         LINE#         593
  C:051CH         LINE#         594
  C:051FH         LINE#         595
  C:051FH         LINE#         596
  C:051FH         LINE#         597
  C:051FH         LINE#         598
  C:051FH         LINE#         599
  C:051FH         LINE#         600
  C:0522H         LINE#         601
  C:0522H         LINE#         602
  C:0522H         LINE#         603
  C:0522H         LINE#         604
  C:0525H         LINE#         605
  C:0525H         LINE#         606
  C:0525H         LINE#         608
  C:0525H         LINE#         609
  C:055AH         LINE#         610
  C:055AH         LINE#         611
  C:055AH         LINE#         612
  C:0561H         LINE#         613
  C:0561H         LINE#         614
  C:0568H         LINE#         615
  C:056DH         LINE#         617
  C:0570H         LINE#         618
  C:0570H         LINE#         619
  C:0572H         LINE#         620
  C:0572H         LINE#         621
  C:0572H         LINE#         622
  C:0575H         LINE#         623
  C:057AH         LINE#         624
  C:057DH         LINE#         625
  C:057DH         LINE#         626
  C:0584H         LINE#         627
  C:058BH         LINE#         628
  C:0590H         LINE#         630
  C:0593H         LINE#         631
  C:0599H         LINE#         632
  C:059CH         LINE#         633
  C:059CH         LINE#         634
  C:059CH         LINE#         635
  C:059FH         LINE#         636
  C:05A4H         LINE#         637
  C:05A7H         LINE#         638
  C:05A7H         LINE#         639
  C:05ACH         LINE#         640
  C:05B3H         LINE#         641
  C:05B6H         LINE#         642
  C:05B9H         LINE#         643
BL51 BANKED LINKER/LOCATER V6.00                                                      09/09/2017  17:29:44  PAGE 54


  C:05B9H         LINE#         644
  C:05BEH         LINE#         645
  C:05C5H         LINE#         646
  C:05CAH         LINE#         647
  C:05CDH         LINE#         648
  C:05CDH         LINE#         649
  C:05D2H         LINE#         650
  C:05D9H         LINE#         651
  C:05DCH         LINE#         652
  C:05DFH         LINE#         653
  C:05DFH         LINE#         654
  C:05E4H         LINE#         655
  C:05EBH         LINE#         656
  C:05F0H         LINE#         657
  C:05F3H         LINE#         658
  C:05F3H         LINE#         659
  C:05F5H         LINE#         660
  C:05F8H         LINE#         661
  C:05FCH         LINE#         663
  C:05FCH         LINE#         664
  C:060DH         LINE#         665
  C:060FH         LINE#         666
  C:060FH         LINE#         667
  C:0611H         LINE#         668
  C:0613H         LINE#         669
  C:0615H         LINE#         671
  C:0615H         LINE#         672
  C:0617H         LINE#         673
  C:061CH         LINE#         674
  C:061CH         LINE#         675
  C:061CH         LINE#         676
  C:061FH         LINE#         677
  C:061FH         LINE#         678
  C:0624H         LINE#         679
  C:062BH         LINE#         680
  C:0630H         LINE#         681
  C:0630H         LINE#         682
  C:0633H         LINE#         683
  C:0633H         LINE#         684
  C:0638H         LINE#         685
  C:063AH         LINE#         686
  C:063DH         LINE#         687
  C:063DH         LINE#         688
  C:063DH         LINE#         689
  C:063DH         LINE#         690
  C:063DH         LINE#         691
  C:0649H         LINE#         692
  C:0649H         LINE#         693
  C:06A9H         LINE#         694
  C:06B4H         LINE#         696
  C:06BEH         LINE#         697
  C:06BEH         LINE#         698
  C:06BFH         LINE#         699
  C:06BFH         LINE#         700
  C:06BFH         LINE#         701
  C:06C1H         LINE#         702
  C:06C1H         LINE#         704
BL51 BANKED LINKER/LOCATER V6.00                                                      09/09/2017  17:29:44  PAGE 55


  C:06C1H         LINE#         705
  C:06DAH         LINE#         706
  C:06DFH         LINE#         707
  C:06F1H         LINE#         708
  C:06F6H         LINE#         709
  C:0700H         LINE#         710
  C:0703H         LINE#         711
  C:0703H         LINE#         712
  C:0703H         LINE#         714
  C:0703H         LINE#         715
  C:071CH         LINE#         716
  C:071CH         LINE#         717
  C:071CH         LINE#         718
  C:071CH         LINE#         719
  C:071CH         LINE#         720
  C:071CH         LINE#         721
  C:0725H         LINE#         722
  C:0725H         LINE#         723
  C:0725H         LINE#         724
  C:0725H         LINE#         725
  C:0728H         LINE#         726
  C:0728H         LINE#         727
  C:0728H         LINE#         728
  C:072AH         LINE#         729
  C:072AH         LINE#         730
  C:072AH         LINE#         731
  C:072AH         LINE#         732
  C:072AH         LINE#         733
  C:0731H         LINE#         734
  C:0734H         LINE#         735
  C:0736H         LINE#         736
  C:0736H         LINE#         737
  C:0736H         LINE#         738
  C:0736H         LINE#         739
  C:0736H         LINE#         740
  C:073DH         LINE#         741
  C:0740H         LINE#         742
  C:0742H         LINE#         743
  C:0742H         LINE#         744
  C:074BH         LINE#         745
  C:074BH         LINE#         746
  C:074DH         LINE#         747
  C:074DH         LINE#         748
  C:0750H         LINE#         749
  C:0750H         LINE#         750
  C:0757H         LINE#         751
  C:0759H         LINE#         752
  C:0759H         LINE#         753
  C:0760H         LINE#         754
  C:0765H         LINE#         755
  C:0765H         LINE#         756
  C:0767H         LINE#         757
  C:0767H         LINE#         758
  C:076EH         LINE#         759
  C:0773H         LINE#         760
  C:0778H         LINE#         761
  C:0778H         LINE#         762
BL51 BANKED LINKER/LOCATER V6.00                                                      09/09/2017  17:29:44  PAGE 56


  C:0778H         LINE#         763
  C:0778H         LINE#         764
  C:0778H         LINE#         765
  C:0778H         LINE#         766
  C:0778H         LINE#         768
  C:077BH         LINE#         769
  C:077DH         LINE#         770
  C:077FH         LINE#         771
  C:0784H         LINE#         772
  C:0786H         LINE#         774
  C:0786H         LINE#         775
  C:0789H         LINE#         776
  C:0789H         LINE#         777
  C:078BH         LINE#         778
  C:078DH         LINE#         779
  C:0792H         LINE#         780
  C:0794H         LINE#         781
  C:079AH         LINE#         782
  C:079CH         LINE#         783
  C:079CH         LINE#         784
  C:079CH         LINE#         788
  C:07A2H         LINE#         789
  C:07A2H         LINE#         790
  C:07A4H         LINE#         791
  C:07A6H         LINE#         792
  C:0847H         LINE#         793
  C:0847H         LINE#         794
  C:0847H         LINE#         796
  C:084CH         LINE#         797
  C:084EH         LINE#         798
  C:0851H         LINE#         799
  C:0855H         LINE#         801
  C:0855H         LINE#         802
  C:0866H         LINE#         803
  C:0868H         LINE#         804
  C:0868H         LINE#         805
  C:086AH         LINE#         806
  C:086CH         LINE#         807
  C:086EH         LINE#         809
  C:086EH         LINE#         810
  C:0870H         LINE#         811
  C:0875H         LINE#         812
  C:0875H         LINE#         813
  C:0875H         LINE#         814
  C:0878H         LINE#         815
  C:0878H         LINE#         816
  C:087DH         LINE#         817
  C:0883H         LINE#         818
  C:0886H         LINE#         819
  C:0889H         LINE#         820
  C:0889H         LINE#         821
  C:088EH         LINE#         822
  C:0894H         LINE#         823
  C:0897H         LINE#         824
  C:089AH         LINE#         825
  C:089AH         LINE#         826
  C:089FH         LINE#         827
BL51 BANKED LINKER/LOCATER V6.00                                                      09/09/2017  17:29:44  PAGE 57


  C:08A5H         LINE#         828
  C:08A8H         LINE#         829
  C:08ABH         LINE#         830
  C:08ABH         LINE#         831
  C:08B0H         LINE#         832
  C:08B6H         LINE#         833
  C:08B9H         LINE#         834
  C:08BCH         LINE#         836
  C:08BCH         LINE#         837
  C:08C1H         LINE#         838
  C:08C7H         LINE#         839
  C:08CAH         LINE#         840
  C:08CDH         LINE#         841
  C:08CDH         LINE#         842
  C:08D2H         LINE#         843
  C:08D8H         LINE#         844
  C:08DBH         LINE#         845
  C:08DEH         LINE#         846
  C:08DEH         LINE#         847
  C:08E3H         LINE#         848
  C:08E9H         LINE#         849
  C:08ECH         LINE#         850
  C:08EFH         LINE#         851
  C:08EFH         LINE#         852
  C:08F4H         LINE#         853
  C:08FAH         LINE#         854
  C:08FDH         LINE#         855
  C:0900H         LINE#         857
  C:0900H         LINE#         858
  C:0905H         LINE#         859
  C:0908H         LINE#         860
  C:090BH         LINE#         861
  C:090BH         LINE#         862
  C:090BH         LINE#         863
  C:090EH         LINE#         864
  C:090EH         LINE#         865
  C:090EH         LINE#         866
  C:0911H         LINE#         867
  C:0911H         LINE#         868
  C:0911H         LINE#         869
  C:0914H         LINE#         871
  C:0914H         LINE#         872
  C:0914H         LINE#         873
  C:0917H         LINE#         874
  C:0917H         LINE#         875
  C:0917H         LINE#         876
  C:091AH         LINE#         877
  C:091AH         LINE#         878
  C:091AH         LINE#         879
  C:091DH         LINE#         880
  C:091DH         LINE#         881
  C:091DH         LINE#         882
  C:0920H         LINE#         884
  C:0920H         LINE#         885
  C:0925H         LINE#         886
  C:092BH         LINE#         887
  C:092EH         LINE#         888
BL51 BANKED LINKER/LOCATER V6.00                                                      09/09/2017  17:29:44  PAGE 58


  C:0931H         LINE#         889
  C:0931H         LINE#         890
  C:0936H         LINE#         891
  C:093CH         LINE#         892
  C:093FH         LINE#         893
  C:0942H         LINE#         894
  C:0945H         LINE#         895
  C:0945H         LINE#         896
  C:094AH         LINE#         897
  C:0950H         LINE#         898
  C:0955H         LINE#         899
  C:0958H         LINE#         900
  C:0958H         LINE#         901
  C:095DH         LINE#         902
  C:0963H         LINE#         903
  C:0966H         LINE#         904
  C:0969H         LINE#         906
  C:0969H         LINE#         907
  C:096EH         LINE#         908
  C:0974H         LINE#         909
  C:0977H         LINE#         910
  C:097AH         LINE#         911
  C:097AH         LINE#         912
  C:097FH         LINE#         913
  C:0985H         LINE#         914
  C:0988H         LINE#         915
  C:098BH         LINE#         916
  C:098EH         LINE#         917
  C:098EH         LINE#         918
  C:0993H         LINE#         919
  C:0999H         LINE#         920
  C:099EH         LINE#         921
  C:09A1H         LINE#         922
  C:09A1H         LINE#         923
  C:09A6H         LINE#         924
  C:09ACH         LINE#         925
  C:09AFH         LINE#         926
  C:09B2H         LINE#         928
  C:09B2H         LINE#         929
  C:09B2H         LINE#         930
  C:09B5H         LINE#         931
  C:09B5H         LINE#         932
  C:09B5H         LINE#         933
  C:09B8H         LINE#         934
  C:09B8H         LINE#         935
  C:09C1H         LINE#         936
  C:09C1H         LINE#         937
  C:09C1H         LINE#         938
  C:09C1H         LINE#         939
  C:09C4H         LINE#         940
  C:09C4H         LINE#         941
  C:09C4H         LINE#         942
  C:09C6H         LINE#         943
  C:09C6H         LINE#         944
  C:09CFH         LINE#         945
  C:09CFH         LINE#         946
  C:09D1H         LINE#         947
BL51 BANKED LINKER/LOCATER V6.00                                                      09/09/2017  17:29:44  PAGE 59


  C:09D1H         LINE#         948
  C:09D4H         LINE#         949
  C:09D4H         LINE#         950
  C:09D6H         LINE#         951
  C:09D9H         LINE#         953
  C:09D9H         LINE#         954
  C:09DEH         LINE#         955
  C:09E4H         LINE#         956
  C:09E9H         LINE#         957
  C:09E9H         LINE#         958
  C:09E9H         LINE#         959
  C:09ECH         LINE#         960
  C:09ECH         LINE#         961
  C:09F1H         LINE#         962
  C:09F7H         LINE#         963
  C:09FCH         LINE#         964
  C:09FCH         LINE#         965
  C:09FCH         LINE#         966
  C:09FFH         LINE#         967
  C:09FFH         LINE#         968
  C:0A04H         LINE#         969
  C:0A0AH         LINE#         970
  C:0A0FH         LINE#         971
  C:0A12H         LINE#         972
  C:0A12H         LINE#         973
  C:0A17H         LINE#         974
  C:0A76H         LINE#         975
  C:0A78H         LINE#         976
  C:0A7BH         LINE#         977
  C:0A7BH         LINE#         978
  C:0A80H         LINE#         979
  C:0A85H         LINE#         980
  C:0A88H         LINE#         981
  C:0A88H         LINE#         982
  C:0A8DH         LINE#         983
  C:0A93H         LINE#         984
  C:0A98H         LINE#         985
  C:0AF8H         LINE#         986
  C:0AFAH         LINE#         987
  C:0AFDH         LINE#         988
  C:0AFDH         LINE#         989
  C:0B02H         LINE#         990
  C:0B08H         LINE#         991
  C:0B0DH         LINE#         992
  C:0B6DH         LINE#         993
  C:0B6FH         LINE#         994
  C:0B72H         LINE#         996
  C:0B72H         LINE#         997
  C:0B77H         LINE#         998
  C:0B7DH         LINE#         999
  C:0B82H         LINE#         1000
  C:0BE2H         LINE#         1001
  C:0BE4H         LINE#         1002
  C:0BE6H         LINE#         1003
  C:0BE6H         LINE#         1004
  C:0BEBH         LINE#         1005
  C:0BF1H         LINE#         1006
BL51 BANKED LINKER/LOCATER V6.00                                                      09/09/2017  17:29:44  PAGE 60


  C:0BF6H         LINE#         1007
  C:0C56H         LINE#         1008
  C:0C61H         LINE#         1009
  C:0C64H         LINE#         1011
  C:0C64H         LINE#         1012
  C:0C6AH         LINE#         1013
  C:0C7BH         LINE#         1014
  C:0C8BH         LINE#         1015
  C:0C9EH         LINE#         1016
  C:0CA0H         LINE#         1017
  C:0CA2H         LINE#         1018
  C:0CA2H         LINE#         1019
  C:0CA8H         LINE#         1020
  C:0CB2H         LINE#         1021
  C:0CC3H         LINE#         1022
  C:0CD7H         LINE#         1023
  C:0CD9H         LINE#         1024
  C:0CDBH         LINE#         1025
  C:0CDBH         LINE#         1026
  C:0CE1H         LINE#         1027
  C:0CEBH         LINE#         1028
  C:0CFCH         LINE#         1029
  C:0D10H         LINE#         1030
  C:0D12H         LINE#         1031
  C:0D14H         LINE#         1033
  C:0D14H         LINE#         1034
  C:0D1AH         LINE#         1035
  C:0D24H         LINE#         1036
  C:0D35H         LINE#         1037
  C:0D49H         LINE#         1038
  C:0D4BH         LINE#         1039
  C:0D4DH         LINE#         1040
  C:0D4DH         LINE#         1041
  C:0D53H         LINE#         1042
  C:0D5DH         LINE#         1043
  C:0D6EH         LINE#         1044
  C:0D82H         LINE#         1045
  C:0D84H         LINE#         1046
  C:0D86H         LINE#         1047
  C:0D86H         LINE#         1048
  C:0D8CH         LINE#         1049
  C:0D96H         LINE#         1050
  C:0DA7H         LINE#         1051
  C:0DBBH         LINE#         1052
  C:0DBDH         LINE#         1053
  C:0DBFH         LINE#         1055
  C:0DBFH         LINE#         1056
  C:0DC5H         LINE#         1057
  C:0DCFH         LINE#         1058
  C:0DE0H         LINE#         1059
  C:0DF4H         LINE#         1060
  C:0DF6H         LINE#         1061
  C:0DF8H         LINE#         1062
  C:0DF8H         LINE#         1063
  C:0DFEH         LINE#         1064
  C:0E08H         LINE#         1065
  C:0E19H         LINE#         1066
BL51 BANKED LINKER/LOCATER V6.00                                                      09/09/2017  17:29:44  PAGE 61


  C:0E2DH         LINE#         1067
  C:0E2FH         LINE#         1068
  C:0E31H         LINE#         1069
  C:0E31H         LINE#         1070
  C:0E37H         LINE#         1071
  C:0E41H         LINE#         1072
  C:0E52H         LINE#         1073
  C:0E66H         LINE#         1074
  C:0E69H         LINE#         1075
  C:0E6BH         LINE#         1076
  C:0E6BH         LINE#         1077
  C:0E71H         LINE#         1078
  C:0E81H         LINE#         1079
  C:0E90H         LINE#         1080
  C:0EA2H         LINE#         1081
  C:0EA5H         LINE#         1082
  C:0EA7H         LINE#         1084
  C:0EA7H         LINE#         1085
  C:0EB2H         LINE#         1086
  C:0EB5H         LINE#         1088
  C:0EB5H         LINE#         1089
  C:0EC0H         LINE#         1090
  C:0ECEH         LINE#         1091
  C:0EF2H         LINE#         1092
  C:0F30H         LINE#         1093
  C:0F37H         LINE#         1094
  C:0F3CH         LINE#         1096
  C:0F3CH         LINE#         1097
  C:0F3CH         LINE#         1098
  C:0F3EH         LINE#         1099
  C:0F40H         LINE#         1100
  C:0F40H         LINE#         1102
  -------         ENDPROC       MAIN
  -------         PROC          UART1_INTERRUPT
  C:E0D1H         LINE#         1107
  C:E0DEH         LINE#         1109
  C:E0E1H         LINE#         1110
  C:E0E1H         LINE#         1111
  C:E0E3H         LINE#         1112
  C:E0F6H         LINE#         1121
  C:E104H         LINE#         1122
  C:E110H         LINE#         1123
  C:E117H         LINE#         1150
  C:E119H         LINE#         1151
  C:E11BH         LINE#         1152
  -------         ENDPROC       UART1_INTERRUPT
  -------         PROC          UART2_INTERRUPT
  C:C85BH         LINE#         1155
  C:C86CH         LINE#         1157
  C:C874H         LINE#         1158
  C:C874H         LINE#         1159
  C:C877H         LINE#         1160
  C:C888H         LINE#         1162
  C:C88EH         LINE#         1163
  C:C88EH         LINE#         1164
  C:C89FH         LINE#         1165
  C:C8A4H         LINE#         1166
BL51 BANKED LINKER/LOCATER V6.00                                                      09/09/2017  17:29:44  PAGE 62


  C:C8A6H         LINE#         1167
  C:C8ABH         LINE#         1168
  C:C8AEH         LINE#         1170
  C:C8AEH         LINE#         1171
  C:C8B8H         LINE#         1172
  C:C8B8H         LINE#         1173
  C:C8CAH         LINE#         1174
  C:C8D0H         LINE#         1175
  C:C8D8H         LINE#         1176
  C:C8E2H         LINE#         1177
  C:C8E4H         LINE#         1179
  C:C8E4H         LINE#         1180
  C:C8F2H         LINE#         1181
  C:C8F2H         LINE#         1182
  C:C904H         LINE#         1183
  C:C90AH         LINE#         1184
  C:C90CH         LINE#         1186
  C:C90CH         LINE#         1187
  C:C91FH         LINE#         1188
  C:C91FH         LINE#         1189
  C:C926H         LINE#         1190
  C:C926H         LINE#         1191
  C:C933H         LINE#         1192
  C:C93EH         LINE#         1193
  C:C94DH         LINE#         1194
  C:C94DH         LINE#         1195
  C:C94FH         LINE#         1196
  C:C94FH         LINE#         1197
  C:C954H         LINE#         1198
  C:C954H         LINE#         1199
  C:C954H         LINE#         1200
  C:C954H         LINE#         1202
  C:C956H         LINE#         1203
  C:C959H         LINE#         1204
  -------         ENDPROC       UART2_INTERRUPT
  -------         PROC          UART3_INTERRUPT
  C:EBDCH         LINE#         1207
  C:EBE2H         LINE#         1209
  C:EBE7H         LINE#         1210
  C:EBE7H         LINE#         1211
  C:EBEAH         LINE#         1212
  C:EBF0H         LINE#         1215
  C:EBF2H         LINE#         1216
  C:EBF5H         LINE#         1217
  -------         ENDPROC       UART3_INTERRUPT
  -------         PROC          UART4_INTERRUPT
  C:EB55H         LINE#         1220
  C:EB5BH         LINE#         1222
  C:EB60H         LINE#         1223
  C:EB60H         LINE#         1224
  C:EB63H         LINE#         1225
  C:EB69H         LINE#         1227
  C:EB6BH         LINE#         1228
  C:EB6DH         LINE#         1229
  C:EB70H         LINE#         1230
  -------         ENDPROC       UART4_INTERRUPT
  -------         ENDMOD        MAIN
BL51 BANKED LINKER/LOCATER V6.00                                                      09/09/2017  17:29:44  PAGE 63



  -------         MODULE        DELAY
  C:0000H         SYMBOL        _ICE_DUMMY_
  C:EAE1H         PUBLIC        _delay500ms
  C:EC54H         PUBLIC        _delay100us
  C:002EH         PUBLIC        _delay500us
  C:EC6DH         PUBLIC        _delay1ms
  C:ED20H         PUBLIC        _delay8us
  C:E7CEH         PUBLIC        _delay1s
  C:EAB9H         PUBLIC        _delay10ms
  C:ED32H         PUBLIC        _delay10us
  -------         PROC          _DELAY8US
  D:0007H         SYMBOL        num
  -------         DO            
  D:0005H         SYMBOL        i
  D:0006H         SYMBOL        j
  -------         ENDDO         
  C:ED20H         LINE#         6
  C:ED20H         LINE#         7
  C:ED20H         LINE#         9
  C:ED27H         LINE#         12
  C:ED31H         LINE#         23
  -------         ENDPROC       _DELAY8US
  -------         PROC          _DELAY10US
  D:0007H         SYMBOL        num
  -------         DO            
  D:0005H         SYMBOL        i
  D:0006H         SYMBOL        j
  -------         ENDDO         
  C:ED32H         LINE#         25
  C:ED32H         LINE#         26
  C:ED32H         LINE#         27
  C:ED39H         LINE#         28
  C:ED43H         LINE#         30
  -------         ENDPROC       _DELAY10US
  -------         PROC          _DELAY100US
  D:0004H         SYMBOL        num
  -------         DO            
  D:0002H         SYMBOL        i
  D:0003H         SYMBOL        j
  -------         ENDDO         
  C:EC54H         LINE#         32
  C:EC56H         LINE#         33
  C:EC56H         LINE#         34
  C:EC5DH         LINE#         35
  C:EC5FH         LINE#         36
  C:EC6CH         LINE#         37
  -------         ENDPROC       _DELAY100US
  -------         PROC          _DELAY500US
  D:0007H         SYMBOL        num
  -------         DO            
  D:0005H         SYMBOL        i
  D:0004H         SYMBOL        j
  D:0006H         SYMBOL        k
  -------         ENDDO         
  C:002EH         LINE#         54
  C:002EH         LINE#         55
BL51 BANKED LINKER/LOCATER V6.00                                                      09/09/2017  17:29:44  PAGE 64


  C:002EH         LINE#         61
  C:0035H         LINE#         62
  C:0035H         LINE#         66
  C:0037H         LINE#         67
  C:0039H         LINE#         69
  C:0039H         LINE#         70
  C:003BH         LINE#         71
  C:003DH         LINE#         72
  C:0040H         LINE#         73
  -------         ENDPROC       _DELAY500US
  -------         PROC          _DELAY1MS
  D:0004H         SYMBOL        num
  -------         DO            
  D:0002H         SYMBOL        i
  D:0003H         SYMBOL        j
  -------         ENDDO         
  C:EC6DH         LINE#         76
  C:EC6FH         LINE#         77
  C:EC6FH         LINE#         78
  C:EC76H         LINE#         79
  C:EC78H         LINE#         80
  C:EC85H         LINE#         81
  -------         ENDPROC       _DELAY1MS
  -------         PROC          _DELAY10MS
  X:0248H         SYMBOL        num
  -------         DO            
  D:0001H         SYMBOL        i
  X:0249H         SYMBOL        j
  -------         ENDDO         
  C:EAB9H         LINE#         83
  C:EABEH         LINE#         84
  C:EABEH         LINE#         85
  C:EACCH         LINE#         86
  C:EACEH         LINE#         87
  C:EAE0H         LINE#         88
  -------         ENDPROC       _DELAY10MS
  -------         PROC          _DELAY500MS
  X:0248H         SYMBOL        num
  -------         DO            
  D:0001H         SYMBOL        i
  X:0249H         SYMBOL        j
  -------         ENDDO         
  C:EAE1H         LINE#         90
  C:EAE6H         LINE#         91
  C:EAE6H         LINE#         92
  C:EAF4H         LINE#         93
  C:EAF6H         LINE#         94
  C:EB08H         LINE#         95
  -------         ENDPROC       _DELAY500MS
  -------         PROC          _DELAY1S
  X:021DH         SYMBOL        num
  -------         DO            
  X:021EH         SYMBOL        i
  X:021FH         SYMBOL        j
  -------         ENDDO         
  C:E7CEH         LINE#         97
  C:E7D3H         LINE#         98
BL51 BANKED LINKER/LOCATER V6.00                                                      09/09/2017  17:29:44  PAGE 65


  C:E7D3H         LINE#         99
  C:E7E5H         LINE#         100
  C:E7EAH         LINE#         101
  C:E803H         LINE#         102
  -------         ENDPROC       _DELAY1S
  -------         ENDMOD        DELAY

  -------         MODULE        TUXINGHUA
  C:0000H         SYMBOL        _ICE_DUMMY_
  D:0080H         PUBLIC        P0
  D:0090H         PUBLIC        P1
  D:00A0H         PUBLIC        P2
  D:00B0H         PUBLIC        P3
  D:00C0H         PUBLIC        P4
  D:00C8H         PUBLIC        P5
  D:00E8H         PUBLIC        P6
  D:00F8H         PUBLIC        P7
  D:00A8H         PUBLIC        IE
  X:02EDH         PUBLIC        jichu
  D:00B8H         PUBLIC        IP
  C:E936H         PUBLIC        _duoji
  C:DFDCH         PUBLIC        ReadRam
  D:00D8H         PUBLIC        CCON
  D:0098H         PUBLIC        SCON
  D:0088H         PUBLIC        TCON
  C:5FA3H         PUBLIC        _cyc
  D:00F0H         PUBLIC        B
  C:42DAH         PUBLIC        main1
  C:3E5DH         PUBLIC        _location
  D:00D0H         PUBLIC        PSW
  C:DFC8H         SYMBOL        L?0196
  -------         PROC          L?0195
  -------         ENDPROC       L?0195
  C:DFC8H         SYMBOL        L?0196
  -------         PROC          READRAM
  -------         DO            
  D:0007H         SYMBOL        i
  -------         ENDDO         
  C:DFDCH         LINE#         34
  C:DFDCH         LINE#         35
  C:DFDCH         LINE#         37
  C:DFF3H         LINE#         39
  C:DFFFH         LINE#         40
  C:E00DH         LINE#         41
  C:E019H         LINE#         42
  C:E020H         LINE#         74
  C:E020H         LINE#         75
  -------         ENDPROC       READRAM
  -------         PROC          _DUOJI
  D:0007H         SYMBOL        num
  D:0005H         SYMBOL        pos
  C:E936H         LINE#         82
  C:E936H         LINE#         83
  C:E936H         LINE#         84
  C:E95BH         LINE#         85
  -------         ENDPROC       _DUOJI
  -------         PROC          MAIN1
BL51 BANKED LINKER/LOCATER V6.00                                                      09/09/2017  17:29:44  PAGE 66


  -------         DO            
  X:01E2H         SYMBOL        keycode
  X:01E4H         SYMBOL        SrcName
  X:01F0H         SYMBOL        ByteCount
  X:01F4H         SYMBOL        i
  D:0006H         SYMBOL        j
  B:0020H.0       SYMBOL        OutFlag
  -------         ENDDO         
  C:42DAH         LINE#         93
  C:42DAH         LINE#         94
  C:42DAH         LINE#         95
  C:42E1H         LINE#         100
  C:42E3H         LINE#         102
  C:42E3H         LINE#         103
  C:42E3H         LINE#         110
  C:42EEH         LINE#         111
  C:42EEH         LINE#         112
  C:42F6H         LINE#         113
  C:4333H         LINE#         114
  C:4333H         LINE#         115
  C:4333H         LINE#         116
  C:4333H         LINE#         117
  C:4333H         LINE#         118
  C:433FH         LINE#         119
  C:4344H         LINE#         120
  C:4344H         LINE#         121
  C:4356H         LINE#         122
  C:4362H         LINE#         123
  C:4388H         LINE#         124
  C:4396H         LINE#         125
  C:43A3H         LINE#         126
  C:43ADH         LINE#         127
  C:43CDH         LINE#         128
  C:43CDH         LINE#         129
  C:43DBH         LINE#         130
  C:43DDH         LINE#         131
  C:43EDH         LINE#         134
  C:43F0H         LINE#         135
  C:43F0H         LINE#         136
  C:43F8H         LINE#         137
  C:43FDH         LINE#         138
  C:4407H         LINE#         139
  C:440AH         LINE#         140
  C:440AH         LINE#         141
  C:4419H         LINE#         142
  C:4419H         LINE#         143
  C:441FH         LINE#         144
  C:4433H         LINE#         145
  C:4443H         LINE#         146
  C:444BH         LINE#         147
  C:445AH         LINE#         148
  C:4468H         LINE#         149
  C:447EH         LINE#         150
  C:4483H         LINE#         151
  C:4483H         LINE#         152
  C:4486H         LINE#         153
  C:4486H         LINE#         196
BL51 BANKED LINKER/LOCATER V6.00                                                      09/09/2017  17:29:44  PAGE 67


  C:4486H         LINE#         197
  C:4486H         LINE#         198
  C:449BH         LINE#         199
  C:44B8H         LINE#         200
  C:44C6H         LINE#         201
  C:44D3H         LINE#         202
  C:44DDH         LINE#         203
  C:44E2H         LINE#         204
  C:44E7H         LINE#         205
  C:44ECH         LINE#         206
  C:44F1H         LINE#         207
  C:44F6H         LINE#         208
  C:44FEH         LINE#         209
  C:4507H         LINE#         210
  C:4521H         LINE#         211
  C:4521H         LINE#         212
  C:452FH         LINE#         213
  C:452FH         LINE#         214
  C:4534H         LINE#         215
  C:4539H         LINE#         216
  C:453EH         LINE#         217
  C:4543H         LINE#         218
  C:4548H         LINE#         219
  C:454DH         LINE#         220
  C:4552H         LINE#         221
  C:4557H         LINE#         222
  C:4557H         LINE#         223
  C:455AH         LINE#         224
  C:455AH         LINE#         242
  C:4565H         LINE#         243
  C:4565H         LINE#         244
  C:4565H         LINE#         245
  C:4565H         LINE#         246
  C:4571H         LINE#         247
  C:4576H         LINE#         248
  C:457BH         LINE#         249
  C:45A1H         LINE#         250
  C:45AAH         LINE#         252
  C:45C5H         LINE#         253
  C:45D3H         LINE#         254
  C:45E0H         LINE#         255
  C:45EAH         LINE#         257
  C:45ECH         LINE#         258
  C:45ECH         LINE#         259
  C:45EFH         LINE#         260
  C:45EFH         LINE#         261
  C:460DH         LINE#         262
  C:460DH         LINE#         263
  C:4632H         LINE#         264
  C:463BH         LINE#         265
  C:4640H         LINE#         266
  C:4650H         LINE#         267
  C:4676H         LINE#         268
  C:467FH         LINE#         270
  C:4684H         LINE#         271
  C:4686H         LINE#         272
  C:4688H         LINE#         275
BL51 BANKED LINKER/LOCATER V6.00                                                      09/09/2017  17:29:44  PAGE 68


  C:4688H         LINE#         276
  C:468DH         LINE#         277
  C:4690H         LINE#         278
  C:4690H         LINE#         279
  C:4695H         LINE#         280
  C:4695H         LINE#         281
  C:46C1H         LINE#         282
  C:46CDH         LINE#         283
  C:46D5H         LINE#         284
  C:46DFH         LINE#         285
  C:46E1H         LINE#         286
  C:46E1H         LINE#         287
  C:46E9H         LINE#         288
  C:46F1H         LINE#         289
  C:46F9H         LINE#         290
  C:4708H         LINE#         291
  C:4716H         LINE#         292
  C:472CH         LINE#         293
  C:4731H         LINE#         294
  C:4736H         LINE#         295
  C:4738H         LINE#         296
  C:4738H         LINE#         335
  C:4738H         LINE#         336
  C:4738H         LINE#         337
  C:473AH         LINE#         338
  C:473AH         LINE#         339
  C:473AH         LINE#         340
  C:473AH         LINE#         341
  C:4740H         LINE#         342
  C:4740H         LINE#         344
  C:4740H         LINE#         345
  C:4740H         LINE#         346
  C:4740H         LINE#         348
  -------         ENDPROC       MAIN1
  -------         PROC          _CYC
  X:0203H         SYMBOL        Locate1
  X:0206H         SYMBOL        Locate2
  X:0209H         SYMBOL        time
  -------         DO            
  X:020AH         SYMBOL        ThisLen
  X:020CH         SYMBOL        ByteCount
  X:0210H         SYMBOL        i
  X:0211H         SYMBOL        j
  X:0212H         SYMBOL        k
  X:0213H         SYMBOL        m
  X:0214H         SYMBOL        temp
  -------         ENDDO         
  C:5FA3H         LINE#         355
  C:5FAEH         LINE#         356
  C:5FAEH         LINE#         362
  C:5FBAH         LINE#         363
  C:5FBAH         LINE#         364
  C:5FCEH         LINE#         366
  C:5FCEH         LINE#         371
  C:5FE4H         LINE#         374
  C:6004H         LINE#         379
  C:600AH         LINE#         380
BL51 BANKED LINKER/LOCATER V6.00                                                      09/09/2017  17:29:44  PAGE 69


  C:600AH         LINE#         381
  C:6010H         LINE#         382
  C:6017H         LINE#         383
  C:6017H         LINE#         384
  C:601FH         LINE#         385
  C:601FH         LINE#         386
  C:6026H         LINE#         387
  C:6042H         LINE#         388
  C:6044H         LINE#         390
  C:6044H         LINE#         391
  C:604BH         LINE#         392
  C:604BH         LINE#         393
  C:6052H         LINE#         394
  C:605AH         LINE#         395
  C:605CH         LINE#         397
  C:605CH         LINE#         398
  C:6063H         LINE#         399
  C:6080H         LINE#         400
  C:6080H         LINE#         401
  C:6080H         LINE#         402
  C:6099H         LINE#         403
  C:6099H         LINE#         404
  C:60C6H         LINE#         405
  C:60C6H         LINE#         406
  C:60E2H         LINE#         407
  C:611AH         LINE#         408
  C:6133H         LINE#         410
  C:613BH         LINE#         411
  C:6149H         LINE#         412
  C:6157H         LINE#         414
  C:6162H         LINE#         415
  C:6162H         LINE#         416
  C:6162H         LINE#         417
  C:6169H         LINE#         418
  C:616CH         LINE#         419
  C:616EH         LINE#         420
  C:616EH         LINE#         421
  C:6175H         LINE#         422
  C:6175H         LINE#         423
  C:6177H         LINE#         424
  C:6177H         LINE#         425
  C:6182H         LINE#         426
  C:6182H         LINE#         427
  C:6182H         LINE#         429
  C:61F5H         LINE#         430
  C:61F5H         LINE#         431
  C:61FEH         LINE#         432
  C:6206H         LINE#         433
  C:620EH         LINE#         434
  C:6215H         LINE#         435
  C:621CH         LINE#         436
  C:6223H         LINE#         437
  C:622AH         LINE#         438
  C:6231H         LINE#         439
  C:6238H         LINE#         440
  C:623FH         LINE#         441
  C:6244H         LINE#         442
BL51 BANKED LINKER/LOCATER V6.00                                                      09/09/2017  17:29:44  PAGE 70


  C:6249H         LINE#         443
  C:624EH         LINE#         444
  C:6253H         LINE#         445
  C:6258H         LINE#         446
  C:625DH         LINE#         447
  C:6262H         LINE#         448
  C:6267H         LINE#         449
  C:626FH         LINE#         450
  C:6277H         LINE#         451
  C:627CH         LINE#         452
  C:6283H         LINE#         453
  C:6283H         LINE#         454
  C:6283H         LINE#         455
  C:6283H         LINE#         456
  C:6283H         LINE#         457
  C:6283H         LINE#         458
  C:6283H         LINE#         459
  C:6283H         LINE#         460
  C:6283H         LINE#         461
  C:6290H         LINE#         462
  C:6290H         LINE#         463
  C:6290H         LINE#         465
  C:62A2H         LINE#         466
  C:62A2H         LINE#         467
  C:62A7H         LINE#         468
  C:62AFH         LINE#         473
  C:62B8H         LINE#         474
  C:62B8H         LINE#         475
  C:62C7H         LINE#         476
  C:62C7H         LINE#         477
  C:62F7H         LINE#         478
  C:62FFH         LINE#         479
  C:62FFH         LINE#         481
  C:6328H         LINE#         487
  C:634DH         LINE#         488
  C:6353H         LINE#         489
  C:6356H         LINE#         491
  -------         ENDPROC       _CYC
  -------         PROC          _LOCATION
  X:01E2H         SYMBOL        ThisLen
  -------         DO            
  X:01E4H         SYMBOL        i
  X:01E5H         SYMBOL        SrcName
  X:01F1H         SYMBOL        FileSize
  X:01F5H         SYMBOL        LoopLocate1
  X:01F9H         SYMBOL        LoopLocate2
  X:01FDH         SYMBOL        ByteCount
  X:0201H         SYMBOL        temp
  -------         ENDDO         
  C:3E5DH         LINE#         498
  C:3E65H         LINE#         499
  C:3E65H         LINE#         506
  C:3E8BH         LINE#         507
  C:3E9BH         LINE#         508
  C:3E9BH         LINE#         509
  C:3E9DH         LINE#         511
  C:3E9DH         LINE#         513
BL51 BANKED LINKER/LOCATER V6.00                                                      09/09/2017  17:29:44  PAGE 71


  C:3EA8H         LINE#         514
  C:3EC2H         LINE#         515
  C:3EC2H         LINE#         516
  C:3EC9H         LINE#         518
  C:3EC9H         LINE#         520
  C:3ED0H         LINE#         521
  C:3ED5H         LINE#         525
  C:3EDFH         LINE#         528
  C:3EE4H         LINE#         530
  C:3EE4H         LINE#         535
  C:3EFAH         LINE#         538
  C:3F1AH         LINE#         543
  C:3F1DH         LINE#         544
  C:3F1DH         LINE#         545
  C:3F23H         LINE#         546
  C:3F35H         LINE#         547
  C:3F35H         LINE#         548
  C:3F3DH         LINE#         549
  C:3F3DH         LINE#         550
  C:3F42H         LINE#         551
  C:3F49H         LINE#         552
  C:3F4BH         LINE#         554
  C:3F4BH         LINE#         555
  C:3F52H         LINE#         556
  C:3F52H         LINE#         557
  C:3F58H         LINE#         558
  C:3F63H         LINE#         559
  C:3F65H         LINE#         561
  C:3F65H         LINE#         562
  C:3F6BH         LINE#         563
  C:3F8BH         LINE#         564
  C:3F8BH         LINE#         565
  C:3F8BH         LINE#         566
  C:3FA4H         LINE#         567
  C:3FA4H         LINE#         568
  C:3FD1H         LINE#         569
  C:3FD1H         LINE#         570
  C:3FEDH         LINE#         571
  C:4025H         LINE#         572
  C:403EH         LINE#         574
  C:4046H         LINE#         575
  C:404DH         LINE#         576
  C:405BH         LINE#         578
  C:4066H         LINE#         579
  C:4066H         LINE#         580
  C:4066H         LINE#         581
  C:406DH         LINE#         582
  C:4070H         LINE#         583
  C:4072H         LINE#         584
  C:4072H         LINE#         585
  C:4079H         LINE#         586
  C:4079H         LINE#         587
  C:407BH         LINE#         588
  C:407BH         LINE#         589
  C:4086H         LINE#         590
  C:4086H         LINE#         591
  C:4086H         LINE#         593
BL51 BANKED LINKER/LOCATER V6.00                                                      09/09/2017  17:29:44  PAGE 72


  C:40F9H         LINE#         594
  C:40F9H         LINE#         595
  C:4102H         LINE#         596
  C:410AH         LINE#         597
  C:4112H         LINE#         598
  C:4119H         LINE#         599
  C:4120H         LINE#         600
  C:4127H         LINE#         601
  C:412EH         LINE#         602
  C:4135H         LINE#         603
  C:413CH         LINE#         604
  C:4143H         LINE#         605
  C:4148H         LINE#         606
  C:414DH         LINE#         607
  C:4152H         LINE#         608
  C:4157H         LINE#         609
  C:415CH         LINE#         610
  C:4161H         LINE#         611
  C:4166H         LINE#         612
  C:416BH         LINE#         613
  C:4173H         LINE#         614
  C:417BH         LINE#         615
  C:4180H         LINE#         616
  C:4187H         LINE#         617
  C:4187H         LINE#         618
  C:4187H         LINE#         619
  C:4187H         LINE#         620
  C:4187H         LINE#         621
  C:4187H         LINE#         622
  C:4187H         LINE#         623
  C:4187H         LINE#         624
  C:4187H         LINE#         625
  C:4194H         LINE#         626
  C:4194H         LINE#         627
  C:4194H         LINE#         629
  C:41A6H         LINE#         630
  C:41A6H         LINE#         631
  C:41ABH         LINE#         632
  C:41B3H         LINE#         636
  C:41BDH         LINE#         637
  C:41BDH         LINE#         638
  C:41C3H         LINE#         639
  C:41C3H         LINE#         640
  C:41D7H         LINE#         641
  C:41DDH         LINE#         642
  C:41DDH         LINE#         643
  C:41DFH         LINE#         645
  C:41DFH         LINE#         646
  C:41EDH         LINE#         647
  C:41EDH         LINE#         648
  C:41F4H         LINE#         649
  C:41F4H         LINE#         650
  C:4208H         LINE#         651
  C:4228H         LINE#         652
  C:422DH         LINE#         653
  C:422DH         LINE#         654
  C:422DH         LINE#         655
BL51 BANKED LINKER/LOCATER V6.00                                                      09/09/2017  17:29:44  PAGE 73


  C:422DH         LINE#         658
  C:4236H         LINE#         659
  C:4236H         LINE#         660
  C:4245H         LINE#         661
  C:4245H         LINE#         662
  C:4275H         LINE#         663
  C:427DH         LINE#         664
  C:427DH         LINE#         666
  C:42A8H         LINE#         672
  C:42CDH         LINE#         675
  C:42D9H         LINE#         678
  -------         ENDPROC       _LOCATION
  -------         ENDMOD        TUXINGHUA

  -------         MODULE        ADC
  C:0000H         SYMBOL        _ICE_DUMMY_
  D:0080H         PUBLIC        P0
  D:0090H         PUBLIC        P1
  D:00A0H         PUBLIC        P2
  X:031DH         PUBLIC        balance_sample_num_buf
  D:00B0H         PUBLIC        P3
  D:00C0H         PUBLIC        P4
  D:00C8H         PUBLIC        P5
  D:00E8H         PUBLIC        P6
  X:031EH         PUBLIC        value_present
  D:00F8H         PUBLIC        P7
  X:0324H         PUBLIC        flag_adjust
  B:00A8H.5       PUBLIC        EADC
  D:00A8H         PUBLIC        IE
  D:00BDH         PUBLIC        ADC_RES
  C:912DH         PUBLIC        adc_adjust
  D:00B8H         PUBLIC        IP
  D:0097H         PUBLIC        CLK_DIV
  D:00D8H         PUBLIC        CCON
  C:EBFCH         PUBLIC        get_present_value
  D:00BCH         PUBLIC        ADC_CONTR
  D:0098H         PUBLIC        SCON
  D:0088H         PUBLIC        TCON
  C:EDD7H         PUBLIC        start_adc
  X:0325H         PUBLIC        flag_jump
  D:00F0H         PUBLIC        B
  X:0326H         PUBLIC        channel_present
  X:0327H         PUBLIC        flag_balance
  X:0328H         PUBLIC        balance_value
  B:00A8H.0       PUBLIC        EX0
  C:C2AFH         PUBLIC        adc_int
  B:0088H.6       PUBLIC        TR1
  D:009DH         PUBLIC        P1ASF
  D:00BEH         PUBLIC        ADC_RESL
  X:032EH         PUBLIC        balance_sample_num
  X:032FH         PUBLIC        flag_adc_complete
  X:0330H         PUBLIC        channel_total
  C:E839H         PUBLIC        get_balance_value
  C:ED88H         PUBLIC        initial_adc
  D:00D0H         PUBLIC        PSW
  -------         PROC          INITIAL_ADC
  C:ED88H         LINE#         32
BL51 BANKED LINKER/LOCATER V6.00                                                      09/09/2017  17:29:44  PAGE 74


  C:ED88H         LINE#         33
  C:ED88H         LINE#         34
  C:ED8BH         LINE#         35
  C:ED8EH         LINE#         36
  C:ED91H         LINE#         37
  C:ED93H         LINE#         38
  C:ED96H         LINE#         39
  C:ED98H         LINE#         40
  -------         ENDPROC       INITIAL_ADC
  -------         PROC          START_ADC
  C:EDD7H         LINE#         48
  C:EDD7H         LINE#         49
  C:EDD7H         LINE#         50
  C:EDDFH         LINE#         51
  C:EDE2H         LINE#         52
  -------         ENDPROC       START_ADC
  -------         PROC          GET_BALANCE_VALUE
  -------         DO            
  D:0005H         SYMBOL        i
  -------         ENDDO         
  C:E839H         LINE#         60
  C:E839H         LINE#         61
  C:E839H         LINE#         63
  C:E855H         LINE#         64
  C:E855H         LINE#         65
  C:E858H         LINE#         66
  C:E85EH         LINE#         67
  C:E864H         LINE#         68
  C:E867H         LINE#         69
  C:E86DH         LINE#         70
  -------         ENDPROC       GET_BALANCE_VALUE
  -------         PROC          GET_PRESENT_VALUE
  -------         DO            
  D:0007H         SYMBOL        i
  -------         ENDDO         
  C:EBFCH         LINE#         77
  C:EBFCH         LINE#         78
  C:EBFCH         LINE#         80
  C:EC08H         LINE#         81
  C:EC08H         LINE#         82
  C:EC0BH         LINE#         83
  C:EC11H         LINE#         84
  C:EC17H         LINE#         85
  C:EC1AH         LINE#         86
  -------         ENDPROC       GET_PRESENT_VALUE
  -------         PROC          ADC_INT
  -------         DO            
  X:01D8H         SYMBOL        buf
  X:01DAH         SYMBOL        i
  -------         ENDDO         
  C:C2AFH         LINE#         94
  C:C2C6H         LINE#         96
  C:C2CDH         LINE#         99
  C:C2D0H         LINE#         101
  C:C2D9H         LINE#         102
  C:C2D9H         LINE#         103
  C:C2E2H         LINE#         104
BL51 BANKED LINKER/LOCATER V6.00                                                      09/09/2017  17:29:44  PAGE 75


  C:C2EBH         LINE#         105
  C:C2F8H         LINE#         107
  C:C312H         LINE#         108
  C:C318H         LINE#         109
  C:C324H         LINE#         110
  C:C324H         LINE#         111
  C:C326H         LINE#         112
  C:C32CH         LINE#         113
  C:C32CH         LINE#         114
  C:C335H         LINE#         115
  C:C335H         LINE#         116
  C:C347H         LINE#         117
  C:C377H         LINE#         118
  C:C37DH         LINE#         119
  C:C37DH         LINE#         120
  C:C37FH         LINE#         122
  C:C37FH         LINE#         123
  C:C389H         LINE#         124
  C:C392H         LINE#         125
  C:C39FH         LINE#         126
  C:C3B8H         LINE#         127
  C:C3BEH         LINE#         128
  C:C3CAH         LINE#         129
  C:C3CCH         LINE#         130
  C:C3CCH         LINE#         131
  C:C3D1H         LINE#         132
  -------         ENDPROC       ADC_INT
  -------         PROC          ADC_ADJUST
  -------         DO            
  X:0247H         SYMBOL        i
  -------         ENDDO         
  C:912DH         LINE#         140
  C:912DH         LINE#         141
  C:912DH         LINE#         143
  C:9132H         LINE#         144
  C:9135H         LINE#         147
  C:916BH         LINE#         148
  C:916BH         LINE#         149
  C:916DH         LINE#         150
  C:916FH         LINE#         152
  C:9174H         LINE#         153
  C:917BH         LINE#         154
  C:917EH         LINE#         155
  C:9183H         LINE#         156
  C:918AH         LINE#         157
  C:918DH         LINE#         158
  C:9192H         LINE#         159
  C:9198H         LINE#         160
  C:919CH         LINE#         161
  C:919FH         LINE#         163
  C:91AEH         LINE#         164
  C:91AEH         LINE#         165
  C:91BEH         LINE#         166
  C:91C6H         LINE#         167
  C:91C8H         LINE#         168
  C:91CAH         LINE#         169
  C:91CAH         LINE#         172
BL51 BANKED LINKER/LOCATER V6.00                                                      09/09/2017  17:29:44  PAGE 76


  C:9200H         LINE#         173
  C:9200H         LINE#         174
  C:9202H         LINE#         175
  C:9204H         LINE#         177
  C:9209H         LINE#         178
  C:9210H         LINE#         179
  C:9213H         LINE#         180
  C:9218H         LINE#         181
  C:921FH         LINE#         182
  C:9222H         LINE#         183
  C:9227H         LINE#         184
  C:922DH         LINE#         185
  C:9231H         LINE#         186
  C:9234H         LINE#         188
  C:9243H         LINE#         189
  C:9243H         LINE#         190
  C:9253H         LINE#         191
  C:925BH         LINE#         192
  C:925DH         LINE#         193
  C:925FH         LINE#         194
  C:925FH         LINE#         197
  C:9295H         LINE#         198
  C:9295H         LINE#         199
  C:9297H         LINE#         200
  C:9299H         LINE#         202
  C:929EH         LINE#         203
  C:92A1H         LINE#         204
  C:92A6H         LINE#         205
  C:92ACH         LINE#         206
  C:92B0H         LINE#         207
  C:92B3H         LINE#         209
  C:92C2H         LINE#         210
  C:92C2H         LINE#         211
  C:92D2H         LINE#         212
  C:92DAH         LINE#         213
  C:92DCH         LINE#         214
  C:92DEH         LINE#         215
  C:92DEH         LINE#         218
  C:9314H         LINE#         219
  C:9314H         LINE#         220
  C:9316H         LINE#         221
  C:9318H         LINE#         223
  C:931DH         LINE#         224
  C:9320H         LINE#         225
  C:9325H         LINE#         226
  C:932BH         LINE#         227
  C:932FH         LINE#         228
  C:9332H         LINE#         230
  C:9341H         LINE#         231
  C:9341H         LINE#         232
  C:9351H         LINE#         233
  C:9359H         LINE#         234
  C:935BH         LINE#         235
  C:935DH         LINE#         236
  C:935DH         LINE#         238
  C:9363H         LINE#         239
  -------         ENDPROC       ADC_ADJUST
BL51 BANKED LINKER/LOCATER V6.00                                                      09/09/2017  17:29:44  PAGE 77


  -------         ENDMOD        ADC

  -------         MODULE        BUZZ
  C:0000H         SYMBOL        _ICE_DUMMY_
  D:0080H         PUBLIC        P0
  D:0090H         PUBLIC        P1
  D:00A0H         PUBLIC        P2
  D:00B0H         PUBLIC        P3
  D:00C0H         PUBLIC        P4
  D:00C8H         PUBLIC        P5
  D:00E8H         PUBLIC        P6
  D:00F8H         PUBLIC        P7
  D:00A8H         PUBLIC        IE
  D:00B8H         PUBLIC        IP
  C:EA65H         PUBLIC        _fm50ms
  D:00D8H         PUBLIC        CCON
  D:0098H         PUBLIC        SCON
  D:0088H         PUBLIC        TCON
  D:00F0H         PUBLIC        B
  C:EA3BH         PUBLIC        _fm100ms
  C:EA11H         PUBLIC        _fm200ms
  C:E9E7H         PUBLIC        _fm300ms
  B:00C0H.5       PUBLIC        fengming
  C:EA8FH         PUBLIC        _fm1ms
  D:00D0H         PUBLIC        PSW
  -------         PROC          _FM300MS
  X:0339H         SYMBOL        i
  -------         DO            
  X:033AH         SYMBOL        j
  -------         ENDDO         
  C:E9E7H         LINE#         8
  C:E9ECH         LINE#         9
  C:E9ECH         LINE#         10
  C:E9FAH         LINE#         11
  C:E9FAH         LINE#         12
  C:E9FCH         LINE#         13
  C:EA01H         LINE#         14
  C:EA03H         LINE#         15
  C:EA08H         LINE#         16
  C:EA10H         LINE#         17
  -------         ENDPROC       _FM300MS
  -------         PROC          _FM200MS
  X:01F5H         SYMBOL        i
  -------         DO            
  X:01F6H         SYMBOL        j
  -------         ENDDO         
  C:EA11H         LINE#         18
  C:EA16H         LINE#         19
  C:EA16H         LINE#         20
  C:EA24H         LINE#         21
  C:EA24H         LINE#         22
  C:EA26H         LINE#         23
  C:EA2BH         LINE#         24
  C:EA2DH         LINE#         25
  C:EA32H         LINE#         26
  C:EA3AH         LINE#         27
  -------         ENDPROC       _FM200MS
BL51 BANKED LINKER/LOCATER V6.00                                                      09/09/2017  17:29:44  PAGE 78


  -------         PROC          _FM100MS
  X:01F5H         SYMBOL        i
  -------         DO            
  X:01F6H         SYMBOL        j
  -------         ENDDO         
  C:EA3BH         LINE#         29
  C:EA40H         LINE#         30
  C:EA40H         LINE#         31
  C:EA4EH         LINE#         32
  C:EA4EH         LINE#         33
  C:EA50H         LINE#         34
  C:EA55H         LINE#         35
  C:EA57H         LINE#         36
  C:EA5CH         LINE#         37
  C:EA64H         LINE#         38
  -------         ENDPROC       _FM100MS
  -------         PROC          _FM50MS
  X:033BH         SYMBOL        i
  -------         DO            
  X:033CH         SYMBOL        j
  -------         ENDDO         
  C:EA65H         LINE#         39
  C:EA6AH         LINE#         40
  C:EA6AH         LINE#         41
  C:EA78H         LINE#         42
  C:EA78H         LINE#         43
  C:EA7AH         LINE#         44
  C:EA7FH         LINE#         45
  C:EA81H         LINE#         46
  C:EA86H         LINE#         47
  C:EA8EH         LINE#         48
  -------         ENDPROC       _FM50MS
  -------         PROC          _FM1MS
  X:033DH         SYMBOL        i
  -------         DO            
  X:033EH         SYMBOL        j
  -------         ENDDO         
  C:EA8FH         LINE#         50
  C:EA94H         LINE#         51
  C:EA94H         LINE#         53
  C:EAA2H         LINE#         54
  C:EAA2H         LINE#         55
  C:EAA4H         LINE#         56
  C:EAA9H         LINE#         57
  C:EAABH         LINE#         58
  C:EAB0H         LINE#         59
  C:EAB8H         LINE#         60
  -------         ENDPROC       _FM1MS
  -------         ENDMOD        BUZZ

  -------         MODULE        BASAL
  C:0000H         SYMBOL        _ICE_DUMMY_
  C:B804H         PUBLIC        zuogouqiu
  D:0080H         PUBLIC        P0
  D:0090H         PUBLIC        P1
  D:00A0H         PUBLIC        P2
  D:00B0H         PUBLIC        P3
BL51 BANKED LINKER/LOCATER V6.00                                                      09/09/2017  17:29:44  PAGE 79


  D:00C0H         PUBLIC        P4
  C:878FH         PUBLIC        _p_to_p
  D:00C8H         PUBLIC        P5
  B:00A8H.7       PUBLIC        EA
  D:00E8H         PUBLIC        P6
  D:00F8H         PUBLIC        P7
  C:257AH         PUBLIC        daoli
  C:770FH         PUBLIC        qianpq
  D:00A8H         PUBLIC        IE
  C:BEFBH         PUBLIC        _initial_position_slowOne
  D:00B8H         PUBLIC        IP
  C:5409H         PUBLIC        _l_pyi
  C:CFE9H         PUBLIC        array
  C:DCCDH         PUBLIC        fuwei
  C:0F43H         PUBLIC        wudao
  D:00D8H         PUBLIC        CCON
  C:C627H         PUBLIC        dt_l
  C:57ECH         PUBLIC        _r_pyi
  X:0279H         PUBLIC        total
  C:C741H         PUBLIC        dt_r
  D:0098H         PUBLIC        SCON
  D:0089H         PUBLIC        TMOD
  D:0088H         PUBLIC        TCON
  C:2BD0H         PUBLIC        hgf
  C:EC86H         PUBLIC        T0_Interrupt
  X:027AH         PUBLIC        part
  C:ECB7H         PUBLIC        t0_init
  C:E3CBH         PUBLIC        _low_level_500u
  C:4B9EH         PUBLIC        pch
  C:30A0H         PUBLIC        qgf
  C:4741H         PUBLIC        _fwc
  D:008EH         PUBLIC        AUXR
  D:00F0H         PUBLIC        B
  C:AC00H         PUBLIC        qianpaxia
  X:027BH         PUBLIC        position_change
  X:02ABH         PUBLIC        arr
  C:DDBEH         PUBLIC        _max
  B:00A8H.1       PUBLIC        ET0
  C:D3BDH         PUBLIC        taijiaozi
  C:9599H         PUBLIC        hpq
  C:D5DAH         PUBLIC        initial_position
  X:02B3H         PUBLIC        position_initial
  B:0088H.5       PUBLIC        TF0
  C:E58CH         PUBLIC        ForwardDelay
  D:008CH         PUBLIC        TH0
  C:D52BH         PUBLIC        jingli_l
  C:6D8EH         PUBLIC        _turn_right
  D:008AH         PUBLIC        TL0
  C:D684H         PUBLIC        jingli_r
  C:ECFBH         PUBLIC        _low_level_t0
  C:BDB4H         PUBLIC        _yangwoqizuo
  B:0088H.4       PUBLIC        TR0
  C:A228H         PUBLIC        hp
  C:70C8H         PUBLIC        _turn_left
  C:B1DDH         PUBLIC        _relative
  C:E44BH         PUBLIC        _stand_up
  C:E48DH         PUBLIC        BackDelay
BL51 BANKED LINKER/LOCATER V6.00                                                      09/09/2017  17:29:44  PAGE 80


  X:02CBH         PUBLIC        t0bit
  X:02CCH         PUBLIC        change
  C:E409H         PUBLIC        _sit_down
  X:02CDH         PUBLIC        pick_up
  C:7A05H         PUBLIC        _goal_l
  C:E4CEH         PUBLIC        initial_position_slow
  C:7CC3H         PUBLIC        _goal_r
  X:02D5H         PUBLIC        position
  D:00D0H         PUBLIC        PSW
  C:B98CH         PUBLIC        yougouqiu
  C:E3C7H         SYMBOL        L?0326
  -------         PROC          L?0325
  -------         ENDPROC       L?0325
  C:E3C7H         SYMBOL        L?0326
  -------         PROC          _LOW_LEVEL_500U
  X:0245H         SYMBOL        time
  -------         DO            
  X:0247H         SYMBOL        i
  -------         ENDDO         
  C:E3CBH         LINE#         60
  C:E3D3H         LINE#         61
  C:E3D3H         LINE#         63
  C:E3F3H         LINE#         64
  C:E408H         LINE#         65
  -------         ENDPROC       _LOW_LEVEL_500U
  -------         PROC          T0_INIT
  C:ECB7H         LINE#         72
  C:ECB7H         LINE#         73
  C:ECB7H         LINE#         74
  C:ECBAH         LINE#         75
  C:ECBDH         LINE#         76
  C:ECC0H         LINE#         77
  C:ECC3H         LINE#         78
  C:ECC5H         LINE#         85
  C:ECC7H         LINE#         86
  C:ECC9H         LINE#         87
  C:ECCEH         LINE#         88
  -------         ENDPROC       T0_INIT
  -------         PROC          _LOW_LEVEL_T0
  D:0004H         SYMBOL        THTL
  C:ECFBH         LINE#         95
  C:ECFFH         LINE#         96
  C:ECFFH         LINE#         97
  C:ED02H         LINE#         98
  C:ED06H         LINE#         99
  C:ED0BH         LINE#         100
  C:ED0DH         LINE#         101
  -------         ENDPROC       _LOW_LEVEL_T0
  -------         PROC          T0_INTERRUPT
  C:EC86H         LINE#         108
  C:EC8CH         LINE#         110
  C:EC8FH         LINE#         111
  C:EC92H         LINE#         112
  C:EC98H         LINE#         113
  -------         ENDPROC       T0_INTERRUPT
  -------         PROC          FORWARDDELAY
  -------         DO            
BL51 BANKED LINKER/LOCATER V6.00                                                      09/09/2017  17:29:44  PAGE 81


  X:021DH         SYMBOL        i
  -------         ENDDO         
  C:E58CH         LINE#         120
  C:E58CH         LINE#         121
  C:E58CH         LINE#         123
  C:E5B5H         LINE#         124
  C:E5B5H         LINE#         125
  C:E5BAH         LINE#         126
  C:E5BFH         LINE#         127
  C:E5C7H         LINE#         128
  -------         ENDPROC       FORWARDDELAY
  -------         PROC          BACKDELAY
  -------         DO            
  X:021DH         SYMBOL        i
  -------         ENDDO         
  C:E48DH         LINE#         135
  C:E48DH         LINE#         136
  C:E48DH         LINE#         138
  C:E4BBH         LINE#         139
  C:E4BBH         LINE#         140
  C:E4C0H         LINE#         141
  C:E4C5H         LINE#         142
  C:E4CDH         LINE#         143
  -------         ENDPROC       BACKDELAY
  -------         PROC          ARRAY
  -------         DO            
  D:0007H         SYMBOL        i
  D:0006H         SYMBOL        j
  D:0005H         SYMBOL        x
  -------         ENDDO         
  C:CFE9H         LINE#         150
  C:CFE9H         LINE#         151
  C:CFE9H         LINE#         152
  C:CFECH         LINE#         153
  C:CFF2H         LINE#         154
  C:CFF5H         LINE#         155
  C:CFF9H         LINE#         156
  C:CFFDH         LINE#         157
  C:D001H         LINE#         158
  C:D005H         LINE#         159
  C:D009H         LINE#         160
  C:D00DH         LINE#         162
  C:D00DH         LINE#         163
  C:D016H         LINE#         164
  C:D016H         LINE#         165
  C:D032H         LINE#         166
  C:D032H         LINE#         168
  C:D034H         LINE#         169
  C:D040H         LINE#         170
  C:D04CH         LINE#         172
  C:D058H         LINE#         173
  C:D070H         LINE#         174
  C:D07CH         LINE#         175
  C:D07CH         LINE#         176
  C:D085H         LINE#         177
  C:D087H         LINE#         178
  C:D087H         LINE#         179
BL51 BANKED LINKER/LOCATER V6.00                                                      09/09/2017  17:29:44  PAGE 82


  C:D0ABH         LINE#         180
  C:D0B0H         LINE#         181
  -------         ENDPROC       ARRAY
  -------         PROC          _MAX
  X:0245H         SYMBOL        total
  X:0246H         SYMBOL        M
  -------         DO            
  X:0248H         SYMBOL        i
  -------         ENDDO         
  C:DDBEH         LINE#         188
  C:DDC9H         LINE#         189
  C:DDC9H         LINE#         191
  C:DDDAH         LINE#         192
  C:DE01H         LINE#         193
  C:DE20H         LINE#         194
  C:DE28H         LINE#         195
  C:DE30H         LINE#         196
  -------         ENDPROC       _MAX
  C:8787H         SYMBOL        L?0323
  C:8789H         SYMBOL        L?0324
  -------         PROC          L?0322
  -------         ENDPROC       L?0322
  C:8787H         SYMBOL        L?0323
  C:8789H         SYMBOL        L?0324
  -------         PROC          _P_TO_P
  X:021DH         SYMBOL        delay
  X:021FH         SYMBOL        define
  -------         DO            
  X:0221H         SYMBOL        i
  X:0222H         SYMBOL        j
  X:0223H         SYMBOL        a
  X:0225H         SYMBOL        b
  X:0227H         SYMBOL        M
  X:0229H         SYMBOL        c
  X:022DH         SYMBOL        position_buffer
  -------         ENDDO         
  C:878FH         LINE#         203
  C:879DH         LINE#         204
  C:879DH         LINE#         206
  C:87A8H         LINE#         210
  C:87ACH         LINE#         211
  C:87ACH         LINE#         212
  C:87C8H         LINE#         213
  C:87D2H         LINE#         214
  C:87DCH         LINE#         215
  C:87E3H         LINE#         216
  C:87F3H         LINE#         217
  C:87FDH         LINE#         218
  C:8808H         LINE#         219
  C:8819H         LINE#         220
  C:881FH         LINE#         221
  C:8821H         LINE#         223
  C:8830H         LINE#         224
  C:8830H         LINE#         225
  C:8850H         LINE#         226
  C:8850H         LINE#         227
  C:8862H         LINE#         228
BL51 BANKED LINKER/LOCATER V6.00                                                      09/09/2017  17:29:44  PAGE 83


  C:887DH         LINE#         229
  C:8885H         LINE#         230
  C:88CAH         LINE#         232
  C:88CAH         LINE#         233
  C:8916H         LINE#         234
  C:8968H         LINE#         235
  C:8968H         LINE#         236
  C:8986H         LINE#         237
  C:898FH         LINE#         238
  C:8992H         LINE#         239
  C:899DH         LINE#         240
  C:89A6H         LINE#         241
  C:89ABH         LINE#         242
  C:89ABH         LINE#         243
  C:89DBH         LINE#         244
  C:89EBH         LINE#         245
  C:89F5H         LINE#         246
  C:89F8H         LINE#         247
  -------         ENDPROC       _P_TO_P
  C:B180H         SYMBOL        L?0319
  C:B197H         SYMBOL        L?0320
  C:B1B3H         SYMBOL        L?0321
  -------         PROC          L?0318
  -------         ENDPROC       L?0318
  C:B180H         SYMBOL        L?0319
  C:B197H         SYMBOL        L?0320
  C:B1B3H         SYMBOL        L?0321
  -------         PROC          _RELATIVE
  X:0248H         SYMBOL        a1
  X:024AH         SYMBOL        a2
  X:024CH         SYMBOL        a3
  X:024EH         SYMBOL        a4
  X:0250H         SYMBOL        a5
  X:0252H         SYMBOL        a6
  X:0254H         SYMBOL        a7
  X:0256H         SYMBOL        a8
  X:0258H         SYMBOL        a9
  X:025AH         SYMBOL        a10
  X:025CH         SYMBOL        a11
  X:025EH         SYMBOL        a12
  X:0260H         SYMBOL        a13
  X:0262H         SYMBOL        a14
  X:0264H         SYMBOL        a15
  X:0266H         SYMBOL        a16
  X:0268H         SYMBOL        a17
  X:026AH         SYMBOL        a18
  X:026CH         SYMBOL        a19
  X:026EH         SYMBOL        a20
  X:0270H         SYMBOL        a21
  X:0272H         SYMBOL        a22
  X:0274H         SYMBOL        a23
  X:0276H         SYMBOL        a24
  -------         DO            
  D:0001H         SYMBOL        p
  X:0278H         SYMBOL        i
  -------         ENDDO         
  C:B1DDH         LINE#         256
BL51 BANKED LINKER/LOCATER V6.00                                                      09/09/2017  17:29:44  PAGE 84


  C:B1F1H         LINE#         259
  C:B1F1H         LINE#         262
  C:B1F7H         LINE#         263
  C:B206H         LINE#         264
  C:B210H         LINE#         265
  C:B222H         LINE#         267
  C:B262H         LINE#         268
  C:B271H         LINE#         269
  C:B32DH         LINE#         270
  -------         ENDPROC       _RELATIVE
  -------         PROC          INITIAL_POSITION
  -------         DO            
  X:021AH         SYMBOL        i
  D:0007H         SYMBOL        j
  X:021BH         SYMBOL        SrcName
  -------         ENDDO         
  C:D5DAH         LINE#         278
  C:D5DAH         LINE#         279
  C:D5DAH         LINE#         282
  C:D5E9H         LINE#         283
  C:D5EEH         LINE#         284
  C:D5EEH         LINE#         285
  C:D5FCH         LINE#         286
  C:D5FCH         LINE#         287
  C:D5FDH         LINE#         288
  C:D5FDH         LINE#         289
  C:D615H         LINE#         290
  C:D61AH         LINE#         292
  C:D61DH         LINE#         293
  C:D624H         LINE#         294
  C:D624H         LINE#         295
  C:D630H         LINE#         296
  C:D63FH         LINE#         297
  C:D63FH         LINE#         298
  C:D657H         LINE#         299
  C:D66BH         LINE#         300
  C:D67BH         LINE#         301
  C:D683H         LINE#         303
  -------         ENDPROC       INITIAL_POSITION
  -------         PROC          INITIAL_POSITION_SLOW
  -------         DO            
  D:0007H         SYMBOL        i
  -------         ENDDO         
  C:E4CEH         LINE#         311
  C:E4CEH         LINE#         312
  C:E4CEH         LINE#         315
  C:E4D0H         LINE#         316
  C:E4D0H         LINE#         317
  C:E4FFH         LINE#         318
  C:E504H         LINE#         320
  -------         ENDPROC       INITIAL_POSITION_SLOW
  -------         PROC          _INITIAL_POSITION_SLOWONE
  X:01E2H         SYMBOL        k
  C:BEFBH         LINE#         323
  C:BF00H         LINE#         324
  C:BF00H         LINE#         325
  C:BF04H         LINE#         326
BL51 BANKED LINKER/LOCATER V6.00                                                      09/09/2017  17:29:44  PAGE 85


  C:BF04H         LINE#         327
  C:BF77H         LINE#         328
  C:BF77H         LINE#         329
  C:BF7AH         LINE#         331
  C:BF7AH         LINE#         332
  C:BF82H         LINE#         333
  C:BF82H         LINE#         334
  C:BFD1H         LINE#         335
  C:BFD1H         LINE#         336
  C:BFD3H         LINE#         338
  C:BFD3H         LINE#         339
  C:C033H         LINE#         340
  C:C038H         LINE#         341
  C:C038H         LINE#         342
  C:C038H         LINE#         343
  -------         ENDPROC       _INITIAL_POSITION_SLOWONE
  -------         PROC          _SIT_DOWN
  X:0219H         SYMBOL        step
  -------         DO            
  X:021AH         SYMBOL        i
  -------         ENDDO         
  C:E409H         LINE#         350
  C:E40EH         LINE#         351
  C:E40EH         LINE#         354
  C:E41CH         LINE#         355
  C:E41CH         LINE#         356
  C:E422H         LINE#         357
  C:E427H         LINE#         358
  C:E42BH         LINE#         360
  C:E42FH         LINE#         361
  C:E434H         LINE#         362
  C:E438H         LINE#         363
  C:E43BH         LINE#         364
  C:E442H         LINE#         365
  C:E44AH         LINE#         366
  -------         ENDPROC       _SIT_DOWN
  -------         PROC          _STAND_UP
  X:0219H         SYMBOL        setp
  -------         DO            
  X:021AH         SYMBOL        i
  -------         ENDDO         
  C:E44BH         LINE#         373
  C:E450H         LINE#         374
  C:E450H         LINE#         377
  C:E45EH         LINE#         378
  C:E45EH         LINE#         379
  C:E464H         LINE#         380
  C:E469H         LINE#         381
  C:E46DH         LINE#         383
  C:E471H         LINE#         384
  C:E476H         LINE#         385
  C:E47AH         LINE#         386
  C:E47DH         LINE#         387
  C:E484H         LINE#         388
  C:E48CH         LINE#         389
  -------         ENDPROC       _STAND_UP
  -------         PROC          _TURN_LEFT
BL51 BANKED LINKER/LOCATER V6.00                                                      09/09/2017  17:29:44  PAGE 86


  X:0216H         SYMBOL        step
  -------         DO            
  X:0217H         SYMBOL        k
  -------         ENDDO         
  C:70C8H         LINE#         396
  C:70CDH         LINE#         397
  C:70CDH         LINE#         399
  C:70D0H         LINE#         400
  C:715AH         LINE#         401
  C:7164H         LINE#         403
  C:7203H         LINE#         404
  C:720DH         LINE#         406
  C:72ACH         LINE#         407
  C:72B6H         LINE#         409
  C:7355H         LINE#         410
  C:735FH         LINE#         412
  C:73F2H         LINE#         413
  -------         ENDPROC       _TURN_LEFT
  -------         PROC          _TURN_RIGHT
  X:0216H         SYMBOL        step
  -------         DO            
  X:0217H         SYMBOL        k
  -------         ENDDO         
  C:6D8EH         LINE#         421
  C:6D93H         LINE#         422
  C:6D93H         LINE#         424
  C:6D96H         LINE#         425
  C:6E20H         LINE#         426
  C:6E2AH         LINE#         428
  C:6ECBH         LINE#         429
  C:6ED5H         LINE#         431
  C:6F76H         LINE#         432
  C:6F80H         LINE#         434
  C:7021H         LINE#         435
  C:702BH         LINE#         437
  C:70BEH         LINE#         438
  -------         ENDPROC       _TURN_RIGHT
  -------         PROC          _L_PYI
  X:0216H         SYMBOL        step
  -------         DO            
  X:0217H         SYMBOL        k
  -------         ENDDO         
  C:5409H         LINE#         447
  C:540EH         LINE#         448
  C:540EH         LINE#         451
  C:5411H         LINE#         452
  C:549BH         LINE#         453
  C:54A5H         LINE#         455
  C:5546H         LINE#         456
  C:5551H         LINE#         458
  C:55F2H         LINE#         459
  C:55FDH         LINE#         461
  C:569CH         LINE#         462
  C:56A6H         LINE#         464
  C:5745H         LINE#         465
  C:574FH         LINE#         467
  C:57E2H         LINE#         468
BL51 BANKED LINKER/LOCATER V6.00                                                      09/09/2017  17:29:44  PAGE 87


  -------         ENDPROC       _L_PYI
  -------         PROC          _R_PYI
  X:0216H         SYMBOL        step
  -------         DO            
  X:0217H         SYMBOL        k
  -------         ENDDO         
  C:57ECH         LINE#         477
  C:57F1H         LINE#         478
  C:57F1H         LINE#         481
  C:57F4H         LINE#         482
  C:587EH         LINE#         483
  C:5888H         LINE#         485
  C:5927H         LINE#         486
  C:5932H         LINE#         488
  C:59D1H         LINE#         489
  C:59DCH         LINE#         491
  C:5A7DH         LINE#         492
  C:5A87H         LINE#         494
  C:5B28H         LINE#         495
  C:5B32H         LINE#         497
  C:5BC5H         LINE#         498
  -------         ENDPROC       _R_PYI
  -------         PROC          _FWC
  X:0216H         SYMBOL        step
  -------         DO            
  X:0217H         SYMBOL        i
  X:0218H         SYMBOL        j
  -------         ENDDO         
  C:4741H         LINE#         507
  C:4744H         LINE#         508
  C:4744H         LINE#         510
  C:4744H         LINE#         511
  C:4744H         LINE#         513
  C:4747H         LINE#         514
  C:4752H         LINE#         516
  C:47C8H         LINE#         517
  C:47D3H         LINE#         519
  C:4849H         LINE#         520
  C:4854H         LINE#         522
  C:48CAH         LINE#         523
  C:48D5H         LINE#         525
  C:48F7H         LINE#         526
  C:4902H         LINE#         529
  C:4914H         LINE#         530
  C:4914H         LINE#         531
  C:4919H         LINE#         532
  C:4919H         LINE#         533
  C:4920H         LINE#         534
  C:4925H         LINE#         535
  C:492AH         LINE#         536
  C:492FH         LINE#         537
  C:4932H         LINE#         538
  C:4939H         LINE#         539
  C:4945H         LINE#         540
  C:494AH         LINE#         541
  C:494AH         LINE#         542
  C:4951H         LINE#         543
BL51 BANKED LINKER/LOCATER V6.00                                                      09/09/2017  17:29:44  PAGE 88


  C:4956H         LINE#         544
  C:495BH         LINE#         545
  C:4960H         LINE#         546
  C:4963H         LINE#         547
  C:496AH         LINE#         548
  C:4976H         LINE#         549
  C:497EH         LINE#         551
  C:49EBH         LINE#         552
  C:49F6H         LINE#         554
  C:4A74H         LINE#         555
  C:4A7FH         LINE#         557
  C:4AFDH         LINE#         558
  C:4B0DH         LINE#         560
  C:4B83H         LINE#         561
  C:4B86H         LINE#         563
  C:4B89H         LINE#         564
  C:4B94H         LINE#         565
  C:4B99H         LINE#         566
  C:4B9DH         LINE#         567
  -------         ENDPROC       _FWC
  -------         PROC          _GOAL_L
  X:0216H         SYMBOL        step
  -------         DO            
  X:0217H         SYMBOL        i
  -------         ENDDO         
  C:7A05H         LINE#         574
  C:7A0AH         LINE#         575
  C:7A0AH         LINE#         578
  C:7A1BH         LINE#         579
  C:7A1BH         LINE#         580
  C:7A98H         LINE#         581
  C:7AA3H         LINE#         583
  C:7B1DH         LINE#         584
  C:7B27H         LINE#         586
  C:7BAAH         LINE#         587
  C:7BB4H         LINE#         589
  C:7BB9H         LINE#         590
  C:7C36H         LINE#         591
  C:7C40H         LINE#         593
  C:7CAFH         LINE#         594
  C:7CB9H         LINE#         595
  C:7CC2H         LINE#         596
  -------         ENDPROC       _GOAL_L
  -------         PROC          _GOAL_R
  X:0216H         SYMBOL        step
  -------         DO            
  X:0217H         SYMBOL        i
  -------         ENDDO         
  C:7CC3H         LINE#         603
  C:7CC8H         LINE#         604
  C:7CC8H         LINE#         606
  C:7CD9H         LINE#         607
  C:7CD9H         LINE#         608
  C:7D57H         LINE#         609
  C:7D62H         LINE#         611
  C:7DDCH         LINE#         612
  C:7DE6H         LINE#         614
BL51 BANKED LINKER/LOCATER V6.00                                                      09/09/2017  17:29:44  PAGE 89


  C:7E63H         LINE#         615
  C:7E6DH         LINE#         616
  C:7E72H         LINE#         617
  C:7EF0H         LINE#         618
  C:7EFAH         LINE#         620
  C:7F69H         LINE#         621
  C:7F73H         LINE#         623
  C:7F7CH         LINE#         624
  -------         ENDPROC       _GOAL_R
  -------         PROC          QIANPAXIA
  -------         DO            
  X:0216H         SYMBOL        i
  -------         ENDDO         
  C:AC00H         LINE#         631
  C:AC00H         LINE#         632
  C:AC00H         LINE#         634
  C:AC76H         LINE#         635
  C:AC81H         LINE#         637
  C:ACF7H         LINE#         638
  C:AD02H         LINE#         640
  C:AD78H         LINE#         641
  C:AD83H         LINE#         643
  C:ADA5H         LINE#         644
  C:ADB0H         LINE#         646
  C:ADB5H         LINE#         647
  C:ADB5H         LINE#         648
  C:ADBCH         LINE#         649
  C:ADC1H         LINE#         650
  C:ADC4H         LINE#         651
  C:ADCBH         LINE#         652
  C:ADD7H         LINE#         653
  -------         ENDPROC       QIANPAXIA
  -------         PROC          QIANPQ
  C:770FH         LINE#         661
  C:770FH         LINE#         662
  C:770FH         LINE#         663
  C:774DH         LINE#         664
  C:7758H         LINE#         666
  C:77D6H         LINE#         667
  C:77D9H         LINE#         669
  C:7857H         LINE#         670
  C:7862H         LINE#         672
  C:78E0H         LINE#         673
  C:78EBH         LINE#         675
  C:7969H         LINE#         676
  C:7979H         LINE#         678
  C:79EFH         LINE#         679
  C:79F2H         LINE#         681
  C:79F5H         LINE#         682
  C:7A00H         LINE#         683
  -------         ENDPROC       QIANPQ
  -------         PROC          HP
  C:A228H         LINE#         691
  C:A228H         LINE#         692
  C:A228H         LINE#         693
  C:A22BH         LINE#         694
  C:A22EH         LINE#         696
BL51 BANKED LINKER/LOCATER V6.00                                                      09/09/2017  17:29:44  PAGE 90


  C:A2ACH         LINE#         697
  C:A2B7H         LINE#         699
  C:A335H         LINE#         700
  C:A340H         LINE#         702
  C:A3BAH         LINE#         703
  C:A3C5H         LINE#         705
  C:A403H         LINE#         706
  C:A40EH         LINE#         708
  C:A411H         LINE#         709
  C:A41CH         LINE#         711
  C:A421H         LINE#         712
  -------         ENDPROC       HP
  -------         PROC          HPQ
  C:9599H         LINE#         721
  C:9599H         LINE#         722
  C:9599H         LINE#         723
  C:9617H         LINE#         724
  C:9622H         LINE#         726
  C:96A0H         LINE#         727
  C:96ABH         LINE#         729
  C:9725H         LINE#         730
  C:9730H         LINE#         735
  C:97AEH         LINE#         736
  C:97B9H         LINE#         738
  C:97BCH         LINE#         739
  C:97C7H         LINE#         741
  -------         ENDPROC       HPQ
  -------         PROC          _YANGWOQIZUO
  X:0216H         SYMBOL        step
  -------         DO            
  X:0217H         SYMBOL        i
  X:0218H         SYMBOL        j
  -------         ENDDO         
  C:BDB4H         LINE#         749
  C:BDB7H         LINE#         750
  C:BDB7H         LINE#         752
  C:BDB7H         LINE#         753
  C:BDB7H         LINE#         755
  C:BDBAH         LINE#         756
  C:BDC5H         LINE#         757
  C:BDC8H         LINE#         758
  C:BDCDH         LINE#         760
  C:BDD2H         LINE#         761
  C:BDD2H         LINE#         762
  C:BDD8H         LINE#         763
  C:BDDCH         LINE#         764
  C:BDE0H         LINE#         765
  C:BDE4H         LINE#         766
  C:BDE7H         LINE#         767
  C:BDEEH         LINE#         768
  C:BDFAH         LINE#         769
  C:BDFFH         LINE#         770
  C:BDFFH         LINE#         771
  C:BE06H         LINE#         772
  C:BE0BH         LINE#         773
  C:BE0EH         LINE#         774
  C:BE15H         LINE#         775
BL51 BANKED LINKER/LOCATER V6.00                                                      09/09/2017  17:29:44  PAGE 91


  C:BE21H         LINE#         776
  C:BE26H         LINE#         777
  C:BE26H         LINE#         778
  C:BE2DH         LINE#         779
  C:BE34H         LINE#         780
  C:BE39H         LINE#         781
  C:BE40H         LINE#         782
  C:BE46H         LINE#         783
  C:BE4BH         LINE#         784
  C:BE4FH         LINE#         785
  C:BE54H         LINE#         786
  C:BE57H         LINE#         787
  C:BE5EH         LINE#         788
  C:BE63H         LINE#         790
  C:BE6FH         LINE#         791
  C:BE81H         LINE#         792
  C:BE81H         LINE#         793
  C:BE86H         LINE#         794
  C:BE86H         LINE#         795
  C:BE8DH         LINE#         796
  C:BE94H         LINE#         797
  C:BE97H         LINE#         798
  C:BE9EH         LINE#         799
  C:BEAAH         LINE#         800
  C:BEAFH         LINE#         801
  C:BEAFH         LINE#         802
  C:BEB6H         LINE#         803
  C:BEBDH         LINE#         804
  C:BEC0H         LINE#         805
  C:BEC7H         LINE#         806
  C:BED3H         LINE#         807
  C:BEDBH         LINE#         808
  C:BEE0H         LINE#         809
  C:BEE3H         LINE#         810
  C:BEEEH         LINE#         811
  C:BEF3H         LINE#         812
  C:BEF6H         LINE#         813
  C:BEFAH         LINE#         814
  -------         ENDPROC       _YANGWOQIZUO
  -------         PROC          JINGLI_L
  -------         DO            
  X:0218H         SYMBOL        i
  -------         ENDDO         
  C:D52BH         LINE#         822
  C:D52BH         LINE#         823
  C:D52BH         LINE#         828
  C:D530H         LINE#         829
  C:D530H         LINE#         830
  C:D537H         LINE#         831
  C:D53EH         LINE#         833
  C:D541H         LINE#         834
  C:D548H         LINE#         835
  C:D554H         LINE#         837
  C:D559H         LINE#         838
  C:D559H         LINE#         839
  C:D55FH         LINE#         840
  C:D565H         LINE#         841
BL51 BANKED LINKER/LOCATER V6.00                                                      09/09/2017  17:29:44  PAGE 92


  C:D568H         LINE#         842
  C:D56FH         LINE#         843
  C:D580H         LINE#         844
  C:D585H         LINE#         845
  C:D585H         LINE#         846
  C:D58BH         LINE#         847
  C:D591H         LINE#         848
  C:D594H         LINE#         849
  C:D59BH         LINE#         850
  C:D5ACH         LINE#         851
  C:D5B1H         LINE#         852
  C:D5B1H         LINE#         853
  C:D5B8H         LINE#         854
  C:D5BFH         LINE#         856
  C:D5C2H         LINE#         857
  C:D5C9H         LINE#         858
  C:D5D5H         LINE#         861
  -------         ENDPROC       JINGLI_L
  -------         PROC          JINGLI_R
  -------         DO            
  X:0216H         SYMBOL        i
  -------         ENDDO         
  C:D684H         LINE#         870
  C:D684H         LINE#         871
  C:D684H         LINE#         876
  C:D689H         LINE#         877
  C:D689H         LINE#         878
  C:D690H         LINE#         879
  C:D697H         LINE#         881
  C:D69AH         LINE#         882
  C:D6A1H         LINE#         884
  C:D6ADH         LINE#         886
  C:D6B2H         LINE#         887
  C:D6B2H         LINE#         888
  C:D6B8H         LINE#         889
  C:D6BEH         LINE#         890
  C:D6C1H         LINE#         891
  C:D6C8H         LINE#         892
  C:D6D4H         LINE#         893
  C:D6D9H         LINE#         895
  C:D6DEH         LINE#         896
  C:D6DEH         LINE#         897
  C:D6E4H         LINE#         898
  C:D6EAH         LINE#         899
  C:D6EDH         LINE#         900
  C:D6F4H         LINE#         901
  C:D700H         LINE#         902
  C:D705H         LINE#         903
  C:D705H         LINE#         904
  C:D70CH         LINE#         905
  C:D713H         LINE#         906
  C:D716H         LINE#         907
  C:D71DH         LINE#         908
  C:D729H         LINE#         910
  -------         ENDPROC       JINGLI_R
  -------         PROC          QGF
  C:30A0H         LINE#         920
BL51 BANKED LINKER/LOCATER V6.00                                                      09/09/2017  17:29:44  PAGE 93


  C:30A0H         LINE#         921
  C:30A0H         LINE#         922
  C:30A4H         LINE#         923
  C:30A6H         LINE#         925
  C:311CH         LINE#         926
  C:3127H         LINE#         928
  C:319DH         LINE#         929
  C:31A8H         LINE#         931
  C:321AH         LINE#         932
  C:3225H         LINE#         934
  C:3297H         LINE#         935
  C:32A2H         LINE#         937
  C:3314H         LINE#         938
  C:3317H         LINE#         940
  C:3391H         LINE#         941
  C:3394H         LINE#         943
  C:3412H         LINE#         944
  C:341DH         LINE#         946
  C:3497H         LINE#         947
  C:34A2H         LINE#         952
  C:3520H         LINE#         953
  C:352BH         LINE#         955
  C:352EH         LINE#         956
  C:3539H         LINE#         958
  C:353DH         LINE#         959
  -------         ENDPROC       QGF
  -------         PROC          HGF
  C:2BD0H         LINE#         966
  C:2BD0H         LINE#         967
  C:2BD0H         LINE#         968
  C:2BD4H         LINE#         969
  C:2BD6H         LINE#         971
  C:2C54H         LINE#         972
  C:2C5FH         LINE#         974
  C:2CD9H         LINE#         975
  C:2CDCH         LINE#         977
  C:2D5AH         LINE#         978
  C:2D65H         LINE#         980
  C:2DE3H         LINE#         981
  C:2DEEH         LINE#         983
  C:2E6CH         LINE#         984
  C:2E6FH         LINE#         986
  C:2EEDH         LINE#         987
  C:2EF8H         LINE#         989
  C:2F76H         LINE#         990
  C:2F81H         LINE#         992
  C:2FFFH         LINE#         993
  C:300FH         LINE#         995
  C:3085H         LINE#         996
  C:3088H         LINE#         998
  C:308BH         LINE#         999
  C:3096H         LINE#         1001
  C:309BH         LINE#         1002
  C:309FH         LINE#         1003
  -------         ENDPROC       HGF
  -------         PROC          DAOLI
  C:257AH         LINE#         1010
BL51 BANKED LINKER/LOCATER V6.00                                                      09/09/2017  17:29:44  PAGE 94


  C:257AH         LINE#         1011
  C:257AH         LINE#         1012
  C:257EH         LINE#         1013
  C:2580H         LINE#         1015
  C:2583H         LINE#         1017
  C:25F9H         LINE#         1018
  C:2604H         LINE#         1020
  C:267AH         LINE#         1021
  C:2685H         LINE#         1023
  C:2709H         LINE#         1024
  C:2714H         LINE#         1026
  C:2781H         LINE#         1027
  C:278CH         LINE#         1029
  C:27F9H         LINE#         1030
  C:2804H         LINE#         1031
  C:2809H         LINE#         1033
  C:2887H         LINE#         1034
  C:2892H         LINE#         1036
  C:2910H         LINE#         1037
  C:291BH         LINE#         1039
  C:2999H         LINE#         1040
  C:29A4H         LINE#         1042
  C:2A22H         LINE#         1043
  C:2A2DH         LINE#         1045
  C:2AABH         LINE#         1046
  C:2AB6H         LINE#         1048
  C:2B34H         LINE#         1049
  C:2B44H         LINE#         1051
  C:2BBAH         LINE#         1052
  C:2BBDH         LINE#         1054
  C:2BC0H         LINE#         1055
  C:2BCBH         LINE#         1057
  C:2BCFH         LINE#         1058
  -------         ENDPROC       DAOLI
  -------         PROC          PCH
  C:4B9EH         LINE#         1065
  C:4B9EH         LINE#         1066
  C:4B9EH         LINE#         1067
  C:4BDCH         LINE#         1068
  C:4BE7H         LINE#         1070
  C:4C32H         LINE#         1071
  C:4C3DH         LINE#         1073
  C:4C42H         LINE#         1075
  C:4CBCH         LINE#         1076
  C:4CC7H         LINE#         1078
  C:4D41H         LINE#         1079
  C:4D44H         LINE#         1081
  C:4DB9H         LINE#         1082
  C:4DC4H         LINE#         1084
  C:4E42H         LINE#         1085
  C:4E4DH         LINE#         1087
  C:4ECBH         LINE#         1088
  C:4ED6H         LINE#         1090
  C:4F50H         LINE#         1091
  C:4F5BH         LINE#         1096
  C:4FD9H         LINE#         1097
  C:4FE4H         LINE#         1099
BL51 BANKED LINKER/LOCATER V6.00                                                      09/09/2017  17:29:44  PAGE 95


  C:4FE7H         LINE#         1100
  -------         ENDPROC       PCH
  -------         PROC          DT_L
  -------         DO            
  X:01E2H         SYMBOL        i
  -------         ENDDO         
  C:C627H         LINE#         1110
  C:C627H         LINE#         1111
  C:C627H         LINE#         1112
  C:C62AH         LINE#         1113
  C:C635H         LINE#         1114
  C:C63AH         LINE#         1115
  C:C63AH         LINE#         1116
  C:C641H         LINE#         1117
  C:C648H         LINE#         1118
  C:C64BH         LINE#         1119
  C:C652H         LINE#         1120
  C:C65EH         LINE#         1123
  C:C663H         LINE#         1124
  C:C663H         LINE#         1125
  C:C669H         LINE#         1126
  C:C66DH         LINE#         1127
  C:C671H         LINE#         1128
  C:C675H         LINE#         1129
  C:C678H         LINE#         1130
  C:C67FH         LINE#         1131
  C:C68BH         LINE#         1132
  C:C690H         LINE#         1135
  C:C69FH         LINE#         1136
  C:C69FH         LINE#         1137
  C:C6A6H         LINE#         1138
  C:C6AFH         LINE#         1139
  C:C6B5H         LINE#         1141
  C:C6B8H         LINE#         1142
  C:C6BFH         LINE#         1143
  C:C6C7H         LINE#         1144
  C:C6CCH         LINE#         1145
  C:C6DBH         LINE#         1146
  C:C6DBH         LINE#         1147
  C:C6E2H         LINE#         1148
  C:C6EBH         LINE#         1149
  C:C6F1H         LINE#         1151
  C:C6F4H         LINE#         1152
  C:C6FBH         LINE#         1153
  C:C703H         LINE#         1154
  C:C708H         LINE#         1156
  C:C70DH         LINE#         1157
  C:C70DH         LINE#         1158
  C:C714H         LINE#         1159
  C:C719H         LINE#         1160
  C:C71EH         LINE#         1161
  C:C723H         LINE#         1162
  C:C726H         LINE#         1163
  C:C72DH         LINE#         1164
  C:C739H         LINE#         1165
  C:C73EH         LINE#         1166
  -------         ENDPROC       DT_L
BL51 BANKED LINKER/LOCATER V6.00                                                      09/09/2017  17:29:44  PAGE 96


  -------         PROC          DT_R
  -------         DO            
  X:01E2H         SYMBOL        i
  -------         ENDDO         
  C:C741H         LINE#         1174
  C:C741H         LINE#         1175
  C:C741H         LINE#         1176
  C:C744H         LINE#         1177
  C:C74FH         LINE#         1179
  C:C754H         LINE#         1180
  C:C754H         LINE#         1181
  C:C75BH         LINE#         1182
  C:C762H         LINE#         1183
  C:C765H         LINE#         1184
  C:C76CH         LINE#         1185
  C:C778H         LINE#         1188
  C:C77DH         LINE#         1189
  C:C77DH         LINE#         1190
  C:C783H         LINE#         1191
  C:C787H         LINE#         1192
  C:C78BH         LINE#         1193
  C:C78FH         LINE#         1194
  C:C792H         LINE#         1195
  C:C799H         LINE#         1196
  C:C7A5H         LINE#         1197
  C:C7AAH         LINE#         1200
  C:C7B9H         LINE#         1201
  C:C7B9H         LINE#         1202
  C:C7C0H         LINE#         1203
  C:C7C9H         LINE#         1204
  C:C7CFH         LINE#         1206
  C:C7D2H         LINE#         1207
  C:C7D9H         LINE#         1208
  C:C7E1H         LINE#         1209
  C:C7E6H         LINE#         1210
  C:C7F5H         LINE#         1211
  C:C7F5H         LINE#         1212
  C:C7FCH         LINE#         1213
  C:C805H         LINE#         1214
  C:C80BH         LINE#         1216
  C:C80EH         LINE#         1217
  C:C815H         LINE#         1218
  C:C81DH         LINE#         1219
  C:C822H         LINE#         1221
  C:C827H         LINE#         1222
  C:C827H         LINE#         1223
  C:C82EH         LINE#         1224
  C:C833H         LINE#         1225
  C:C838H         LINE#         1226
  C:C83DH         LINE#         1227
  C:C840H         LINE#         1228
  C:C847H         LINE#         1229
  C:C853H         LINE#         1230
  C:C858H         LINE#         1231
  -------         ENDPROC       DT_R
  -------         PROC          TAIJIAOZI
  -------         DO            
BL51 BANKED LINKER/LOCATER V6.00                                                      09/09/2017  17:29:44  PAGE 97


  X:0216H         SYMBOL        i
  -------         ENDDO         
  C:D3BDH         LINE#         1239
  C:D3BDH         LINE#         1240
  C:D3BDH         LINE#         1243
  C:D3C6H         LINE#         1244
  C:D3CEH         LINE#         1245
  C:D3D5H         LINE#         1246
  C:D3DDH         LINE#         1247
  C:D3E6H         LINE#         1248
  C:D3EBH         LINE#         1249
  C:D3EBH         LINE#         1250
  C:D3F5H         LINE#         1251
  C:D3FCH         LINE#         1252
  C:D404H         LINE#         1253
  C:D40BH         LINE#         1254
  C:D414H         LINE#         1256
  C:D41DH         LINE#         1257
  C:D425H         LINE#         1258
  C:D42CH         LINE#         1259
  C:D434H         LINE#         1260
  C:D43DH         LINE#         1261
  C:D449H         LINE#         1263
  C:D453H         LINE#         1264
  C:D45AH         LINE#         1265
  C:D462H         LINE#         1266
  C:D469H         LINE#         1267
  C:D472H         LINE#         1270
  -------         ENDPROC       TAIJIAOZI
  -------         PROC          WUDAO
  -------         DO            
  X:01E2H         SYMBOL        i
  -------         ENDDO         
  C:0F43H         LINE#         1278
  C:0F43H         LINE#         1279
  C:0F43H         LINE#         1281
  C:0F46H         LINE#         1282
  C:0F51H         LINE#         1283
  C:0F5AH         LINE#         1284
  C:0F64H         LINE#         1285
  C:0F6EH         LINE#         1286
  C:0F78H         LINE#         1287
  C:0F82H         LINE#         1290
  C:0F8BH         LINE#         1291
  C:0F94H         LINE#         1292
  C:0F9CH         LINE#         1293
  C:0FA6H         LINE#         1294
  C:0FB0H         LINE#         1296
  C:0FB9H         LINE#         1297
  C:0FC1H         LINE#         1298
  C:0FC9H         LINE#         1300
  C:0FD2H         LINE#         1301
  C:0FDCH         LINE#         1303
  C:0FE6H         LINE#         1305
  C:0FEFH         LINE#         1306
  C:0FF8H         LINE#         1307
  C:1002H         LINE#         1308
BL51 BANKED LINKER/LOCATER V6.00                                                      09/09/2017  17:29:44  PAGE 98


  C:100CH         LINE#         1309
  C:1016H         LINE#         1311
  C:101FH         LINE#         1312
  C:1026H         LINE#         1313
  C:1030H         LINE#         1315
  C:103AH         LINE#         1316
  C:1041H         LINE#         1317
  C:1048H         LINE#         1318
  C:1052H         LINE#         1319
  C:105CH         LINE#         1320
  C:1064H         LINE#         1321
  C:106EH         LINE#         1322
  C:1078H         LINE#         1323
  C:107FH         LINE#         1324
  C:1088H         LINE#         1325
  C:1092H         LINE#         1326
  C:109CH         LINE#         1327
  C:10A5H         LINE#         1328
  C:10AEH         LINE#         1329
  C:10B8H         LINE#         1330
  C:10BFH         LINE#         1331
  C:10C7H         LINE#         1333
  C:10D1H         LINE#         1334
  C:10DAH         LINE#         1335
  C:10E4H         LINE#         1336
  C:10EDH         LINE#         1338
  C:10F7H         LINE#         1339
  C:10FCH         LINE#         1342
  C:1106H         LINE#         1343
  C:110FH         LINE#         1344
  C:1119H         LINE#         1346
  C:1122H         LINE#         1347
  C:112CH         LINE#         1348
  C:1136H         LINE#         1349
  C:1140H         LINE#         1350
  C:114AH         LINE#         1351
  C:1154H         LINE#         1356
  C:115EH         LINE#         1357
  C:1168H         LINE#         1358
  C:1171H         LINE#         1359
  C:117AH         LINE#         1360
  C:1183H         LINE#         1363
  C:118DH         LINE#         1364
  C:1197H         LINE#         1365
  C:11A0H         LINE#         1366
  C:11A9H         LINE#         1367
  C:11B3H         LINE#         1369
  C:11C1H         LINE#         1370
  C:11CAH         LINE#         1371
  C:11D1H         LINE#         1373
  C:11DBH         LINE#         1374
  C:11E4H         LINE#         1375
  C:11EEH         LINE#         1376
  C:11F7H         LINE#         1377
  C:1201H         LINE#         1378
  C:120BH         LINE#         1379
  C:1212H         LINE#         1380
BL51 BANKED LINKER/LOCATER V6.00                                                      09/09/2017  17:29:44  PAGE 99


  C:121BH         LINE#         1382
  C:1225H         LINE#         1383
  C:122DH         LINE#         1385
  C:1237H         LINE#         1387
  C:1240H         LINE#         1388
  C:1248H         LINE#         1389
  C:1250H         LINE#         1390
  C:125AH         LINE#         1391
  C:1263H         LINE#         1392
  C:126AH         LINE#         1393
  C:1274H         LINE#         1394
  C:127DH         LINE#         1395
  C:1286H         LINE#         1396
  C:1290H         LINE#         1397
  C:129AH         LINE#         1398
  C:12A3H         LINE#         1400
  C:12ADH         LINE#         1401
  C:12B7H         LINE#         1402
  C:12C0H         LINE#         1403
  C:12CAH         LINE#         1405
  C:12D3H         LINE#         1406
  C:12DDH         LINE#         1407
  C:12E7H         LINE#         1408
  C:12F0H         LINE#         1409
  C:12F7H         LINE#         1410
  C:1300H         LINE#         1411
  C:1309H         LINE#         1412
  C:1313H         LINE#         1413
  C:131DH         LINE#         1414
  C:1327H         LINE#         1415
  C:1330H         LINE#         1416
  C:133AH         LINE#         1418
  C:133DH         LINE#         1419
  C:1347H         LINE#         1422
  C:134CH         LINE#         1423
  C:134CH         LINE#         1424
  C:1352H         LINE#         1425
  C:1357H         LINE#         1426
  C:135BH         LINE#         1428
  C:135FH         LINE#         1429
  C:1364H         LINE#         1430
  C:1368H         LINE#         1432
  C:136BH         LINE#         1433
  C:1372H         LINE#         1434
  C:137EH         LINE#         1436
  C:1383H         LINE#         1437
  C:1383H         LINE#         1438
  C:1389H         LINE#         1439
  C:138EH         LINE#         1440
  C:1392H         LINE#         1442
  C:1396H         LINE#         1443
  C:139BH         LINE#         1444
  C:139FH         LINE#         1446
  C:13A2H         LINE#         1447
  C:13A9H         LINE#         1448
  C:13B5H         LINE#         1449
  C:13BAH         LINE#         1450
BL51 BANKED LINKER/LOCATER V6.00                                                      09/09/2017  17:29:44  PAGE 100


  C:13BAH         LINE#         1451
  C:13C0H         LINE#         1452
  C:13C5H         LINE#         1453
  C:13C9H         LINE#         1455
  C:13CDH         LINE#         1456
  C:13D2H         LINE#         1457
  C:13D6H         LINE#         1459
  C:13D9H         LINE#         1460
  C:13E0H         LINE#         1461
  C:13ECH         LINE#         1462
  C:13F1H         LINE#         1463
  C:13F1H         LINE#         1464
  C:13F7H         LINE#         1465
  C:13FCH         LINE#         1466
  C:1400H         LINE#         1468
  C:1404H         LINE#         1469
  C:1409H         LINE#         1470
  C:140DH         LINE#         1471
  C:1410H         LINE#         1472
  C:1417H         LINE#         1473
  C:1423H         LINE#         1475
  C:1428H         LINE#         1476
  C:1428H         LINE#         1477
  C:142EH         LINE#         1478
  C:1433H         LINE#         1479
  C:1437H         LINE#         1481
  C:143BH         LINE#         1482
  C:1440H         LINE#         1483
  C:1444H         LINE#         1484
  C:144BH         LINE#         1487
  C:144EH         LINE#         1488
  C:1455H         LINE#         1489
  C:1461H         LINE#         1490
  C:1466H         LINE#         1491
  C:1466H         LINE#         1492
  C:146CH         LINE#         1493
  C:1471H         LINE#         1494
  C:1475H         LINE#         1496
  C:1479H         LINE#         1497
  C:147EH         LINE#         1498
  C:1482H         LINE#         1500
  C:1487H         LINE#         1501
  C:148AH         LINE#         1502
  C:1491H         LINE#         1503
  C:149DH         LINE#         1504
  C:14A2H         LINE#         1505
  C:14A2H         LINE#         1506
  C:14A8H         LINE#         1507
  C:14ADH         LINE#         1508
  C:14B1H         LINE#         1510
  C:14B5H         LINE#         1511
  C:14BAH         LINE#         1512
  C:14BEH         LINE#         1514
  C:14C5H         LINE#         1515
  C:14CCH         LINE#         1517
  C:14D1H         LINE#         1518
  C:14D4H         LINE#         1519
BL51 BANKED LINKER/LOCATER V6.00                                                      09/09/2017  17:29:44  PAGE 101


  C:14DBH         LINE#         1520
  C:14E7H         LINE#         1522
  C:14ECH         LINE#         1523
  C:14ECH         LINE#         1524
  C:14F2H         LINE#         1525
  C:14F7H         LINE#         1526
  C:14FBH         LINE#         1528
  C:14FFH         LINE#         1529
  C:1504H         LINE#         1530
  C:1508H         LINE#         1531
  C:150FH         LINE#         1532
  C:1516H         LINE#         1533
  C:151DH         LINE#         1535
  C:1520H         LINE#         1536
  C:1527H         LINE#         1537
  C:1533H         LINE#         1538
  C:1538H         LINE#         1539
  C:1538H         LINE#         1540
  C:153EH         LINE#         1541
  C:1543H         LINE#         1542
  C:1547H         LINE#         1544
  C:154BH         LINE#         1545
  C:1550H         LINE#         1546
  C:1554H         LINE#         1548
  C:155BH         LINE#         1549
  C:1562H         LINE#         1551
  C:1565H         LINE#         1552
  C:156CH         LINE#         1553
  C:1578H         LINE#         1554
  C:157DH         LINE#         1555
  C:157DH         LINE#         1556
  C:1583H         LINE#         1557
  C:1588H         LINE#         1558
  C:158CH         LINE#         1560
  C:1590H         LINE#         1561
  C:1595H         LINE#         1562
  C:1599H         LINE#         1564
  C:159FH         LINE#         1565
  C:15A5H         LINE#         1566
  C:15A8H         LINE#         1567
  C:15AFH         LINE#         1568
  C:15BBH         LINE#         1569
  C:15C0H         LINE#         1570
  C:15C0H         LINE#         1571
  C:15C6H         LINE#         1572
  C:15CBH         LINE#         1573
  C:15CFH         LINE#         1575
  C:15D3H         LINE#         1576
  C:15D8H         LINE#         1577
  C:15DCH         LINE#         1579
  C:15E3H         LINE#         1580
  C:15EAH         LINE#         1582
  C:15EDH         LINE#         1583
  C:15F4H         LINE#         1584
  C:1600H         LINE#         1585
  C:1605H         LINE#         1586
  C:1605H         LINE#         1587
BL51 BANKED LINKER/LOCATER V6.00                                                      09/09/2017  17:29:44  PAGE 102


  C:160BH         LINE#         1588
  C:1610H         LINE#         1589
  C:1614H         LINE#         1591
  C:1618H         LINE#         1592
  C:161DH         LINE#         1593
  C:1621H         LINE#         1595
  C:1628H         LINE#         1596
  C:162FH         LINE#         1597
  C:1632H         LINE#         1598
  C:1639H         LINE#         1599
  C:1645H         LINE#         1601
  C:164AH         LINE#         1602
  C:164AH         LINE#         1603
  C:1650H         LINE#         1604
  C:1655H         LINE#         1605
  C:1659H         LINE#         1607
  C:165DH         LINE#         1608
  C:1662H         LINE#         1609
  C:1666H         LINE#         1611
  C:166CH         LINE#         1612
  C:1672H         LINE#         1614
  C:1679H         LINE#         1615
  C:1680H         LINE#         1616
  C:1687H         LINE#         1617
  C:168EH         LINE#         1620
  C:1691H         LINE#         1621
  C:1698H         LINE#         1622
  C:16A4H         LINE#         1624
  C:16A9H         LINE#         1625
  C:16A9H         LINE#         1626
  C:16B0H         LINE#         1627
  C:16B5H         LINE#         1628
  C:16BCH         LINE#         1631
  C:16BFH         LINE#         1632
  C:16C6H         LINE#         1633
  C:16D2H         LINE#         1634
  C:16D7H         LINE#         1635
  C:16D7H         LINE#         1636
  C:16DEH         LINE#         1637
  C:16E3H         LINE#         1638
  C:16EAH         LINE#         1639
  C:16EDH         LINE#         1640
  C:16F4H         LINE#         1641
  C:1700H         LINE#         1643
  C:1705H         LINE#         1644
  C:1705H         LINE#         1645
  C:170BH         LINE#         1646
  C:1711H         LINE#         1648
  C:1718H         LINE#         1649
  C:171FH         LINE#         1650
  C:1722H         LINE#         1651
  C:1729H         LINE#         1652
  C:1735H         LINE#         1653
  C:173AH         LINE#         1654
  C:173AH         LINE#         1655
  C:1741H         LINE#         1656
  C:1748H         LINE#         1658
BL51 BANKED LINKER/LOCATER V6.00                                                      09/09/2017  17:29:44  PAGE 103


  C:174BH         LINE#         1659
  C:1752H         LINE#         1660
  C:175EH         LINE#         1663
  C:1763H         LINE#         1664
  C:1763H         LINE#         1665
  C:176AH         LINE#         1666
  C:1771H         LINE#         1667
  C:1776H         LINE#         1669
  C:177CH         LINE#         1670
  C:1781H         LINE#         1671
  C:1785H         LINE#         1673
  C:1789H         LINE#         1674
  C:178EH         LINE#         1675
  C:1792H         LINE#         1677
  C:1795H         LINE#         1678
  C:1798H         LINE#         1679
  C:17A4H         LINE#         1681
  C:17A9H         LINE#         1682
  C:17A9H         LINE#         1683
  C:17B0H         LINE#         1684
  C:17B7H         LINE#         1685
  C:17BCH         LINE#         1686
  C:17C2H         LINE#         1687
  C:17C7H         LINE#         1688
  C:17CBH         LINE#         1690
  C:17CFH         LINE#         1691
  C:17D4H         LINE#         1692
  C:17D8H         LINE#         1694
  C:17DBH         LINE#         1695
  C:17DEH         LINE#         1696
  C:17EAH         LINE#         1697
  C:17EFH         LINE#         1698
  C:17EFH         LINE#         1700
  C:17F6H         LINE#         1701
  C:17FDH         LINE#         1702
  C:1803H         LINE#         1703
  C:1808H         LINE#         1704
  C:180CH         LINE#         1706
  C:1810H         LINE#         1707
  C:1815H         LINE#         1708
  C:1819H         LINE#         1711
  C:181CH         LINE#         1712
  C:181FH         LINE#         1713
  C:182BH         LINE#         1714
  C:1830H         LINE#         1715
  C:1830H         LINE#         1716
  C:1837H         LINE#         1717
  C:183EH         LINE#         1718
  C:1844H         LINE#         1719
  C:1849H         LINE#         1720
  C:184DH         LINE#         1722
  C:1851H         LINE#         1723
  C:1856H         LINE#         1724
  C:185AH         LINE#         1726
  C:185DH         LINE#         1727
  C:1860H         LINE#         1728
  C:186CH         LINE#         1730
BL51 BANKED LINKER/LOCATER V6.00                                                      09/09/2017  17:29:44  PAGE 104


  C:1871H         LINE#         1731
  C:1871H         LINE#         1733
  C:1878H         LINE#         1734
  C:187FH         LINE#         1735
  C:1885H         LINE#         1736
  C:188AH         LINE#         1737
  C:188EH         LINE#         1739
  C:1892H         LINE#         1740
  C:1897H         LINE#         1741
  C:189BH         LINE#         1744
  C:189EH         LINE#         1745
  C:18A1H         LINE#         1746
  C:18ADH         LINE#         1748
  C:18B2H         LINE#         1749
  C:18B2H         LINE#         1750
  C:18B9H         LINE#         1751
  C:18C0H         LINE#         1752
  C:18C6H         LINE#         1753
  C:18CBH         LINE#         1754
  C:18CFH         LINE#         1756
  C:18D3H         LINE#         1757
  C:18D8H         LINE#         1758
  C:18DCH         LINE#         1760
  C:18DFH         LINE#         1761
  C:18E2H         LINE#         1762
  C:18EEH         LINE#         1764
  C:18F3H         LINE#         1765
  C:18F3H         LINE#         1766
  C:18FAH         LINE#         1767
  C:1901H         LINE#         1770
  C:1904H         LINE#         1771
  C:1907H         LINE#         1772
  C:1913H         LINE#         1776
  C:1918H         LINE#         1778
  C:1918H         LINE#         1779
  C:191EH         LINE#         1780
  C:1925H         LINE#         1781
  C:192CH         LINE#         1783
  C:192FH         LINE#         1784
  C:1932H         LINE#         1785
  C:193EH         LINE#         1787
  C:1943H         LINE#         1788
  C:1943H         LINE#         1789
  C:1949H         LINE#         1790
  C:1950H         LINE#         1791
  C:1957H         LINE#         1793
  C:195AH         LINE#         1794
  C:195DH         LINE#         1795
  C:1969H         LINE#         1796
  C:196EH         LINE#         1798
  C:196EH         LINE#         1799
  C:1974H         LINE#         1800
  C:197BH         LINE#         1801
  C:1980H         LINE#         1804
  C:1983H         LINE#         1806
  C:1986H         LINE#         1808
  C:1992H         LINE#         1809
BL51 BANKED LINKER/LOCATER V6.00                                                      09/09/2017  17:29:44  PAGE 105


  C:1997H         LINE#         1811
  C:1997H         LINE#         1812
  C:199DH         LINE#         1813
  C:19A4H         LINE#         1814
  C:19A9H         LINE#         1817
  C:19ACH         LINE#         1818
  C:19AFH         LINE#         1819
  C:19BBH         LINE#         1820
  C:19C0H         LINE#         1821
  C:19C0H         LINE#         1823
  C:19C7H         LINE#         1824
  C:19CEH         LINE#         1827
  C:19D1H         LINE#         1828
  C:19D4H         LINE#         1829
  C:19E0H         LINE#         1831
  C:19E5H         LINE#         1832
  C:19E5H         LINE#         1833
  C:19ECH         LINE#         1834
  C:19F3H         LINE#         1835
  C:19F8H         LINE#         1836
  C:19FFH         LINE#         1838
  C:1A02H         LINE#         1839
  C:1A09H         LINE#         1840
  C:1A15H         LINE#         1842
  C:1A1AH         LINE#         1843
  C:1A1AH         LINE#         1845
  C:1A21H         LINE#         1846
  C:1A28H         LINE#         1847
  C:1A2FH         LINE#         1849
  C:1A32H         LINE#         1850
  C:1A39H         LINE#         1851
  C:1A45H         LINE#         1854
  C:1A4AH         LINE#         1855
  C:1A4AH         LINE#         1856
  C:1A51H         LINE#         1857
  C:1A58H         LINE#         1858
  C:1A5FH         LINE#         1860
  C:1A62H         LINE#         1861
  C:1A69H         LINE#         1862
  C:1A75H         LINE#         1864
  C:1A7AH         LINE#         1865
  C:1A7AH         LINE#         1866
  C:1A81H         LINE#         1867
  C:1A88H         LINE#         1868
  C:1A8FH         LINE#         1870
  C:1A92H         LINE#         1871
  C:1A99H         LINE#         1872
  C:1AA5H         LINE#         1874
  C:1AAAH         LINE#         1875
  C:1AAAH         LINE#         1876
  C:1AB1H         LINE#         1877
  C:1AB8H         LINE#         1878
  C:1ABFH         LINE#         1880
  C:1AC2H         LINE#         1881
  C:1AC9H         LINE#         1882
  C:1AD5H         LINE#         1884
  C:1ADAH         LINE#         1885
BL51 BANKED LINKER/LOCATER V6.00                                                      09/09/2017  17:29:44  PAGE 106


  C:1ADAH         LINE#         1886
  C:1AE1H         LINE#         1887
  C:1AE8H         LINE#         1888
  C:1AEBH         LINE#         1889
  C:1AF2H         LINE#         1890
  C:1AFEH         LINE#         1891
  C:1B03H         LINE#         1894
  C:1B0DH         LINE#         1895
  C:1B16H         LINE#         1896
  C:1B20H         LINE#         1898
  C:1B25H         LINE#         1899
  C:1B2EH         LINE#         1900
  C:1B38H         LINE#         1901
  C:1B42H         LINE#         1903
  C:1B45H         LINE#         1904
  -------         ENDPROC       WUDAO
  -------         PROC          FUWEI
  C:DCCDH         LINE#         1914
  C:DCCDH         LINE#         1915
  C:DCCDH         LINE#         1916
  C:DD3CH         LINE#         1917
  -------         ENDPROC       FUWEI
  -------         PROC          ZUOGOUQIU
  C:B804H         LINE#         1925
  C:B804H         LINE#         1926
  C:B804H         LINE#         1927
  C:B875H         LINE#         1928
  C:B880H         LINE#         1930
  C:B8F9H         LINE#         1931
  C:B904H         LINE#         1933
  C:B973H         LINE#         1934
  C:B97EH         LINE#         1936
  C:B981H         LINE#         1937
  -------         ENDPROC       ZUOGOUQIU
  -------         PROC          YOUGOUQIU
  C:B98CH         LINE#         1946
  C:B98CH         LINE#         1947
  C:B98CH         LINE#         1948
  C:B9DDH         LINE#         1949
  C:B9E8H         LINE#         1951
  C:BA63H         LINE#         1952
  C:BA6EH         LINE#         1954
  C:BADDH         LINE#         1955
  C:BAE8H         LINE#         1957
  C:BAEBH         LINE#         1958
  -------         ENDPROC       YOUGOUQIU
  -------         ENDMOD        BASAL

  -------         MODULE        WALKING
  C:0000H         SYMBOL        _ICE_DUMMY_
  C:E5C8H         PUBLIC        _left_forward
  C:D23CH         PUBLIC        _houtui
  C:D178H         PUBLIC        _walk
  C:E2F7H         PUBLIC        _right_down
  C:A424H         PUBLIC        kuaizou1
  C:7F7DH         PUBLIC        kuaizou2
  C:E2AEH         PUBLIC        _left_down
BL51 BANKED LINKER/LOCATER V6.00                                                      09/09/2017  17:29:44  PAGE 107


  C:84E6H         PUBLIC        houtui1
  C:8232H         PUBLIC        houtui2
  C:E796H         PUBLIC        _right_cs
  C:E75EH         PUBLIC        _left_cs
  C:E265H         PUBLIC        _right_up
  C:E21CH         PUBLIC        _left_up
  C:D72EH         PUBLIC        _Start_Status
  C:E604H         PUBLIC        _right_forward
  -------         PROC          _LEFT_CS
  X:0219H         SYMBOL        setp
  -------         DO            
  X:021AH         SYMBOL        i
  -------         ENDDO         
  C:E75EH         LINE#         14
  C:E763H         LINE#         15
  C:E763H         LINE#         16
  C:E771H         LINE#         17
  C:E771H         LINE#         18
  C:E777H         LINE#         19
  C:E77BH         LINE#         20
  C:E77FH         LINE#         21
  C:E783H         LINE#         22
  C:E786H         LINE#         23
  C:E78DH         LINE#         24
  C:E795H         LINE#         25
  -------         ENDPROC       _LEFT_CS
  -------         PROC          _RIGHT_CS
  X:0219H         SYMBOL        setp
  -------         DO            
  X:021AH         SYMBOL        i
  -------         ENDDO         
  C:E796H         LINE#         32
  C:E79BH         LINE#         33
  C:E79BH         LINE#         34
  C:E7A9H         LINE#         35
  C:E7A9H         LINE#         36
  C:E7AFH         LINE#         37
  C:E7B3H         LINE#         38
  C:E7B7H         LINE#         39
  C:E7BBH         LINE#         40
  C:E7BEH         LINE#         41
  C:E7C5H         LINE#         42
  C:E7CDH         LINE#         43
  -------         ENDPROC       _RIGHT_CS
  -------         PROC          _LEFT_UP
  X:0219H         SYMBOL        setp
  -------         DO            
  X:021AH         SYMBOL        i
  -------         ENDDO         
  C:E21CH         LINE#         50
  C:E221H         LINE#         51
  C:E221H         LINE#         52
  C:E22FH         LINE#         53
  C:E22FH         LINE#         54
  C:E236H         LINE#         55
  C:E23BH         LINE#         56
  C:E240H         LINE#         57
BL51 BANKED LINKER/LOCATER V6.00                                                      09/09/2017  17:29:44  PAGE 108


  C:E246H         LINE#         58
  C:E24AH         LINE#         59
  C:E24EH         LINE#         60
  C:E252H         LINE#         62
  C:E255H         LINE#         63
  C:E25CH         LINE#         64
  C:E264H         LINE#         65
  -------         ENDPROC       _LEFT_UP
  -------         PROC          _RIGHT_UP
  X:0219H         SYMBOL        setp
  -------         DO            
  X:021AH         SYMBOL        i
  -------         ENDDO         
  C:E265H         LINE#         72
  C:E26AH         LINE#         73
  C:E26AH         LINE#         74
  C:E278H         LINE#         75
  C:E278H         LINE#         76
  C:E27EH         LINE#         77
  C:E282H         LINE#         78
  C:E286H         LINE#         79
  C:E28AH         LINE#         80
  C:E291H         LINE#         81
  C:E296H         LINE#         82
  C:E29BH         LINE#         83
  C:E29EH         LINE#         84
  C:E2A5H         LINE#         85
  C:E2ADH         LINE#         86
  -------         ENDPROC       _RIGHT_UP
  -------         PROC          _LEFT_FORWARD
  X:0219H         SYMBOL        setp
  -------         DO            
  X:021AH         SYMBOL        i
  -------         ENDDO         
  C:E5C8H         LINE#         93
  C:E5CDH         LINE#         94
  C:E5CDH         LINE#         95
  C:E5DBH         LINE#         96
  C:E5DBH         LINE#         97
  C:E5E1H         LINE#         98
  C:E5E7H         LINE#         99
  C:E5EBH         LINE#         100
  C:E5F1H         LINE#         101
  C:E5F4H         LINE#         102
  C:E5FBH         LINE#         103
  C:E603H         LINE#         104
  -------         ENDPROC       _LEFT_FORWARD
  -------         PROC          _RIGHT_FORWARD
  X:0219H         SYMBOL        setp
  -------         DO            
  X:021AH         SYMBOL        i
  -------         ENDDO         
  C:E604H         LINE#         111
  C:E609H         LINE#         112
  C:E609H         LINE#         113
  C:E617H         LINE#         114
  C:E617H         LINE#         115
BL51 BANKED LINKER/LOCATER V6.00                                                      09/09/2017  17:29:44  PAGE 109


  C:E61DH         LINE#         116
  C:E623H         LINE#         117
  C:E627H         LINE#         118
  C:E62DH         LINE#         119
  C:E630H         LINE#         120
  C:E637H         LINE#         121
  C:E63FH         LINE#         122
  -------         ENDPROC       _RIGHT_FORWARD
  -------         PROC          _LEFT_DOWN
  X:0219H         SYMBOL        setp
  -------         DO            
  X:021AH         SYMBOL        i
  -------         ENDDO         
  C:E2AEH         LINE#         129
  C:E2B3H         LINE#         130
  C:E2B3H         LINE#         131
  C:E2C1H         LINE#         132
  C:E2C1H         LINE#         133
  C:E2C8H         LINE#         134
  C:E2CDH         LINE#         135
  C:E2D2H         LINE#         136
  C:E2D8H         LINE#         137
  C:E2DCH         LINE#         138
  C:E2E0H         LINE#         139
  C:E2E4H         LINE#         140
  C:E2E7H         LINE#         141
  C:E2EEH         LINE#         142
  C:E2F6H         LINE#         143
  -------         ENDPROC       _LEFT_DOWN
  -------         PROC          _RIGHT_DOWN
  X:0219H         SYMBOL        setp
  -------         DO            
  X:021AH         SYMBOL        i
  -------         ENDDO         
  C:E2F7H         LINE#         150
  C:E2FCH         LINE#         151
  C:E2FCH         LINE#         152
  C:E30AH         LINE#         153
  C:E30AH         LINE#         154
  C:E310H         LINE#         155
  C:E314H         LINE#         156
  C:E318H         LINE#         157
  C:E31CH         LINE#         158
  C:E323H         LINE#         159
  C:E328H         LINE#         160
  C:E32DH         LINE#         161
  C:E330H         LINE#         162
  C:E337H         LINE#         163
  C:E33FH         LINE#         164
  -------         ENDPROC       _RIGHT_DOWN
  -------         PROC          _WALK
  X:0217H         SYMBOL        setp
  -------         DO            
  X:0218H         SYMBOL        i
  -------         ENDDO         
  C:D178H         LINE#         171
  C:D17DH         LINE#         172
BL51 BANKED LINKER/LOCATER V6.00                                                      09/09/2017  17:29:44  PAGE 110


  C:D17DH         LINE#         175
  C:D182H         LINE#         176
  C:D187H         LINE#         179
  C:D18CH         LINE#         180
  C:D191H         LINE#         181
  C:D196H         LINE#         182
  C:D19BH         LINE#         183
  C:D1A0H         LINE#         186
  C:D1B2H         LINE#         187
  C:D1B2H         LINE#         188
  C:D1B7H         LINE#         189
  C:D1BCH         LINE#         190
  C:D1C1H         LINE#         191
  C:D1C6H         LINE#         192
  C:D1CBH         LINE#         195
  C:D1D0H         LINE#         196
  C:D1D5H         LINE#         197
  C:D1DAH         LINE#         198
  C:D1DFH         LINE#         199
  C:D1E4H         LINE#         202
  C:D1E9H         LINE#         203
  C:D1EEH         LINE#         204
  C:D1F3H         LINE#         205
  C:D1F8H         LINE#         206
  C:D1FDH         LINE#         209
  C:D202H         LINE#         210
  C:D207H         LINE#         211
  C:D20CH         LINE#         212
  C:D211H         LINE#         213
  C:D216H         LINE#         215
  C:D21EH         LINE#         217
  C:D223H         LINE#         218
  C:D228H         LINE#         219
  C:D22DH         LINE#         220
  C:D232H         LINE#         221
  C:D237H         LINE#         223
  -------         ENDPROC       _WALK
  -------         PROC          _HOUTUI
  X:0216H         SYMBOL        setp
  -------         DO            
  X:0217H         SYMBOL        i
  -------         ENDDO         
  C:D23CH         LINE#         232
  C:D241H         LINE#         233
  C:D241H         LINE#         235
  C:D246H         LINE#         236
  C:D24BH         LINE#         239
  C:D250H         LINE#         240
  C:D255H         LINE#         241
  C:D25AH         LINE#         242
  C:D25FH         LINE#         243
  C:D264H         LINE#         246
  C:D276H         LINE#         247
  C:D276H         LINE#         248
  C:D27BH         LINE#         249
  C:D280H         LINE#         250
  C:D285H         LINE#         251
BL51 BANKED LINKER/LOCATER V6.00                                                      09/09/2017  17:29:44  PAGE 111


  C:D28AH         LINE#         252
  C:D28FH         LINE#         255
  C:D294H         LINE#         256
  C:D299H         LINE#         257
  C:D29EH         LINE#         258
  C:D2A3H         LINE#         259
  C:D2A8H         LINE#         262
  C:D2ADH         LINE#         263
  C:D2B2H         LINE#         264
  C:D2B7H         LINE#         265
  C:D2BCH         LINE#         266
  C:D2C1H         LINE#         269
  C:D2C6H         LINE#         270
  C:D2CBH         LINE#         271
  C:D2D0H         LINE#         272
  C:D2D5H         LINE#         273
  C:D2DAH         LINE#         275
  C:D2E2H         LINE#         277
  C:D2E7H         LINE#         278
  C:D2ECH         LINE#         279
  C:D2F1H         LINE#         280
  C:D2F6H         LINE#         281
  C:D2FBH         LINE#         283
  -------         ENDPROC       _HOUTUI
  -------         PROC          KUAIZOU1
  -------         DO            
  X:01E2H         SYMBOL        k
  -------         ENDDO         
  C:A424H         LINE#         292
  C:A424H         LINE#         293
  C:A424H         LINE#         295
  C:A429H         LINE#         296
  C:A4B9H         LINE#         297
  C:A4C4H         LINE#         299
  C:A565H         LINE#         300
  C:A570H         LINE#         302
  C:A611H         LINE#         303
  -------         ENDPROC       KUAIZOU1
  -------         PROC          KUAIZOU2
  -------         DO            
  X:01E2H         SYMBOL        k
  -------         ENDDO         
  C:7F7DH         LINE#         313
  C:7F7DH         LINE#         314
  C:7F7DH         LINE#         316
  C:7F82H         LINE#         318
  C:8020H         LINE#         319
  C:802BH         LINE#         321
  C:80CEH         LINE#         322
  C:80D9H         LINE#         323
  C:80DEH         LINE#         324
  C:817BH         LINE#         325
  C:8186H         LINE#         327
  C:8227H         LINE#         328
  -------         ENDPROC       KUAIZOU2
  -------         PROC          HOUTUI1
  -------         DO            
BL51 BANKED LINKER/LOCATER V6.00                                                      09/09/2017  17:29:44  PAGE 112


  X:01E2H         SYMBOL        k
  -------         ENDDO         
  C:84E6H         LINE#         338
  C:84E6H         LINE#         339
  C:84E6H         LINE#         341
  C:84EBH         LINE#         343
  C:857BH         LINE#         344
  C:8586H         LINE#         346
  C:8625H         LINE#         347
  C:8630H         LINE#         349
  C:86D0H         LINE#         350
  C:86DBH         LINE#         352
  C:877CH         LINE#         353
  -------         ENDPROC       HOUTUI1
  -------         PROC          HOUTUI2
  -------         DO            
  X:01E2H         SYMBOL        k
  -------         ENDDO         
  C:8232H         LINE#         362
  C:8232H         LINE#         363
  C:8232H         LINE#         365
  C:8237H         LINE#         367
  C:82D2H         LINE#         368
  C:82DDH         LINE#         370
  C:8380H         LINE#         371
  C:838BH         LINE#         372
  C:8390H         LINE#         374
  C:842FH         LINE#         375
  C:843AH         LINE#         378
  C:84DBH         LINE#         379
  -------         ENDPROC       HOUTUI2
  -------         PROC          _START_STATUS
  D:0001H         SYMBOL        k
  X:01E2H         SYMBOL        value3
  C:D72EH         LINE#         383
  C:D735H         LINE#         384
  C:D735H         LINE#         385
  C:D7C7H         LINE#         386
  -------         ENDPROC       _START_STATUS
  -------         ENDMOD        WALKING

  -------         MODULE        JIEWU
  C:0000H         SYMBOL        _ICE_DUMMY_
  C:B4CFH         PUBLIC        _wdr_pyi
  C:AFAAH         PUBLIC        hfh_l
  C:C039H         PUBLIC        dpzhch
  C:ADDCH         PUBLIC        hfh_r
  C:DB44H         PUBLIC        _qhzy_niu_2
  C:9364H         PUBLIC        yaobibaitou
  C:CF1AH         PUBLIC        jiewu
  C:CC64H         PUBLIC        _dpzc_1
  C:66F1H         PUBLIC        _shou_dd
  C:B32EH         PUBLIC        _wdl_pyi
  C:A01DH         PUBLIC        qhzy_niu
  -------         PROC          _DPZC_1
  X:0219H         SYMBOL        m
  D:0005H         SYMBOL        n
BL51 BANKED LINKER/LOCATER V6.00                                                      09/09/2017  17:29:44  PAGE 113


  -------         DO            
  X:021AH         SYMBOL        i
  -------         ENDDO         
  C:CC64H         LINE#         12
  C:CC69H         LINE#         13
  C:CC69H         LINE#         15
  C:CC7AH         LINE#         16
  C:CC7AH         LINE#         17
  C:CC7AH         LINE#         18
  C:CC7FH         LINE#         19
  C:CC7FH         LINE#         20
  C:CC8AH         LINE#         21
  C:CC9AH         LINE#         22
  C:CCA5H         LINE#         23
  C:CCA9H         LINE#         24
  C:CCACH         LINE#         25
  C:CCB3H         LINE#         26
  C:CCC0H         LINE#         28
  C:CCC0H         LINE#         30
  C:CCC0H         LINE#         31
  C:CCC5H         LINE#         32
  C:CCC5H         LINE#         33
  C:CCDCH         LINE#         34
  C:CCE0H         LINE#         35
  C:CCE3H         LINE#         36
  C:CCEAH         LINE#         37
  C:CCF7H         LINE#         39
  C:CCF7H         LINE#         41
  C:CCF7H         LINE#         42
  C:CD06H         LINE#         43
  C:CD06H         LINE#         44
  C:CD11H         LINE#         46
  C:CD15H         LINE#         47
  C:CD15H         LINE#         48
  C:CD2CH         LINE#         49
  C:CD32H         LINE#         50
  C:CD32H         LINE#         52
  C:CD3EH         LINE#         53
  C:CD3EH         LINE#         54
  C:CD44H         LINE#         55
  C:CD44H         LINE#         56
  C:CD47H         LINE#         57
  C:CD4EH         LINE#         58
  C:CD56H         LINE#         60
  C:CD56H         LINE#         61
  C:CD56H         LINE#         62
  C:CD56H         LINE#         63
  C:CD56H         LINE#         64
  -------         ENDPROC       _DPZC_1
  -------         PROC          YAOBIBAITOU
  -------         DO            
  X:0216H         SYMBOL        i
  X:0217H         SYMBOL        j
  X:0218H         SYMBOL        k
  -------         ENDDO         
  C:9364H         LINE#         71
  C:9364H         LINE#         72
BL51 BANKED LINKER/LOCATER V6.00                                                      09/09/2017  17:29:44  PAGE 114


  C:9364H         LINE#         74
  C:9369H         LINE#         75
  C:9369H         LINE#         76
  C:9370H         LINE#         77
  C:9376H         LINE#         79
  C:937BH         LINE#         80
  C:9381H         LINE#         82
  C:9386H         LINE#         83
  C:938BH         LINE#         85
  C:938EH         LINE#         86
  C:9395H         LINE#         87
  C:93A1H         LINE#         88
  C:93A6H         LINE#         89
  C:93A6H         LINE#         90
  C:93ABH         LINE#         91
  C:93ABH         LINE#         92
  C:93B3H         LINE#         93
  C:93BDH         LINE#         94
  C:93C7H         LINE#         95
  C:93CFH         LINE#         96
  C:93D9H         LINE#         98
  C:93DCH         LINE#         99
  C:93E3H         LINE#         100
  C:93E8H         LINE#         103
  C:93EFH         LINE#         104
  C:93F4H         LINE#         105
  C:93FCH         LINE#         106
  C:93FFH         LINE#         107
  C:9406H         LINE#         108
  C:940BH         LINE#         110
  C:9417H         LINE#         112
  C:9421H         LINE#         113
  C:942BH         LINE#         114
  C:9435H         LINE#         115
  C:9438H         LINE#         116
  C:943FH         LINE#         117
  C:9444H         LINE#         118
  C:9453H         LINE#         120
  C:9458H         LINE#         121
  C:9458H         LINE#         122
  C:945FH         LINE#         123
  C:9466H         LINE#         124
  C:946AH         LINE#         126
  C:946DH         LINE#         127
  C:9474H         LINE#         129
  C:9480H         LINE#         133
  C:9485H         LINE#         134
  C:9485H         LINE#         135
  C:948CH         LINE#         136
  C:9492H         LINE#         138
  C:9497H         LINE#         139
  C:949DH         LINE#         141
  C:94A2H         LINE#         142
  C:94A7H         LINE#         144
  C:94AAH         LINE#         145
  C:94B1H         LINE#         147
  C:94BDH         LINE#         149
BL51 BANKED LINKER/LOCATER V6.00                                                      09/09/2017  17:29:44  PAGE 115


  C:94C2H         LINE#         150
  C:94C2H         LINE#         151
  C:94C7H         LINE#         152
  C:94C7H         LINE#         153
  C:94CEH         LINE#         154
  C:94D3H         LINE#         155
  C:94D8H         LINE#         156
  C:94DDH         LINE#         158
  C:94E4H         LINE#         159
  C:94EBH         LINE#         160
  C:94EEH         LINE#         161
  C:94F5H         LINE#         162
  C:94FAH         LINE#         163
  C:9506H         LINE#         164
  C:950BH         LINE#         165
  C:950BH         LINE#         166
  C:9512H         LINE#         167
  C:9517H         LINE#         168
  C:951CH         LINE#         169
  C:9521H         LINE#         171
  C:9528H         LINE#         172
  C:952FH         LINE#         173
  C:9532H         LINE#         174
  C:9539H         LINE#         175
  C:953EH         LINE#         176
  C:954AH         LINE#         178
  C:9552H         LINE#         179
  C:955AH         LINE#         180
  C:9562H         LINE#         181
  C:956AH         LINE#         183
  C:9572H         LINE#         184
  C:957AH         LINE#         186
  C:957DH         LINE#         187
  C:9584H         LINE#         188
  C:9589H         LINE#         189
  C:9598H         LINE#         190
  -------         ENDPROC       YAOBIBAITOU
  -------         PROC          DPZHCH
  -------         DO            
  X:0216H         SYMBOL        i
  X:0217H         SYMBOL        j
  X:0218H         SYMBOL        k
  -------         ENDDO         
  C:C039H         LINE#         198
  C:C039H         LINE#         199
  C:C039H         LINE#         201
  C:C03EH         LINE#         202
  C:C043H         LINE#         203
  C:C043H         LINE#         204
  C:C04AH         LINE#         205
  C:C051H         LINE#         206
  C:C054H         LINE#         207
  C:C05BH         LINE#         208
  C:C067H         LINE#         209
  C:C076H         LINE#         210
  C:C076H         LINE#         211
  C:C07BH         LINE#         212
BL51 BANKED LINKER/LOCATER V6.00                                                      09/09/2017  17:29:44  PAGE 116


  C:C083H         LINE#         213
  C:C088H         LINE#         214
  C:C088H         LINE#         215
  C:C08EH         LINE#         216
  C:C093H         LINE#         217
  C:C093H         LINE#         218
  C:C099H         LINE#         219
  C:C09EH         LINE#         220
  C:C0A2H         LINE#         222
  C:C0A9H         LINE#         223
  C:C0B0H         LINE#         226
  C:C0B3H         LINE#         227
  C:C0BDH         LINE#         229
  C:C0C3H         LINE#         230
  C:C0CFH         LINE#         232
  C:C0D5H         LINE#         233
  C:C0DAH         LINE#         234
  C:C0DAH         LINE#         235
  C:C0E0H         LINE#         236
  C:C0E5H         LINE#         237
  C:C0E9H         LINE#         238
  C:C0F0H         LINE#         239
  C:C0F7H         LINE#         242
  C:C0FAH         LINE#         243
  C:C104H         LINE#         245
  C:C10AH         LINE#         246
  C:C116H         LINE#         247
  C:C125H         LINE#         249
  C:C134H         LINE#         250
  C:C134H         LINE#         251
  C:C13EH         LINE#         252
  C:C146H         LINE#         253
  C:C14BH         LINE#         254
  C:C14BH         LINE#         255
  C:C152H         LINE#         256
  C:C159H         LINE#         257
  C:C15CH         LINE#         258
  C:C163H         LINE#         259
  C:C16FH         LINE#         260
  -------         ENDPROC       DPZHCH
  -------         PROC          _SHOU_DD
  X:0216H         SYMBOL        a
  -------         DO            
  X:0217H         SYMBOL        i
  X:0218H         SYMBOL        j
  X:0219H         SYMBOL        m
  -------         ENDDO         
  C:66F1H         LINE#         269
  C:66F6H         LINE#         270
  C:66F6H         LINE#         271
  C:66FBH         LINE#         272
  C:66FFH         LINE#         273
  C:66FFH         LINE#         274
  C:6705H         LINE#         275
  C:6709H         LINE#         276
  C:670FH         LINE#         277
  C:6715H         LINE#         278
BL51 BANKED LINKER/LOCATER V6.00                                                      09/09/2017  17:29:44  PAGE 117


  C:6718H         LINE#         279
  C:671FH         LINE#         280
  C:672BH         LINE#         282
  C:6730H         LINE#         283
  C:6730H         LINE#         284
  C:6737H         LINE#         285
  C:673BH         LINE#         286
  C:673EH         LINE#         287
  C:6745H         LINE#         288
  C:6751H         LINE#         290
  C:6758H         LINE#         291
  C:675BH         LINE#         292
  C:6762H         LINE#         294
  C:6777H         LINE#         295
  C:6777H         LINE#         296
  C:6786H         LINE#         297
  C:6786H         LINE#         298
  C:678CH         LINE#         300
  C:6790H         LINE#         301
  C:6790H         LINE#         302
  C:6796H         LINE#         303
  C:6796H         LINE#         305
  C:6799H         LINE#         306
  C:67A0H         LINE#         307
  C:67A8H         LINE#         309
  C:67B7H         LINE#         310
  C:67B7H         LINE#         311
  C:67BDH         LINE#         312
  C:67C2H         LINE#         314
  C:67C6H         LINE#         315
  C:67C6H         LINE#         316
  C:67CCH         LINE#         317
  C:67CCH         LINE#         319
  C:67CFH         LINE#         320
  C:67D6H         LINE#         321
  C:67DEH         LINE#         323
  C:67EDH         LINE#         324
  C:67EDH         LINE#         325
  C:67F3H         LINE#         326
  C:67F8H         LINE#         327
  C:67FCH         LINE#         328
  C:6801H         LINE#         330
  C:6805H         LINE#         331
  C:6805H         LINE#         332
  C:6809H         LINE#         333
  C:6809H         LINE#         335
  C:680CH         LINE#         336
  C:6813H         LINE#         337
  C:681BH         LINE#         339
  C:682AH         LINE#         340
  C:682AH         LINE#         341
  C:6830H         LINE#         342
  C:6834H         LINE#         344
  C:6838H         LINE#         345
  C:6838H         LINE#         346
  C:683CH         LINE#         347
  C:683CH         LINE#         349
BL51 BANKED LINKER/LOCATER V6.00                                                      09/09/2017  17:29:44  PAGE 118


  C:683FH         LINE#         350
  C:6846H         LINE#         351
  C:684EH         LINE#         353
  C:685DH         LINE#         354
  C:685DH         LINE#         355
  C:6863H         LINE#         357
  C:6867H         LINE#         358
  C:6867H         LINE#         359
  C:686BH         LINE#         360
  C:686BH         LINE#         362
  C:686EH         LINE#         363
  C:6875H         LINE#         364
  C:687DH         LINE#         366
  C:6884H         LINE#         367
  C:6889H         LINE#         368
  C:688CH         LINE#         369
  C:6893H         LINE#         372
  C:68A2H         LINE#         373
  C:68A2H         LINE#         374
  C:68A8H         LINE#         376
  C:68ACH         LINE#         377
  C:68ACH         LINE#         378
  C:68B0H         LINE#         379
  C:68B0H         LINE#         381
  C:68B3H         LINE#         382
  C:68BAH         LINE#         383
  C:68C2H         LINE#         385
  C:68D1H         LINE#         386
  C:68D1H         LINE#         387
  C:68D7H         LINE#         388
  C:68DCH         LINE#         390
  C:68E0H         LINE#         391
  C:68E0H         LINE#         392
  C:68E4H         LINE#         393
  C:68E4H         LINE#         395
  C:68E7H         LINE#         396
  C:68EEH         LINE#         397
  C:68F6H         LINE#         399
  C:6905H         LINE#         400
  C:6905H         LINE#         401
  C:690BH         LINE#         402
  C:6910H         LINE#         403
  C:6916H         LINE#         404
  C:691BH         LINE#         406
  C:691FH         LINE#         407
  C:691FH         LINE#         408
  C:6925H         LINE#         409
  C:6925H         LINE#         411
  C:6928H         LINE#         412
  C:692FH         LINE#         413
  C:6937H         LINE#         415
  C:6946H         LINE#         416
  C:6946H         LINE#         417
  C:694CH         LINE#         418
  C:6950H         LINE#         420
  C:6954H         LINE#         421
  C:6954H         LINE#         422
BL51 BANKED LINKER/LOCATER V6.00                                                      09/09/2017  17:29:44  PAGE 119


  C:695AH         LINE#         423
  C:695AH         LINE#         425
  C:695DH         LINE#         426
  C:6964H         LINE#         427
  C:696CH         LINE#         429
  C:697BH         LINE#         430
  C:697BH         LINE#         431
  C:6981H         LINE#         433
  C:6985H         LINE#         434
  C:6985H         LINE#         435
  C:698BH         LINE#         436
  C:698BH         LINE#         438
  C:698EH         LINE#         439
  C:6995H         LINE#         440
  C:699DH         LINE#         442
  C:69A4H         LINE#         443
  C:69A9H         LINE#         444
  C:69ACH         LINE#         445
  C:69B3H         LINE#         446
  C:69BCH         LINE#         448
  C:69C3H         LINE#         449
  C:69C6H         LINE#         450
  C:69CDH         LINE#         451
  C:69D2H         LINE#         452
  C:69D2H         LINE#         453
  C:69D8H         LINE#         454
  C:69DEH         LINE#         455
  C:69E1H         LINE#         456
  C:69E8H         LINE#         457
  C:69F4H         LINE#         459
  C:6A0DH         LINE#         460
  C:6A0DH         LINE#         461
  C:6A13H         LINE#         462
  C:6A17H         LINE#         463
  C:6A1AH         LINE#         464
  C:6A21H         LINE#         465
  C:6A29H         LINE#         467
  C:6A2EH         LINE#         468
  C:6A2EH         LINE#         469
  C:6A35H         LINE#         470
  C:6A39H         LINE#         471
  C:6A3CH         LINE#         472
  C:6A43H         LINE#         473
  C:6A4FH         LINE#         474
  -------         ENDPROC       _SHOU_DD
  -------         PROC          _QHZY_NIU_2
  X:0218H         SYMBOL        m
  -------         DO            
  X:0219H         SYMBOL        i
  X:021AH         SYMBOL        j
  -------         ENDDO         
  C:DB44H         LINE#         476
  C:DB49H         LINE#         477
  C:DB49H         LINE#         479
  C:DB5BH         LINE#         480
  C:DB5BH         LINE#         481
  C:DB60H         LINE#         482
BL51 BANKED LINKER/LOCATER V6.00                                                      09/09/2017  17:29:44  PAGE 120


  C:DB60H         LINE#         483
  C:DB67H         LINE#         484
  C:DB6CH         LINE#         486
  C:DB73H         LINE#         487
  C:DB78H         LINE#         489
  C:DB7BH         LINE#         490
  C:DB82H         LINE#         491
  C:DB8EH         LINE#         493
  C:DB93H         LINE#         494
  C:DB93H         LINE#         495
  C:DB9AH         LINE#         496
  C:DB9FH         LINE#         498
  C:DBA6H         LINE#         499
  C:DBABH         LINE#         500
  C:DBAEH         LINE#         501
  C:DBB5H         LINE#         502
  C:DBC1H         LINE#         503
  C:DBC9H         LINE#         504
  -------         ENDPROC       _QHZY_NIU_2
  -------         PROC          QHZY_NIU
  -------         DO            
  X:0216H         SYMBOL        i
  X:0217H         SYMBOL        j
  -------         ENDDO         
  C:A01DH         LINE#         511
  C:A01DH         LINE#         512
  C:A01DH         LINE#         514
  C:A022H         LINE#         518
  C:A029H         LINE#         519
  C:A02CH         LINE#         520
  C:A033H         LINE#         522
  C:A038H         LINE#         523
  C:A03FH         LINE#         524
  C:A042H         LINE#         525
  C:A049H         LINE#         526
  C:A04EH         LINE#         528
  C:A055H         LINE#         529
  C:A058H         LINE#         530
  C:A05FH         LINE#         531
  C:A064H         LINE#         533
  C:A06BH         LINE#         534
  C:A06EH         LINE#         535
  C:A075H         LINE#         536
  C:A07AH         LINE#         538
  C:A07FH         LINE#         540
  C:A086H         LINE#         541
  C:A08DH         LINE#         542
  C:A090H         LINE#         543
  C:A097H         LINE#         544
  C:A09CH         LINE#         545
  C:A0A1H         LINE#         547
  C:A0A8H         LINE#         548
  C:A0AFH         LINE#         549
  C:A0B2H         LINE#         550
  C:A0B9H         LINE#         551
  C:A0BEH         LINE#         553
  C:A0C3H         LINE#         554
BL51 BANKED LINKER/LOCATER V6.00                                                      09/09/2017  17:29:44  PAGE 121


  C:A0C3H         LINE#         555
  C:A0C8H         LINE#         556
  C:A0CDH         LINE#         557
  C:A0D2H         LINE#         558
  C:A0D7H         LINE#         560
  C:A0E3H         LINE#         562
  C:A0EAH         LINE#         563
  C:A0EDH         LINE#         564
  C:A0F4H         LINE#         565
  C:A0F9H         LINE#         567
  C:A100H         LINE#         568
  C:A103H         LINE#         569
  C:A10AH         LINE#         571
  C:A10FH         LINE#         573
  C:A114H         LINE#         574
  C:A114H         LINE#         575
  C:A119H         LINE#         576
  C:A119H         LINE#         577
  C:A11FH         LINE#         578
  C:A123H         LINE#         580
  C:A127H         LINE#         581
  C:A12BH         LINE#         583
  C:A12EH         LINE#         584
  C:A135H         LINE#         586
  C:A141H         LINE#         588
  C:A146H         LINE#         589
  C:A146H         LINE#         590
  C:A14CH         LINE#         591
  C:A150H         LINE#         593
  C:A154H         LINE#         594
  C:A158H         LINE#         596
  C:A15BH         LINE#         597
  C:A162H         LINE#         598
  C:A16EH         LINE#         600
  C:A173H         LINE#         601
  C:A173H         LINE#         602
  C:A179H         LINE#         603
  C:A17DH         LINE#         604
  C:A181H         LINE#         605
  C:A185H         LINE#         607
  C:A188H         LINE#         608
  C:A18FH         LINE#         609
  C:A19BH         LINE#         611
  C:A1A0H         LINE#         612
  C:A1A0H         LINE#         613
  C:A1A6H         LINE#         614
  C:A1AAH         LINE#         615
  C:A1AEH         LINE#         616
  C:A1B2H         LINE#         618
  C:A1B5H         LINE#         619
  C:A1BCH         LINE#         620
  C:A1C8H         LINE#         621
  C:A1D7H         LINE#         623
  C:A1E6H         LINE#         624
  C:A1E6H         LINE#         625
  C:A1ECH         LINE#         626
  C:A1F0H         LINE#         627
BL51 BANKED LINKER/LOCATER V6.00                                                      09/09/2017  17:29:44  PAGE 122


  C:A1F6H         LINE#         628
  C:A1FCH         LINE#         629
  C:A205H         LINE#         630
  C:A205H         LINE#         631
  C:A20BH         LINE#         632
  C:A211H         LINE#         633
  C:A211H         LINE#         635
  C:A214H         LINE#         636
  C:A21BH         LINE#         637
  C:A223H         LINE#         638
  -------         ENDPROC       QHZY_NIU
  -------         PROC          HFH_R
  -------         DO            
  X:0216H         SYMBOL        i
  X:0217H         SYMBOL        j
  -------         ENDDO         
  C:ADDCH         LINE#         647
  C:ADDCH         LINE#         648
  C:ADDCH         LINE#         649
  C:ADE1H         LINE#         650
  C:ADE1H         LINE#         651
  C:ADE7H         LINE#         652
  C:ADEBH         LINE#         653
  C:ADEEH         LINE#         654
  C:ADF5H         LINE#         655
  C:AE01H         LINE#         656
  C:AE06H         LINE#         657
  C:AE06H         LINE#         658
  C:AE0DH         LINE#         659
  C:AE14H         LINE#         660
  C:AE17H         LINE#         661
  C:AE1EH         LINE#         662
  C:AE2AH         LINE#         663
  C:AE2FH         LINE#         664
  C:AE34H         LINE#         665
  C:AE39H         LINE#         666
  C:AE39H         LINE#         667
  C:AE40H         LINE#         668
  C:AE45H         LINE#         669
  C:AE4CH         LINE#         670
  C:AE53H         LINE#         671
  C:AE56H         LINE#         672
  C:AE5DH         LINE#         673
  C:AE69H         LINE#         674
  C:AE6EH         LINE#         675
  C:AE6EH         LINE#         676
  C:AE74H         LINE#         677
  C:AE79H         LINE#         678
  C:AE7DH         LINE#         679
  C:AE82H         LINE#         680
  C:AE87H         LINE#         681
  C:AE8CH         LINE#         682
  C:AE91H         LINE#         683
  C:AE96H         LINE#         684
  C:AE9DH         LINE#         685
  C:AEA2H         LINE#         686
  C:AEA7H         LINE#         687
BL51 BANKED LINKER/LOCATER V6.00                                                      09/09/2017  17:29:44  PAGE 123


  C:AEACH         LINE#         688
  C:AEB1H         LINE#         689
  C:AEB6H         LINE#         690
  C:AEBBH         LINE#         691
  C:AEBEH         LINE#         692
  C:AEC5H         LINE#         693
  C:AECAH         LINE#         695
  C:AED6H         LINE#         696
  C:AEDBH         LINE#         697
  C:AEE0H         LINE#         698
  C:AEE0H         LINE#         699
  C:AEE5H         LINE#         700
  C:AEE5H         LINE#         701
  C:AEECH         LINE#         702
  C:AEEFH         LINE#         703
  C:AEF6H         LINE#         704
  C:AF02H         LINE#         705
  C:AF07H         LINE#         706
  C:AF07H         LINE#         707
  C:AF0EH         LINE#         708
  C:AF11H         LINE#         709
  C:AF18H         LINE#         710
  C:AF24H         LINE#         711
  C:AF30H         LINE#         712
  C:AF35H         LINE#         713
  C:AF3AH         LINE#         714
  C:AF3AH         LINE#         715
  C:AF40H         LINE#         716
  C:AF45H         LINE#         717
  C:AF49H         LINE#         718
  C:AF4EH         LINE#         719
  C:AF53H         LINE#         720
  C:AF58H         LINE#         721
  C:AF5DH         LINE#         722
  C:AF62H         LINE#         723
  C:AF69H         LINE#         724
  C:AF6EH         LINE#         725
  C:AF73H         LINE#         726
  C:AF78H         LINE#         727
  C:AF7DH         LINE#         728
  C:AF82H         LINE#         729
  C:AF87H         LINE#         730
  C:AF8AH         LINE#         731
  C:AF91H         LINE#         732
  C:AF96H         LINE#         733
  C:AFA2H         LINE#         734
  C:AFA7H         LINE#         735
  -------         ENDPROC       HFH_R
  -------         PROC          HFH_L
  -------         DO            
  X:0216H         SYMBOL        i
  X:0217H         SYMBOL        j
  -------         ENDDO         
  C:AFAAH         LINE#         743
  C:AFAAH         LINE#         744
  C:AFAAH         LINE#         746
  C:AFAFH         LINE#         747
BL51 BANKED LINKER/LOCATER V6.00                                                      09/09/2017  17:29:44  PAGE 124


  C:AFAFH         LINE#         748
  C:AFB5H         LINE#         749
  C:AFB9H         LINE#         750
  C:AFBCH         LINE#         751
  C:AFC3H         LINE#         752
  C:AFCFH         LINE#         753
  C:AFD4H         LINE#         754
  C:AFD4H         LINE#         755
  C:AFDBH         LINE#         756
  C:AFE2H         LINE#         757
  C:AFE5H         LINE#         758
  C:AFECH         LINE#         759
  C:AFF8H         LINE#         760
  C:AFFDH         LINE#         761
  C:B002H         LINE#         762
  C:B007H         LINE#         763
  C:B007H         LINE#         764
  C:B00EH         LINE#         765
  C:B013H         LINE#         766
  C:B01AH         LINE#         767
  C:B021H         LINE#         768
  C:B024H         LINE#         769
  C:B02BH         LINE#         770
  C:B037H         LINE#         771
  C:B03CH         LINE#         772
  C:B03CH         LINE#         773
  C:B043H         LINE#         774
  C:B048H         LINE#         775
  C:B04DH         LINE#         776
  C:B051H         LINE#         777
  C:B056H         LINE#         778
  C:B05AH         LINE#         779
  C:B05FH         LINE#         780
  C:B064H         LINE#         781
  C:B069H         LINE#         782
  C:B06EH         LINE#         783
  C:B075H         LINE#         784
  C:B07AH         LINE#         785
  C:B07FH         LINE#         786
  C:B084H         LINE#         787
  C:B089H         LINE#         788
  C:B08CH         LINE#         789
  C:B093H         LINE#         790
  C:B098H         LINE#         791
  C:B0A4H         LINE#         792
  C:B0A9H         LINE#         793
  C:B0AEH         LINE#         794
  C:B0AEH         LINE#         795
  C:B0B3H         LINE#         796
  C:B0B3H         LINE#         797
  C:B0BAH         LINE#         798
  C:B0BDH         LINE#         799
  C:B0C4H         LINE#         801
  C:B0D0H         LINE#         802
  C:B0D5H         LINE#         803
  C:B0D5H         LINE#         804
  C:B0DCH         LINE#         805
BL51 BANKED LINKER/LOCATER V6.00                                                      09/09/2017  17:29:44  PAGE 125


  C:B0DFH         LINE#         806
  C:B0E6H         LINE#         807
  C:B0F2H         LINE#         808
  C:B0FEH         LINE#         809
  C:B103H         LINE#         810
  C:B108H         LINE#         811
  C:B108H         LINE#         812
  C:B10FH         LINE#         813
  C:B114H         LINE#         814
  C:B119H         LINE#         815
  C:B11DH         LINE#         816
  C:B122H         LINE#         817
  C:B126H         LINE#         818
  C:B12BH         LINE#         819
  C:B130H         LINE#         820
  C:B135H         LINE#         821
  C:B13AH         LINE#         822
  C:B141H         LINE#         823
  C:B146H         LINE#         824
  C:B14BH         LINE#         825
  C:B150H         LINE#         826
  C:B155H         LINE#         827
  C:B158H         LINE#         828
  C:B15FH         LINE#         829
  C:B164H         LINE#         830
  C:B170H         LINE#         831
  C:B175H         LINE#         832
  -------         ENDPROC       HFH_L
  -------         PROC          _WDL_PYI
  X:0216H         SYMBOL        step
  -------         DO            
  X:0217H         SYMBOL        j
  X:0218H         SYMBOL        i
  -------         ENDDO         
  C:B32EH         LINE#         840
  C:B333H         LINE#         841
  C:B333H         LINE#         843
  C:B338H         LINE#         844
  C:B33DH         LINE#         845
  C:B33DH         LINE#         846
  C:B344H         LINE#         847
  C:B34BH         LINE#         848
  C:B34EH         LINE#         849
  C:B355H         LINE#         850
  C:B361H         LINE#         851
  C:B366H         LINE#         853
  C:B37BH         LINE#         854
  C:B37BH         LINE#         855
  C:B380H         LINE#         856
  C:B380H         LINE#         857
  C:B386H         LINE#         858
  C:B38AH         LINE#         860
  C:B38EH         LINE#         861
  C:B392H         LINE#         863
  C:B395H         LINE#         864
  C:B39CH         LINE#         866
  C:B3A8H         LINE#         867
BL51 BANKED LINKER/LOCATER V6.00                                                      09/09/2017  17:29:44  PAGE 126


  C:B3ADH         LINE#         868
  C:B3ADH         LINE#         869
  C:B3B3H         LINE#         870
  C:B3B7H         LINE#         871
  C:B3BAH         LINE#         872
  C:B3BEH         LINE#         873
  C:B3C4H         LINE#         874
  C:B3C8H         LINE#         875
  C:B3CBH         LINE#         876
  C:B3D2H         LINE#         877
  C:B3DEH         LINE#         879
  C:B3E3H         LINE#         880
  C:B3E3H         LINE#         881
  C:B3E9H         LINE#         882
  C:B3EDH         LINE#         883
  C:B3F0H         LINE#         884
  C:B3F4H         LINE#         885
  C:B3FAH         LINE#         886
  C:B3FEH         LINE#         887
  C:B401H         LINE#         888
  C:B408H         LINE#         889
  C:B414H         LINE#         891
  C:B419H         LINE#         892
  C:B419H         LINE#         893
  C:B41FH         LINE#         894
  C:B423H         LINE#         896
  C:B427H         LINE#         897
  C:B42BH         LINE#         898
  C:B42EH         LINE#         899
  C:B435H         LINE#         900
  C:B441H         LINE#         901
  C:B446H         LINE#         902
  C:B446H         LINE#         903
  C:B44CH         LINE#         904
  C:B450H         LINE#         905
  C:B453H         LINE#         906
  C:B45AH         LINE#         907
  C:B466H         LINE#         908
  C:B46BH         LINE#         909
  C:B46BH         LINE#         910
  C:B471H         LINE#         911
  C:B475H         LINE#         913
  C:B479H         LINE#         914
  C:B47DH         LINE#         915
  C:B480H         LINE#         916
  C:B487H         LINE#         917
  C:B493H         LINE#         918
  C:B49CH         LINE#         919
  C:B4A1H         LINE#         920
  C:B4A6H         LINE#         921
  C:B4A6H         LINE#         922
  C:B4ADH         LINE#         923
  C:B4B4H         LINE#         924
  C:B4B7H         LINE#         925
  C:B4BEH         LINE#         926
  C:B4CAH         LINE#         927
  -------         ENDPROC       _WDL_PYI
BL51 BANKED LINKER/LOCATER V6.00                                                      09/09/2017  17:29:44  PAGE 127


  -------         PROC          _WDR_PYI
  X:0216H         SYMBOL        step
  -------         DO            
  X:0217H         SYMBOL        j
  X:0218H         SYMBOL        i
  -------         ENDDO         
  C:B4CFH         LINE#         936
  C:B4D4H         LINE#         937
  C:B4D4H         LINE#         940
  C:B4D9H         LINE#         941
  C:B4DEH         LINE#         942
  C:B4DEH         LINE#         943
  C:B4E5H         LINE#         944
  C:B4ECH         LINE#         945
  C:B4EFH         LINE#         946
  C:B4F6H         LINE#         947
  C:B502H         LINE#         948
  C:B507H         LINE#         950
  C:B51CH         LINE#         951
  C:B51CH         LINE#         952
  C:B521H         LINE#         953
  C:B521H         LINE#         954
  C:B527H         LINE#         955
  C:B52BH         LINE#         957
  C:B52FH         LINE#         958
  C:B533H         LINE#         960
  C:B536H         LINE#         961
  C:B53DH         LINE#         964
  C:B549H         LINE#         965
  C:B54EH         LINE#         966
  C:B54EH         LINE#         967
  C:B554H         LINE#         968
  C:B558H         LINE#         969
  C:B55BH         LINE#         970
  C:B55FH         LINE#         971
  C:B565H         LINE#         972
  C:B569H         LINE#         974
  C:B56CH         LINE#         975
  C:B573H         LINE#         976
  C:B57FH         LINE#         978
  C:B584H         LINE#         979
  C:B584H         LINE#         980
  C:B58AH         LINE#         981
  C:B58EH         LINE#         982
  C:B591H         LINE#         983
  C:B595H         LINE#         984
  C:B59BH         LINE#         985
  C:B59FH         LINE#         987
  C:B5A2H         LINE#         988
  C:B5A9H         LINE#         989
  C:B5B5H         LINE#         991
  C:B5BAH         LINE#         992
  C:B5BAH         LINE#         993
  C:B5C0H         LINE#         994
  C:B5C4H         LINE#         996
  C:B5C8H         LINE#         997
  C:B5CCH         LINE#         998
BL51 BANKED LINKER/LOCATER V6.00                                                      09/09/2017  17:29:44  PAGE 128


  C:B5CFH         LINE#         999
  C:B5D6H         LINE#         1001
  C:B5E2H         LINE#         1002
  C:B5E7H         LINE#         1003
  C:B5E7H         LINE#         1004
  C:B5EDH         LINE#         1005
  C:B5F1H         LINE#         1006
  C:B5F4H         LINE#         1007
  C:B5FBH         LINE#         1009
  C:B607H         LINE#         1010
  C:B60CH         LINE#         1011
  C:B60CH         LINE#         1012
  C:B612H         LINE#         1013
  C:B616H         LINE#         1015
  C:B61AH         LINE#         1016
  C:B61EH         LINE#         1018
  C:B621H         LINE#         1019
  C:B628H         LINE#         1020
  C:B634H         LINE#         1021
  C:B63DH         LINE#         1022
  C:B642H         LINE#         1023
  C:B647H         LINE#         1024
  C:B647H         LINE#         1025
  C:B64EH         LINE#         1026
  C:B655H         LINE#         1027
  C:B658H         LINE#         1028
  C:B65FH         LINE#         1029
  C:B66BH         LINE#         1030
  -------         ENDPROC       _WDR_PYI
  -------         PROC          JIEWU
  C:CF1AH         LINE#         1040
  C:CF1AH         LINE#         1041
  C:CF1DH         LINE#         1042
  C:CF22H         LINE#         1043
  C:CF25H         LINE#         1044
  C:CF2AH         LINE#         1045
  C:CF2DH         LINE#         1046
  C:CF32H         LINE#         1047
  C:CF37H         LINE#         1048
  C:CF3CH         LINE#         1049
  C:CF3FH         LINE#         1050
  C:CF44H         LINE#         1051
  C:CF80H         LINE#         1052
  C:CF80H         LINE#         1053
  C:CF80H         LINE#         1054
  C:CF80H         LINE#         1055
  C:CF80H         LINE#         1056
  C:CF80H         LINE#         1057
  C:CF85H         LINE#         1058
  C:CF8AH         LINE#         1059
  C:CF8FH         LINE#         1060
  C:CF94H         LINE#         1061
  C:CF97H         LINE#         1062
  C:CF9CH         LINE#         1063
  C:CFA1H         LINE#         1064
  C:CFA1H         LINE#         1065
  C:CFA3H         LINE#         1066
BL51 BANKED LINKER/LOCATER V6.00                                                      09/09/2017  17:29:44  PAGE 129


  C:CFA3H         LINE#         1067
  C:CFA3H         LINE#         1068
  C:CFA3H         LINE#         1069
  C:CFA3H         LINE#         1070
  C:CFA3H         LINE#         1071
  C:CFA3H         LINE#         1072
  C:CFA8H         LINE#         1073
  C:CFADH         LINE#         1074
  C:CFB2H         LINE#         1075
  C:CFB7H         LINE#         1076
  C:CFBAH         LINE#         1077
  C:CFBFH         LINE#         1078
  C:CFC4H         LINE#         1079
  C:CFC9H         LINE#         1080
  C:CFC9H         LINE#         1081
  C:CFC9H         LINE#         1082
  C:CFC9H         LINE#         1084
  C:CFC9H         LINE#         1085
  C:CFCCH         LINE#         1086
  C:CFD1H         LINE#         1088
  C:CFD4H         LINE#         1089
  C:CFD9H         LINE#         1091
  C:CFDCH         LINE#         1092
  C:CFE1H         LINE#         1093
  C:CFE4H         LINE#         1094
  -------         ENDPROC       JIEWU
  -------         ENDMOD        JIEWU

  -------         MODULE        TICAO
  C:0000H         SYMBOL        _ICE_DUMMY_
  C:D7D7H         PUBLIC        ticao
  C:BC55H         PUBLIC        cs_xd_right
  C:BAF6H         PUBLIC        cs_xd_left
  C:4FF2H         PUBLIC        xq_td
  C:A814H         PUBLIC        py_ss_right
  C:A61CH         PUBLIC        py_ss_left
  C:AA0CH         PUBLIC        shenzhan
  C:73FCH         PUBLIC        tice_yd
  C:CD57H         PUBLIC        kuoxiong
  -------         PROC          XQ_TD
  -------         DO            
  X:0216H         SYMBOL        j
  X:0217H         SYMBOL        i
  -------         ENDDO         
  C:4FF2H         LINE#         13
  C:4FF2H         LINE#         14
  C:4FF2H         LINE#         15
  C:4FF7H         LINE#         16
  C:4FF7H         LINE#         17
  C:4FFEH         LINE#         18
  C:5005H         LINE#         19
  C:500BH         LINE#         20
  C:5011H         LINE#         21
  C:5015H         LINE#         22
  C:5019H         LINE#         23
  C:5020H         LINE#         24
  C:5025H         LINE#         25
BL51 BANKED LINKER/LOCATER V6.00                                                      09/09/2017  17:29:44  PAGE 130


  C:502AH         LINE#         26
  C:502FH         LINE#         27
  C:5032H         LINE#         28
  C:5039H         LINE#         29
  C:5045H         LINE#         31
  C:504AH         LINE#         32
  C:504AH         LINE#         33
  C:5051H         LINE#         34
  C:5058H         LINE#         35
  C:505DH         LINE#         36
  C:5060H         LINE#         37
  C:5067H         LINE#         38
  C:5073H         LINE#         39
  C:5078H         LINE#         40
  C:5078H         LINE#         41
  C:507DH         LINE#         42
  C:507DH         LINE#         43
  C:5084H         LINE#         44
  C:508BH         LINE#         45
  C:5090H         LINE#         46
  C:5093H         LINE#         47
  C:509AH         LINE#         48
  C:50A6H         LINE#         49
  C:50ABH         LINE#         50
  C:50B0H         LINE#         51
  C:50B0H         LINE#         52
  C:50B7H         LINE#         53
  C:50BEH         LINE#         54
  C:50C3H         LINE#         55
  C:50C6H         LINE#         56
  C:50CDH         LINE#         57
  C:50D9H         LINE#         58
  C:50E5H         LINE#         59
  C:50EAH         LINE#         60
  C:50EAH         LINE#         61
  C:50F1H         LINE#         62
  C:50F8H         LINE#         63
  C:50FDH         LINE#         64
  C:5100H         LINE#         65
  C:5107H         LINE#         66
  C:5113H         LINE#         68
  C:5118H         LINE#         69
  C:5118H         LINE#         70
  C:511FH         LINE#         71
  C:5126H         LINE#         72
  C:512CH         LINE#         73
  C:5132H         LINE#         74
  C:5135H         LINE#         75
  C:513CH         LINE#         76
  C:514DH         LINE#         77
  C:5152H         LINE#         78
  C:5157H         LINE#         79
  C:5157H         LINE#         80
  C:515EH         LINE#         81
  C:5163H         LINE#         82
  C:5169H         LINE#         83
  C:516FH         LINE#         84
BL51 BANKED LINKER/LOCATER V6.00                                                      09/09/2017  17:29:44  PAGE 131


  C:5172H         LINE#         85
  C:5179H         LINE#         86
  C:5185H         LINE#         87
  C:518AH         LINE#         88
  C:518AH         LINE#         89
  C:518FH         LINE#         90
  C:518FH         LINE#         91
  C:5196H         LINE#         92
  C:519DH         LINE#         93
  C:51A1H         LINE#         94
  C:51A4H         LINE#         95
  C:51ABH         LINE#         96
  C:51B7H         LINE#         97
  C:51BCH         LINE#         98
  C:51BCH         LINE#         99
  C:51C3H         LINE#         100
  C:51CAH         LINE#         101
  C:51CEH         LINE#         102
  C:51D1H         LINE#         103
  C:51D8H         LINE#         104
  C:51E4H         LINE#         105
  C:51F0H         LINE#         106
  C:51F5H         LINE#         108
  C:51FAH         LINE#         109
  C:51FAH         LINE#         110
  C:5200H         LINE#         111
  C:5204H         LINE#         112
  C:5208H         LINE#         113
  C:520CH         LINE#         114
  C:5210H         LINE#         115
  C:5216H         LINE#         116
  C:5219H         LINE#         117
  C:5220H         LINE#         118
  C:522CH         LINE#         119
  C:5231H         LINE#         120
  C:5231H         LINE#         121
  C:5236H         LINE#         122
  C:5236H         LINE#         123
  C:523CH         LINE#         124
  C:5240H         LINE#         125
  C:5244H         LINE#         126
  C:5248H         LINE#         127
  C:524CH         LINE#         128
  C:5252H         LINE#         129
  C:5255H         LINE#         130
  C:525CH         LINE#         131
  C:5268H         LINE#         132
  C:526DH         LINE#         133
  C:526DH         LINE#         134
  C:5273H         LINE#         135
  C:5277H         LINE#         136
  C:527BH         LINE#         137
  C:527FH         LINE#         138
  C:5283H         LINE#         139
  C:5289H         LINE#         140
  C:528CH         LINE#         141
  C:5293H         LINE#         142
BL51 BANKED LINKER/LOCATER V6.00                                                      09/09/2017  17:29:44  PAGE 132


  C:529FH         LINE#         143
  C:52ABH         LINE#         144
  C:52B0H         LINE#         145
  C:52B0H         LINE#         146
  C:52B6H         LINE#         147
  C:52BAH         LINE#         148
  C:52BEH         LINE#         149
  C:52C2H         LINE#         150
  C:52C6H         LINE#         151
  C:52CCH         LINE#         152
  C:52CFH         LINE#         153
  C:52D6H         LINE#         154
  C:52E2H         LINE#         155
  C:52E7H         LINE#         156
  C:52E7H         LINE#         157
  C:52EEH         LINE#         158
  C:52F3H         LINE#         159
  C:52FAH         LINE#         160
  C:5301H         LINE#         161
  C:5304H         LINE#         162
  C:530BH         LINE#         163
  C:5317H         LINE#         164
  C:531CH         LINE#         165
  C:5321H         LINE#         166
  C:5321H         LINE#         167
  C:5326H         LINE#         168
  C:5326H         LINE#         169
  C:532DH         LINE#         170
  C:5334H         LINE#         171
  C:5339H         LINE#         172
  C:533EH         LINE#         173
  C:5343H         LINE#         174
  C:5348H         LINE#         175
  C:534BH         LINE#         176
  C:5352H         LINE#         177
  C:535EH         LINE#         178
  C:5363H         LINE#         179
  C:5363H         LINE#         180
  C:536AH         LINE#         181
  C:5371H         LINE#         182
  C:5376H         LINE#         183
  C:537BH         LINE#         184
  C:5380H         LINE#         185
  C:5385H         LINE#         186
  C:5388H         LINE#         187
  C:538FH         LINE#         188
  C:539BH         LINE#         189
  C:53A0H         LINE#         190
  C:53AFH         LINE#         191
  C:53BEH         LINE#         192
  C:53F6H         LINE#         193
  C:5401H         LINE#         195
  C:5406H         LINE#         196
  -------         ENDPROC       XQ_TD
  -------         PROC          CS_XD_LEFT
  -------         DO            
  X:0216H         SYMBOL        i
BL51 BANKED LINKER/LOCATER V6.00                                                      09/09/2017  17:29:44  PAGE 133


  -------         ENDDO         
  C:BAF6H         LINE#         204
  C:BAF6H         LINE#         205
  C:BAF6H         LINE#         207
  C:BAFBH         LINE#         208
  C:BAFBH         LINE#         209
  C:BB02H         LINE#         210
  C:BB09H         LINE#         211
  C:BB0CH         LINE#         212
  C:BB13H         LINE#         213
  C:BB1FH         LINE#         215
  C:BB24H         LINE#         216
  C:BB24H         LINE#         217
  C:BB2AH         LINE#         218
  C:BB2EH         LINE#         220
  C:BB32H         LINE#         221
  C:BB36H         LINE#         223
  C:BB3CH         LINE#         225
  C:BB3FH         LINE#         226
  C:BB46H         LINE#         227
  C:BB52H         LINE#         228
  C:BB61H         LINE#         229
  C:BB61H         LINE#         230
  C:BB67H         LINE#         231
  C:BB6CH         LINE#         232
  C:BB70H         LINE#         236
  C:BB74H         LINE#         237
  C:BB7AH         LINE#         238
  C:BB80H         LINE#         239
  C:BB84H         LINE#         240
  C:BB84H         LINE#         242
  C:BB89H         LINE#         243
  C:BB89H         LINE#         244
  C:BB8FH         LINE#         245
  C:BB93H         LINE#         246
  C:BB93H         LINE#         248
  C:BB96H         LINE#         249
  C:BB9DH         LINE#         250
  C:BBA5H         LINE#         253
  C:BBB4H         LINE#         254
  C:BBB4H         LINE#         255
  C:BBBAH         LINE#         256
  C:BBBFH         LINE#         257
  C:BBC3H         LINE#         259
  C:BBC7H         LINE#         260
  C:BBCDH         LINE#         261
  C:BBD3H         LINE#         262
  C:BBD7H         LINE#         263
  C:BBD7H         LINE#         265
  C:BBDCH         LINE#         266
  C:BBDCH         LINE#         267
  C:BBE2H         LINE#         268
  C:BBE6H         LINE#         269
  C:BBE6H         LINE#         271
  C:BBE9H         LINE#         272
  C:BBF0H         LINE#         273
  C:BBF8H         LINE#         275
BL51 BANKED LINKER/LOCATER V6.00                                                      09/09/2017  17:29:44  PAGE 134


  C:BBFDH         LINE#         276
  C:BBFDH         LINE#         277
  C:BC03H         LINE#         278
  C:BC07H         LINE#         280
  C:BC0BH         LINE#         281
  C:BC0FH         LINE#         283
  C:BC15H         LINE#         285
  C:BC18H         LINE#         286
  C:BC1FH         LINE#         288
  C:BC2BH         LINE#         290
  C:BC30H         LINE#         291
  C:BC30H         LINE#         292
  C:BC37H         LINE#         293
  C:BC3EH         LINE#         294
  C:BC41H         LINE#         295
  C:BC48H         LINE#         296
  C:BC54H         LINE#         297
  -------         ENDPROC       CS_XD_LEFT
  -------         PROC          CS_XD_RIGHT
  -------         DO            
  X:0216H         SYMBOL        i
  -------         ENDDO         
  C:BC55H         LINE#         305
  C:BC55H         LINE#         306
  C:BC55H         LINE#         308
  C:BC5AH         LINE#         309
  C:BC5AH         LINE#         310
  C:BC61H         LINE#         311
  C:BC68H         LINE#         313
  C:BC6BH         LINE#         314
  C:BC72H         LINE#         316
  C:BC7EH         LINE#         318
  C:BC83H         LINE#         319
  C:BC83H         LINE#         320
  C:BC89H         LINE#         321
  C:BC8DH         LINE#         323
  C:BC91H         LINE#         324
  C:BC95H         LINE#         326
  C:BC9BH         LINE#         328
  C:BC9EH         LINE#         329
  C:BCA5H         LINE#         331
  C:BCB1H         LINE#         332
  C:BCC0H         LINE#         333
  C:BCC0H         LINE#         334
  C:BCC6H         LINE#         335
  C:BCCBH         LINE#         336
  C:BCCFH         LINE#         340
  C:BCD3H         LINE#         341
  C:BCD9H         LINE#         342
  C:BCDFH         LINE#         343
  C:BCE3H         LINE#         344
  C:BCE3H         LINE#         346
  C:BCE8H         LINE#         347
  C:BCE8H         LINE#         348
  C:BCEEH         LINE#         349
  C:BCF2H         LINE#         350
  C:BCF2H         LINE#         352
BL51 BANKED LINKER/LOCATER V6.00                                                      09/09/2017  17:29:44  PAGE 135


  C:BCF5H         LINE#         353
  C:BCFCH         LINE#         354
  C:BD04H         LINE#         356
  C:BD13H         LINE#         357
  C:BD13H         LINE#         358
  C:BD19H         LINE#         359
  C:BD1EH         LINE#         360
  C:BD22H         LINE#         362
  C:BD26H         LINE#         363
  C:BD2CH         LINE#         364
  C:BD32H         LINE#         365
  C:BD36H         LINE#         366
  C:BD36H         LINE#         368
  C:BD3BH         LINE#         369
  C:BD3BH         LINE#         370
  C:BD41H         LINE#         371
  C:BD45H         LINE#         372
  C:BD45H         LINE#         374
  C:BD48H         LINE#         375
  C:BD4FH         LINE#         376
  C:BD57H         LINE#         377
  C:BD5CH         LINE#         378
  C:BD5CH         LINE#         379
  C:BD62H         LINE#         380
  C:BD66H         LINE#         382
  C:BD6AH         LINE#         383
  C:BD6EH         LINE#         385
  C:BD74H         LINE#         387
  C:BD77H         LINE#         388
  C:BD7EH         LINE#         390
  C:BD8AH         LINE#         392
  C:BD8FH         LINE#         393
  C:BD8FH         LINE#         394
  C:BD96H         LINE#         395
  C:BD9DH         LINE#         397
  C:BDA0H         LINE#         398
  C:BDA7H         LINE#         400
  C:BDB3H         LINE#         401
  -------         ENDPROC       CS_XD_RIGHT
  -------         PROC          PY_SS_LEFT
  -------         DO            
  X:0216H         SYMBOL        i
  X:0217H         SYMBOL        j
  -------         ENDDO         
  C:A61CH         LINE#         410
  C:A61CH         LINE#         411
  C:A61CH         LINE#         413
  C:A621H         LINE#         414
  C:A626H         LINE#         415
  C:A626H         LINE#         416
  C:A62BH         LINE#         417
  C:A62BH         LINE#         418
  C:A631H         LINE#         419
  C:A635H         LINE#         421
  C:A639H         LINE#         422
  C:A63DH         LINE#         424
  C:A644H         LINE#         425
BL51 BANKED LINKER/LOCATER V6.00                                                      09/09/2017  17:29:44  PAGE 136


  C:A64BH         LINE#         426
  C:A64EH         LINE#         427
  C:A655H         LINE#         428
  C:A661H         LINE#         429
  C:A666H         LINE#         430
  C:A666H         LINE#         431
  C:A66CH         LINE#         432
  C:A671H         LINE#         433
  C:A675H         LINE#         434
  C:A67BH         LINE#         435
  C:A67FH         LINE#         437
  C:A686H         LINE#         438
  C:A68DH         LINE#         440
  C:A690H         LINE#         441
  C:A697H         LINE#         442
  C:A6A3H         LINE#         444
  C:A6A8H         LINE#         445
  C:A6A8H         LINE#         446
  C:A6AEH         LINE#         447
  C:A6B3H         LINE#         448
  C:A6B7H         LINE#         449
  C:A6BDH         LINE#         450
  C:A6C1H         LINE#         452
  C:A6C8H         LINE#         453
  C:A6CFH         LINE#         455
  C:A6D2H         LINE#         456
  C:A6D9H         LINE#         457
  C:A6E5H         LINE#         459
  C:A6EAH         LINE#         460
  C:A6EAH         LINE#         461
  C:A6F0H         LINE#         462
  C:A6F4H         LINE#         464
  C:A6F8H         LINE#         465
  C:A6FCH         LINE#         467
  C:A702H         LINE#         468
  C:A708H         LINE#         470
  C:A70EH         LINE#         471
  C:A714H         LINE#         473
  C:A717H         LINE#         474
  C:A71EH         LINE#         475
  C:A72AH         LINE#         476
  C:A72FH         LINE#         477
  C:A72FH         LINE#         478
  C:A735H         LINE#         479
  C:A739H         LINE#         481
  C:A740H         LINE#         482
  C:A747H         LINE#         484
  C:A74EH         LINE#         485
  C:A755H         LINE#         487
  C:A758H         LINE#         488
  C:A75FH         LINE#         489
  C:A76BH         LINE#         490
  C:A77AH         LINE#         491
  C:A77AH         LINE#         492
  C:A780H         LINE#         493
  C:A784H         LINE#         495
  C:A788H         LINE#         496
BL51 BANKED LINKER/LOCATER V6.00                                                      09/09/2017  17:29:44  PAGE 137


  C:A78CH         LINE#         498
  C:A792H         LINE#         499
  C:A798H         LINE#         501
  C:A79EH         LINE#         502
  C:A7A4H         LINE#         504
  C:A7ADH         LINE#         505
  C:A7ADH         LINE#         506
  C:A7B3H         LINE#         507
  C:A7B9H         LINE#         509
  C:A7BFH         LINE#         510
  C:A7C5H         LINE#         511
  C:A7C5H         LINE#         513
  C:A7C8H         LINE#         514
  C:A7CFH         LINE#         515
  C:A7D7H         LINE#         518
  C:A7DCH         LINE#         519
  C:A7DCH         LINE#         520
  C:A7E3H         LINE#         521
  C:A7EAH         LINE#         522
  C:A7EDH         LINE#         523
  C:A7F4H         LINE#         524
  C:A800H         LINE#         526
  C:A80FH         LINE#         527
  -------         ENDPROC       PY_SS_LEFT
  -------         PROC          PY_SS_RIGHT
  -------         DO            
  X:0216H         SYMBOL        i
  X:0217H         SYMBOL        j
  -------         ENDDO         
  C:A814H         LINE#         535
  C:A814H         LINE#         536
  C:A814H         LINE#         537
  C:A819H         LINE#         539
  C:A81EH         LINE#         540
  C:A81EH         LINE#         541
  C:A823H         LINE#         542
  C:A823H         LINE#         543
  C:A829H         LINE#         544
  C:A82DH         LINE#         546
  C:A831H         LINE#         547
  C:A835H         LINE#         549
  C:A83CH         LINE#         550
  C:A843H         LINE#         551
  C:A846H         LINE#         552
  C:A84DH         LINE#         553
  C:A859H         LINE#         554
  C:A85EH         LINE#         555
  C:A85EH         LINE#         556
  C:A864H         LINE#         557
  C:A869H         LINE#         558
  C:A86DH         LINE#         559
  C:A873H         LINE#         560
  C:A877H         LINE#         562
  C:A87EH         LINE#         563
  C:A885H         LINE#         565
  C:A888H         LINE#         566
  C:A88FH         LINE#         567
BL51 BANKED LINKER/LOCATER V6.00                                                      09/09/2017  17:29:44  PAGE 138


  C:A89BH         LINE#         569
  C:A8A0H         LINE#         570
  C:A8A0H         LINE#         571
  C:A8A6H         LINE#         572
  C:A8ABH         LINE#         573
  C:A8AFH         LINE#         574
  C:A8B5H         LINE#         575
  C:A8B9H         LINE#         577
  C:A8C0H         LINE#         578
  C:A8C7H         LINE#         580
  C:A8CAH         LINE#         581
  C:A8D1H         LINE#         582
  C:A8DDH         LINE#         584
  C:A8E2H         LINE#         585
  C:A8E2H         LINE#         586
  C:A8E8H         LINE#         587
  C:A8ECH         LINE#         589
  C:A8F0H         LINE#         590
  C:A8F4H         LINE#         592
  C:A8FAH         LINE#         593
  C:A900H         LINE#         595
  C:A906H         LINE#         596
  C:A90CH         LINE#         598
  C:A90FH         LINE#         599
  C:A916H         LINE#         600
  C:A922H         LINE#         601
  C:A927H         LINE#         602
  C:A927H         LINE#         603
  C:A92DH         LINE#         604
  C:A931H         LINE#         606
  C:A938H         LINE#         607
  C:A93FH         LINE#         609
  C:A946H         LINE#         610
  C:A94DH         LINE#         612
  C:A950H         LINE#         613
  C:A957H         LINE#         614
  C:A963H         LINE#         615
  C:A972H         LINE#         616
  C:A972H         LINE#         617
  C:A978H         LINE#         618
  C:A97CH         LINE#         620
  C:A980H         LINE#         621
  C:A984H         LINE#         623
  C:A98AH         LINE#         624
  C:A990H         LINE#         626
  C:A996H         LINE#         627
  C:A99CH         LINE#         629
  C:A9A5H         LINE#         630
  C:A9A5H         LINE#         631
  C:A9ABH         LINE#         632
  C:A9B1H         LINE#         634
  C:A9B7H         LINE#         635
  C:A9BDH         LINE#         636
  C:A9BDH         LINE#         638
  C:A9C0H         LINE#         639
  C:A9C7H         LINE#         640
  C:A9CFH         LINE#         643
BL51 BANKED LINKER/LOCATER V6.00                                                      09/09/2017  17:29:44  PAGE 139


  C:A9D4H         LINE#         644
  C:A9D4H         LINE#         645
  C:A9DBH         LINE#         646
  C:A9E2H         LINE#         647
  C:A9E5H         LINE#         648
  C:A9ECH         LINE#         649
  C:A9F8H         LINE#         651
  C:AA07H         LINE#         652
  -------         ENDPROC       PY_SS_RIGHT
  -------         PROC          TICE_YD
  -------         DO            
  X:0216H         SYMBOL        i
  X:0217H         SYMBOL        j
  -------         ENDDO         
  C:73FCH         LINE#         661
  C:73FCH         LINE#         662
  C:73FCH         LINE#         665
  C:7406H         LINE#         666
  C:7410H         LINE#         667
  C:7413H         LINE#         668
  C:741AH         LINE#         669
  C:741FH         LINE#         671
  C:7429H         LINE#         672
  C:742CH         LINE#         673
  C:7433H         LINE#         674
  C:7438H         LINE#         676
  C:7447H         LINE#         677
  C:7447H         LINE#         678
  C:744DH         LINE#         679
  C:7451H         LINE#         680
  C:7455H         LINE#         682
  C:745AH         LINE#         683
  C:745AH         LINE#         684
  C:7460H         LINE#         685
  C:7464H         LINE#         686
  C:7468H         LINE#         687
  C:746CH         LINE#         688
  C:746CH         LINE#         689
  C:746FH         LINE#         690
  C:7476H         LINE#         691
  C:747EH         LINE#         693
  C:7483H         LINE#         694
  C:7483H         LINE#         695
  C:7488H         LINE#         696
  C:7488H         LINE#         697
  C:748EH         LINE#         698
  C:7493H         LINE#         699
  C:7496H         LINE#         700
  C:749DH         LINE#         701
  C:74A9H         LINE#         703
  C:74AEH         LINE#         704
  C:74AEH         LINE#         705
  C:74B4H         LINE#         706
  C:74B9H         LINE#         707
  C:74BCH         LINE#         708
  C:74C3H         LINE#         709
  C:74CFH         LINE#         710
BL51 BANKED LINKER/LOCATER V6.00                                                      09/09/2017  17:29:44  PAGE 140


  C:74DBH         LINE#         712
  C:74EAH         LINE#         713
  C:74EAH         LINE#         714
  C:74F0H         LINE#         715
  C:74F4H         LINE#         716
  C:74F8H         LINE#         718
  C:74FDH         LINE#         719
  C:74FDH         LINE#         720
  C:7503H         LINE#         721
  C:7507H         LINE#         722
  C:750BH         LINE#         723
  C:750FH         LINE#         724
  C:750FH         LINE#         725
  C:7512H         LINE#         726
  C:7519H         LINE#         727
  C:7521H         LINE#         729
  C:752BH         LINE#         730
  C:7535H         LINE#         731
  C:7538H         LINE#         732
  C:753FH         LINE#         733
  C:7544H         LINE#         735
  C:7553H         LINE#         736
  C:7553H         LINE#         737
  C:7559H         LINE#         738
  C:755DH         LINE#         739
  C:7563H         LINE#         741
  C:7568H         LINE#         742
  C:7568H         LINE#         743
  C:756EH         LINE#         744
  C:7572H         LINE#         745
  C:7576H         LINE#         746
  C:757AH         LINE#         747
  C:757AH         LINE#         748
  C:757DH         LINE#         749
  C:7584H         LINE#         750
  C:758CH         LINE#         751
  C:7591H         LINE#         752
  C:7591H         LINE#         753
  C:7596H         LINE#         754
  C:7596H         LINE#         755
  C:759CH         LINE#         756
  C:75A1H         LINE#         757
  C:75A4H         LINE#         758
  C:75ABH         LINE#         759
  C:75B7H         LINE#         761
  C:75BCH         LINE#         762
  C:75BCH         LINE#         763
  C:75C2H         LINE#         764
  C:75C7H         LINE#         765
  C:75CAH         LINE#         766
  C:75D1H         LINE#         767
  C:75DDH         LINE#         768
  C:75E9H         LINE#         771
  C:75F8H         LINE#         772
  C:75F8H         LINE#         773
  C:75FEH         LINE#         774
  C:7602H         LINE#         775
BL51 BANKED LINKER/LOCATER V6.00                                                      09/09/2017  17:29:44  PAGE 141


  C:7608H         LINE#         777
  C:760DH         LINE#         778
  C:760DH         LINE#         779
  C:7613H         LINE#         780
  C:7617H         LINE#         781
  C:761BH         LINE#         782
  C:761FH         LINE#         783
  C:761FH         LINE#         784
  C:7622H         LINE#         785
  C:7629H         LINE#         786
  C:7631H         LINE#         787
  C:763BH         LINE#         788
  C:763EH         LINE#         789
  C:7645H         LINE#         790
  C:764AH         LINE#         793
  C:764FH         LINE#         794
  C:764FH         LINE#         795
  C:7654H         LINE#         796
  C:7654H         LINE#         797
  C:765BH         LINE#         798
  C:7660H         LINE#         799
  C:7665H         LINE#         800
  C:766AH         LINE#         801
  C:766DH         LINE#         802
  C:7674H         LINE#         803
  C:7680H         LINE#         806
  C:7685H         LINE#         807
  C:768CH         LINE#         808
  C:7691H         LINE#         809
  C:7696H         LINE#         810
  C:769BH         LINE#         811
  C:769EH         LINE#         812
  C:76A5H         LINE#         813
  C:76B1H         LINE#         814
  C:76BDH         LINE#         816
  C:76C2H         LINE#         818
  C:76CAH         LINE#         819
  C:76D2H         LINE#         820
  C:76D5H         LINE#         821
  C:76DCH         LINE#         823
  C:76E1H         LINE#         825
  C:76E6H         LINE#         826
  C:76E6H         LINE#         827
  C:76EDH         LINE#         828
  C:76F4H         LINE#         829
  C:76F7H         LINE#         830
  C:76FEH         LINE#         831
  C:770AH         LINE#         832
  -------         ENDPROC       TICE_YD
  -------         PROC          SHENZHAN
  -------         DO            
  X:0216H         SYMBOL        i
  -------         ENDDO         
  C:AA0CH         LINE#         840
  C:AA0CH         LINE#         841
  C:AA0CH         LINE#         842
  C:AA15H         LINE#         843
BL51 BANKED LINKER/LOCATER V6.00                                                      09/09/2017  17:29:44  PAGE 142


  C:AA1FH         LINE#         844
  C:AA28H         LINE#         845
  C:AA32H         LINE#         846
  C:AA3BH         LINE#         848
  C:AA40H         LINE#         849
  C:AA45H         LINE#         850
  C:AA45H         LINE#         851
  C:AA4EH         LINE#         852
  C:AA56H         LINE#         853
  C:AA5DH         LINE#         854
  C:AA65H         LINE#         856
  C:AA6CH         LINE#         857
  C:AA76H         LINE#         859
  C:AA7FH         LINE#         860
  C:AA84H         LINE#         861
  C:AA8EH         LINE#         862
  C:AA95H         LINE#         863
  C:AA9DH         LINE#         864
  C:AAA4H         LINE#         866
  C:AAACH         LINE#         867
  C:AAB5H         LINE#         869
  C:AABEH         LINE#         870
  C:AAC3H         LINE#         871
  C:AAD2H         LINE#         873
  C:AADCH         LINE#         874
  C:AAE5H         LINE#         875
  C:AAEFH         LINE#         876
  C:AAF8H         LINE#         877
  C:AB01H         LINE#         878
  C:AB06H         LINE#         880
  C:AB10H         LINE#         881
  C:AB1AH         LINE#         882
  C:AB23H         LINE#         883
  C:AB2CH         LINE#         884
  C:AB35H         LINE#         885
  C:AB3AH         LINE#         886
  C:AB3FH         LINE#         887
  C:AB3FH         LINE#         888
  C:AB49H         LINE#         889
  C:AB50H         LINE#         890
  C:AB58H         LINE#         891
  C:AB5FH         LINE#         893
  C:AB66H         LINE#         894
  C:AB70H         LINE#         895
  C:AB75H         LINE#         896
  C:AB7EH         LINE#         898
  C:AB87H         LINE#         899
  C:AB8FH         LINE#         900
  C:AB96H         LINE#         901
  C:AB9EH         LINE#         903
  C:ABA6H         LINE#         904
  C:ABAFH         LINE#         906
  C:ABB8H         LINE#         907
  C:ABBDH         LINE#         908
  C:ABCCH         LINE#         909
  C:ABD5H         LINE#         910
  C:ABDEH         LINE#         911
BL51 BANKED LINKER/LOCATER V6.00                                                      09/09/2017  17:29:44  PAGE 143


  C:ABE8H         LINE#         912
  C:ABF2H         LINE#         913
  C:ABFBH         LINE#         914
  -------         ENDPROC       SHENZHAN
  -------         PROC          KUOXIONG
  -------         DO            
  X:0216H         SYMBOL        i
  -------         ENDDO         
  C:CD57H         LINE#         924
  C:CD57H         LINE#         925
  C:CD57H         LINE#         926
  C:CD61H         LINE#         927
  C:CD68H         LINE#         928
  C:CD71H         LINE#         929
  C:CD76H         LINE#         930
  C:CD80H         LINE#         931
  C:CD87H         LINE#         932
  C:CD8EH         LINE#         933
  C:CD96H         LINE#         934
  C:CD9FH         LINE#         935
  C:CDA4H         LINE#         936
  C:CDA9H         LINE#         937
  C:CDA9H         LINE#         938
  C:CDB2H         LINE#         939
  C:CDBCH         LINE#         940
  C:CDC5H         LINE#         941
  C:CDCAH         LINE#         942
  C:CDD4H         LINE#         943
  C:CDDDH         LINE#         944
  C:CDE6H         LINE#         945
  C:CDEBH         LINE#         946
  C:CDF7H         LINE#         947
  C:CE00H         LINE#         948
  C:CE08H         LINE#         949
  C:CE10H         LINE#         950
  C:CE17H         LINE#         951
  C:CE20H         LINE#         952
  C:CE25H         LINE#         953
  C:CE2EH         LINE#         954
  C:CE36H         LINE#         955
  C:CE3FH         LINE#         957
  -------         ENDPROC       KUOXIONG
  -------         PROC          TICAO
  C:D7D7H         LINE#         965
  C:D7D7H         LINE#         966
  C:D7D7H         LINE#         968
  C:D7DAH         LINE#         969
  C:D7DFH         LINE#         970
  C:D7E2H         LINE#         971
  C:D7E7H         LINE#         972
  C:D7EAH         LINE#         973
  C:D7EFH         LINE#         974
  C:D82BH         LINE#         975
  C:D82BH         LINE#         977
  C:D82BH         LINE#         978
  C:D82BH         LINE#         979
  C:D82BH         LINE#         980
BL51 BANKED LINKER/LOCATER V6.00                                                      09/09/2017  17:29:44  PAGE 144


  C:D82BH         LINE#         981
  C:D82BH         LINE#         982
  C:D82EH         LINE#         983
  C:D833H         LINE#         984
  C:D836H         LINE#         985
  C:D83BH         LINE#         986
  C:D83EH         LINE#         987
  C:D843H         LINE#         988
  C:D846H         LINE#         989
  C:D846H         LINE#         990
  C:D848H         LINE#         991
  C:D848H         LINE#         992
  C:D848H         LINE#         993
  C:D848H         LINE#         994
  C:D848H         LINE#         995
  C:D848H         LINE#         996
  C:D848H         LINE#         997
  C:D84BH         LINE#         998
  C:D850H         LINE#         999
  C:D853H         LINE#         1000
  C:D858H         LINE#         1001
  C:D85BH         LINE#         1002
  C:D860H         LINE#         1003
  C:D863H         LINE#         1004
  C:D868H         LINE#         1005
  C:D868H         LINE#         1006
  C:D868H         LINE#         1007
  C:D868H         LINE#         1008
  C:D868H         LINE#         1009
  C:D86BH         LINE#         1010
  C:D870H         LINE#         1011
  C:D873H         LINE#         1013
  -------         ENDPROC       TICAO
  -------         ENDMOD        TICAO

  -------         MODULE        QIANSHOU
  C:0000H         SYMBOL        _ICE_DUMMY_
  C:C174H         PUBLIC        qianshou_1
  C:DABAH         PUBLIC        qianshou_2
  C:C50BH         PUBLIC        _qianshou_3
  C:99F4H         PUBLIC        _qianshou_4
  C:D90BH         PUBLIC        _qianshou_5
  C:97CCH         PUBLIC        qianshou_6
  C:6A50H         PUBLIC        _qianshou_7
  C:CA6AH         PUBLIC        qianshou_8
  C:C3E6H         PUBLIC        _qianshou_9
  C:9C02H         PUBLIC        _qianshou_10
  C:D300H         PUBLIC        qianshou
  -------         PROC          QIANSHOU_1
  -------         DO            
  X:0217H         SYMBOL        j
  -------         ENDDO         
  C:C174H         LINE#         14
  C:C174H         LINE#         15
  C:C174H         LINE#         17
  C:C179H         LINE#         18
  C:C179H         LINE#         19
BL51 BANKED LINKER/LOCATER V6.00                                                      09/09/2017  17:29:44  PAGE 145


  C:C180H         LINE#         20
  C:C183H         LINE#         21
  C:C18AH         LINE#         22
  C:C196H         LINE#         23
  C:C199H         LINE#         24
  C:C19EH         LINE#         26
  C:C1A3H         LINE#         27
  C:C1A3H         LINE#         28
  C:C1AAH         LINE#         29
  C:C1ADH         LINE#         30
  C:C1B4H         LINE#         31
  C:C1C0H         LINE#         32
  C:C1C5H         LINE#         35
  C:C1CAH         LINE#         36
  C:C1CAH         LINE#         37
  C:C1D1H         LINE#         38
  C:C1D4H         LINE#         39
  C:C1DBH         LINE#         40
  C:C1E7H         LINE#         41
  C:C1ECH         LINE#         43
  C:C1F1H         LINE#         44
  C:C1F1H         LINE#         45
  C:C1F8H         LINE#         46
  C:C1FBH         LINE#         47
  C:C202H         LINE#         48
  C:C20EH         LINE#         49
  C:C213H         LINE#         52
  C:C218H         LINE#         53
  C:C218H         LINE#         54
  C:C21FH         LINE#         55
  C:C222H         LINE#         56
  C:C229H         LINE#         57
  C:C235H         LINE#         58
  C:C23AH         LINE#         60
  C:C23FH         LINE#         61
  C:C23FH         LINE#         62
  C:C246H         LINE#         63
  C:C249H         LINE#         64
  C:C250H         LINE#         65
  C:C25CH         LINE#         66
  C:C261H         LINE#         69
  C:C266H         LINE#         70
  C:C266H         LINE#         71
  C:C26DH         LINE#         72
  C:C270H         LINE#         73
  C:C277H         LINE#         74
  C:C283H         LINE#         75
  C:C288H         LINE#         77
  C:C28DH         LINE#         78
  C:C28DH         LINE#         79
  C:C294H         LINE#         80
  C:C297H         LINE#         81
  C:C29EH         LINE#         82
  C:C2AAH         LINE#         83
  -------         ENDPROC       QIANSHOU_1
  -------         PROC          QIANSHOU_2
  -------         DO            
BL51 BANKED LINKER/LOCATER V6.00                                                      09/09/2017  17:29:44  PAGE 146


  X:0217H         SYMBOL        j
  -------         ENDDO         
  C:DABAH         LINE#         91
  C:DABAH         LINE#         92
  C:DABAH         LINE#         95
  C:DABDH         LINE#         96
  C:DAC2H         LINE#         97
  C:DAC2H         LINE#         98
  C:DAC8H         LINE#         99
  C:DACBH         LINE#         100
  C:DAD2H         LINE#         101
  C:DADEH         LINE#         103
  C:DAE3H         LINE#         104
  C:DAE3H         LINE#         105
  C:DAE9H         LINE#         106
  C:DAECH         LINE#         107
  C:DAF3H         LINE#         108
  C:DAFFH         LINE#         110
  C:DB04H         LINE#         111
  C:DB04H         LINE#         112
  C:DB0AH         LINE#         113
  C:DB0DH         LINE#         114
  C:DB14H         LINE#         115
  C:DB20H         LINE#         117
  C:DB25H         LINE#         118
  C:DB25H         LINE#         119
  C:DB2BH         LINE#         120
  C:DB2EH         LINE#         121
  C:DB35H         LINE#         122
  C:DB41H         LINE#         123
  -------         ENDPROC       QIANSHOU_2
  -------         PROC          _QIANSHOU_3
  X:0217H         SYMBOL        number
  -------         DO            
  X:0218H         SYMBOL        j
  X:0219H         SYMBOL        i
  -------         ENDDO         
  C:C50BH         LINE#         132
  C:C510H         LINE#         133
  C:C510H         LINE#         135
  C:C513H         LINE#         136
  C:C513H         LINE#         137
  C:C519H         LINE#         138
  C:C51FH         LINE#         139
  C:C522H         LINE#         140
  C:C529H         LINE#         141
  C:C535H         LINE#         143
  C:C538H         LINE#         145
  C:C54DH         LINE#         146
  C:C54DH         LINE#         148
  C:C552H         LINE#         149
  C:C552H         LINE#         150
  C:C558H         LINE#         151
  C:C55EH         LINE#         152
  C:C561H         LINE#         153
  C:C568H         LINE#         154
  C:C574H         LINE#         155
BL51 BANKED LINKER/LOCATER V6.00                                                      09/09/2017  17:29:44  PAGE 147


  C:C579H         LINE#         157
  C:C57EH         LINE#         158
  C:C57EH         LINE#         159
  C:C584H         LINE#         160
  C:C58AH         LINE#         161
  C:C58DH         LINE#         162
  C:C594H         LINE#         163
  C:C5A0H         LINE#         165
  C:C5A5H         LINE#         166
  C:C5A5H         LINE#         167
  C:C5ABH         LINE#         168
  C:C5B1H         LINE#         169
  C:C5B4H         LINE#         170
  C:C5BBH         LINE#         171
  C:C5C7H         LINE#         172
  C:C5CCH         LINE#         174
  C:C5D1H         LINE#         175
  C:C5D1H         LINE#         176
  C:C5D7H         LINE#         177
  C:C5DDH         LINE#         178
  C:C5E0H         LINE#         179
  C:C5E7H         LINE#         180
  C:C5F3H         LINE#         181
  C:C5FCH         LINE#         183
  C:C5FFH         LINE#         185
  C:C604H         LINE#         186
  C:C604H         LINE#         187
  C:C60AH         LINE#         188
  C:C610H         LINE#         189
  C:C613H         LINE#         190
  C:C61AH         LINE#         191
  C:C626H         LINE#         192
  -------         ENDPROC       _QIANSHOU_3
  -------         PROC          _QIANSHOU_4
  X:0217H         SYMBOL        number
  -------         DO            
  X:0218H         SYMBOL        j
  X:0219H         SYMBOL        i
  -------         ENDDO         
  C:99F4H         LINE#         198
  C:99F9H         LINE#         199
  C:99F9H         LINE#         202
  C:99FCH         LINE#         203
  C:99FCH         LINE#         204
  C:9A02H         LINE#         205
  C:9A08H         LINE#         206
  C:9A0BH         LINE#         207
  C:9A12H         LINE#         208
  C:9A1EH         LINE#         209
  C:9A23H         LINE#         210
  C:9A23H         LINE#         211
  C:9A29H         LINE#         212
  C:9A2FH         LINE#         213
  C:9A35H         LINE#         214
  C:9A3BH         LINE#         215
  C:9A3EH         LINE#         216
  C:9A45H         LINE#         217
BL51 BANKED LINKER/LOCATER V6.00                                                      09/09/2017  17:29:44  PAGE 148


  C:9A51H         LINE#         219
  C:9A56H         LINE#         220
  C:9A56H         LINE#         221
  C:9A5CH         LINE#         222
  C:9A62H         LINE#         223
  C:9A68H         LINE#         224
  C:9A6EH         LINE#         225
  C:9A71H         LINE#         226
  C:9A78H         LINE#         227
  C:9A84H         LINE#         229
  C:9A89H         LINE#         230
  C:9A89H         LINE#         231
  C:9A8FH         LINE#         232
  C:9A95H         LINE#         233
  C:9A9BH         LINE#         234
  C:9AA1H         LINE#         235
  C:9AA4H         LINE#         236
  C:9AABH         LINE#         237
  C:9AB7H         LINE#         238
  C:9ABAH         LINE#         241
  C:9ABFH         LINE#         242
  C:9ABFH         LINE#         243
  C:9AC5H         LINE#         244
  C:9ACBH         LINE#         245
  C:9AD1H         LINE#         246
  C:9AD7H         LINE#         247
  C:9ADAH         LINE#         248
  C:9AE1H         LINE#         249
  C:9AEDH         LINE#         250
  C:9B02H         LINE#         251
  C:9B02H         LINE#         252
  C:9B07H         LINE#         253
  C:9B07H         LINE#         254
  C:9B0DH         LINE#         255
  C:9B13H         LINE#         256
  C:9B19H         LINE#         257
  C:9B1FH         LINE#         258
  C:9B22H         LINE#         259
  C:9B29H         LINE#         260
  C:9B35H         LINE#         262
  C:9B3AH         LINE#         263
  C:9B3AH         LINE#         264
  C:9B40H         LINE#         265
  C:9B46H         LINE#         266
  C:9B4CH         LINE#         267
  C:9B52H         LINE#         268
  C:9B55H         LINE#         269
  C:9B5CH         LINE#         270
  C:9B68H         LINE#         272
  C:9B6DH         LINE#         273
  C:9B6DH         LINE#         274
  C:9B73H         LINE#         275
  C:9B79H         LINE#         276
  C:9B7FH         LINE#         277
  C:9B85H         LINE#         278
  C:9B88H         LINE#         279
  C:9B8FH         LINE#         280
BL51 BANKED LINKER/LOCATER V6.00                                                      09/09/2017  17:29:44  PAGE 149


  C:9B9BH         LINE#         281
  C:9BA0H         LINE#         282
  C:9BA0H         LINE#         283
  C:9BA6H         LINE#         284
  C:9BACH         LINE#         285
  C:9BB2H         LINE#         286
  C:9BB8H         LINE#         287
  C:9BBBH         LINE#         288
  C:9BC2H         LINE#         289
  C:9BCEH         LINE#         290
  C:9BD7H         LINE#         291
  C:9BDAH         LINE#         294
  C:9BDFH         LINE#         295
  C:9BDFH         LINE#         296
  C:9BE5H         LINE#         297
  C:9BEBH         LINE#         298
  C:9BEEH         LINE#         299
  C:9BF5H         LINE#         300
  C:9C01H         LINE#         302
  -------         ENDPROC       _QIANSHOU_4
  -------         PROC          _QIANSHOU_5
  X:0217H         SYMBOL        number
  X:0218H         SYMBOL        sudu1
  -------         DO            
  X:0219H         SYMBOL        j
  X:021AH         SYMBOL        i
  -------         ENDDO         
  C:D90BH         LINE#         308
  C:D913H         LINE#         309
  C:D913H         LINE#         311
  C:D925H         LINE#         312
  C:D925H         LINE#         313
  C:D92AH         LINE#         314
  C:D92AH         LINE#         315
  C:D931H         LINE#         316
  C:D938H         LINE#         317
  C:D93EH         LINE#         318
  C:D944H         LINE#         319
  C:D947H         LINE#         320
  C:D951H         LINE#         321
  C:D95DH         LINE#         323
  C:D962H         LINE#         324
  C:D962H         LINE#         325
  C:D969H         LINE#         326
  C:D970H         LINE#         327
  C:D976H         LINE#         328
  C:D97CH         LINE#         329
  C:D97FH         LINE#         330
  C:D989H         LINE#         331
  C:D995H         LINE#         332
  C:D99EH         LINE#         333
  -------         ENDPROC       _QIANSHOU_5
  -------         PROC          QIANSHOU_6
  -------         DO            
  X:0217H         SYMBOL        i
  X:0219H         SYMBOL        i1
  X:021BH         SYMBOL        i2
BL51 BANKED LINKER/LOCATER V6.00                                                      09/09/2017  17:29:44  PAGE 150


  -------         ENDDO         
  C:97CCH         LINE#         340
  C:97CCH         LINE#         341
  C:97CCH         LINE#         344
  C:97D9H         LINE#         345
  C:97E6H         LINE#         347
  C:97E9H         LINE#         348
  C:97ECH         LINE#         349
  C:97EFH         LINE#         351
  C:9817H         LINE#         353
  C:9898H         LINE#         354
  C:98A3H         LINE#         357
  C:98A6H         LINE#         358
  C:98A9H         LINE#         359
  C:98ACH         LINE#         360
  C:98B1H         LINE#         362
  C:98E4H         LINE#         363
  C:9965H         LINE#         364
  C:9970H         LINE#         365
  C:9975H         LINE#         368
  C:99E4H         LINE#         369
  C:99EFH         LINE#         370
  -------         ENDPROC       QIANSHOU_6
  -------         PROC          _QIANSHOU_7
  X:0217H         SYMBOL        number
  -------         DO            
  X:0218H         SYMBOL        j
  X:0219H         SYMBOL        i
  -------         ENDDO         
  C:6A50H         LINE#         379
  C:6A55H         LINE#         380
  C:6A55H         LINE#         382
  C:6A58H         LINE#         383
  C:6A58H         LINE#         384
  C:6A5FH         LINE#         385
  C:6A66H         LINE#         386
  C:6A6CH         LINE#         387
  C:6A72H         LINE#         388
  C:6A75H         LINE#         389
  C:6A7CH         LINE#         390
  C:6A88H         LINE#         392
  C:6A8BH         LINE#         394
  C:6AA0H         LINE#         395
  C:6AA0H         LINE#         396
  C:6AA5H         LINE#         397
  C:6AA5H         LINE#         398
  C:6AABH         LINE#         399
  C:6AB0H         LINE#         400
  C:6AB4H         LINE#         401
  C:6AB8H         LINE#         402
  C:6ABDH         LINE#         403
  C:6AC1H         LINE#         404
  C:6AC4H         LINE#         405
  C:6ACBH         LINE#         406
  C:6AD7H         LINE#         407
  C:6ADAH         LINE#         408
  C:6ADDH         LINE#         409
BL51 BANKED LINKER/LOCATER V6.00                                                      09/09/2017  17:29:44  PAGE 151


  C:6AE2H         LINE#         410
  C:6AE2H         LINE#         411
  C:6AE8H         LINE#         412
  C:6AEDH         LINE#         413
  C:6AF1H         LINE#         414
  C:6AF5H         LINE#         415
  C:6AFAH         LINE#         416
  C:6AFEH         LINE#         417
  C:6B01H         LINE#         418
  C:6B08H         LINE#         419
  C:6B14H         LINE#         420
  C:6B1DH         LINE#         422
  C:6B20H         LINE#         423
  C:6B4BH         LINE#         424
  C:6B4BH         LINE#         425
  C:6B51H         LINE#         426
  C:6B56H         LINE#         427
  C:6B5AH         LINE#         428
  C:6B5EH         LINE#         429
  C:6B63H         LINE#         430
  C:6B67H         LINE#         431
  C:6B6AH         LINE#         432
  C:6B71H         LINE#         433
  C:6B79H         LINE#         434
  C:6B9BH         LINE#         435
  C:6B9BH         LINE#         436
  C:6B9BH         LINE#         437
  C:6B9BH         LINE#         438
  C:6B9BH         LINE#         439
  C:6B9BH         LINE#         440
  C:6B9BH         LINE#         441
  C:6B9BH         LINE#         442
  C:6B9EH         LINE#         443
  C:6BA5H         LINE#         444
  C:6BADH         LINE#         446
  C:6BB2H         LINE#         447
  C:6BB2H         LINE#         448
  C:6BB9H         LINE#         449
  C:6BC0H         LINE#         450
  C:6BC7H         LINE#         451
  C:6BCEH         LINE#         452
  C:6BD1H         LINE#         453
  C:6BD8H         LINE#         454
  C:6BE4H         LINE#         455
  C:6BE9H         LINE#         456
  C:6BECH         LINE#         458
  C:6C01H         LINE#         459
  C:6C01H         LINE#         460
  C:6C06H         LINE#         461
  C:6C06H         LINE#         462
  C:6C0CH         LINE#         463
  C:6C12H         LINE#         464
  C:6C18H         LINE#         465
  C:6C1EH         LINE#         466
  C:6C21H         LINE#         467
  C:6C28H         LINE#         468
  C:6C34H         LINE#         470
BL51 BANKED LINKER/LOCATER V6.00                                                      09/09/2017  17:29:44  PAGE 152


  C:6C39H         LINE#         471
  C:6C39H         LINE#         472
  C:6C3FH         LINE#         473
  C:6C45H         LINE#         474
  C:6C4BH         LINE#         475
  C:6C51H         LINE#         476
  C:6C54H         LINE#         477
  C:6C5BH         LINE#         478
  C:6C67H         LINE#         480
  C:6C6CH         LINE#         481
  C:6C6CH         LINE#         482
  C:6C72H         LINE#         483
  C:6C78H         LINE#         484
  C:6C7EH         LINE#         485
  C:6C84H         LINE#         486
  C:6C87H         LINE#         487
  C:6C8EH         LINE#         488
  C:6C9AH         LINE#         489
  C:6C9FH         LINE#         490
  C:6C9FH         LINE#         491
  C:6CA5H         LINE#         492
  C:6CABH         LINE#         493
  C:6CB1H         LINE#         494
  C:6CB7H         LINE#         495
  C:6CBAH         LINE#         496
  C:6CC1H         LINE#         497
  C:6CCDH         LINE#         498
  C:6CD6H         LINE#         500
  C:6CD9H         LINE#         501
  C:6CFBH         LINE#         502
  C:6CFBH         LINE#         503
  C:6CFBH         LINE#         504
  C:6CFBH         LINE#         505
  C:6CFBH         LINE#         506
  C:6CFBH         LINE#         507
  C:6CFBH         LINE#         508
  C:6CFBH         LINE#         509
  C:6CFEH         LINE#         510
  C:6D05H         LINE#         511
  C:6D0DH         LINE#         513
  C:6D38H         LINE#         514
  C:6D38H         LINE#         515
  C:6D3EH         LINE#         516
  C:6D43H         LINE#         517
  C:6D47H         LINE#         518
  C:6D4BH         LINE#         519
  C:6D50H         LINE#         520
  C:6D54H         LINE#         521
  C:6D57H         LINE#         522
  C:6D5EH         LINE#         523
  C:6D66H         LINE#         525
  C:6D6BH         LINE#         526
  C:6D6BH         LINE#         527
  C:6D71H         LINE#         528
  C:6D77H         LINE#         529
  C:6D7AH         LINE#         530
  C:6D81H         LINE#         531
BL51 BANKED LINKER/LOCATER V6.00                                                      09/09/2017  17:29:44  PAGE 153


  C:6D8DH         LINE#         532
  -------         ENDPROC       _QIANSHOU_7
  -------         PROC          QIANSHOU_8
  -------         DO            
  X:0217H         SYMBOL        j
  -------         ENDDO         
  C:CA6AH         LINE#         539
  C:CA6AH         LINE#         540
  C:CA6AH         LINE#         543
  C:CA6FH         LINE#         544
  C:CA6FH         LINE#         545
  C:CA76H         LINE#         546
  C:CA7DH         LINE#         547
  C:CA83H         LINE#         548
  C:CA89H         LINE#         549
  C:CA8CH         LINE#         550
  C:CA93H         LINE#         551
  C:CA9FH         LINE#         553
  C:CAA2H         LINE#         555
  C:CAA7H         LINE#         556
  C:CAA7H         LINE#         557
  C:CAADH         LINE#         558
  C:CAB1H         LINE#         559
  C:CAB5H         LINE#         560
  C:CAB9H         LINE#         561
  C:CABCH         LINE#         562
  C:CAC3H         LINE#         563
  C:CACFH         LINE#         565
  C:CAD4H         LINE#         567
  C:CAD9H         LINE#         568
  C:CAD9H         LINE#         569
  C:CADFH         LINE#         570
  C:CAE3H         LINE#         571
  C:CAE7H         LINE#         572
  C:CAEBH         LINE#         573
  C:CAEEH         LINE#         574
  C:CAF5H         LINE#         575
  C:CB01H         LINE#         577
  C:CB06H         LINE#         579
  C:CB0BH         LINE#         580
  C:CB0BH         LINE#         581
  C:CB11H         LINE#         582
  C:CB15H         LINE#         583
  C:CB19H         LINE#         584
  C:CB1DH         LINE#         585
  C:CB20H         LINE#         586
  C:CB27H         LINE#         587
  C:CB33H         LINE#         589
  C:CB36H         LINE#         591
  C:CB3BH         LINE#         592
  C:CB3BH         LINE#         593
  C:CB42H         LINE#         594
  C:CB49H         LINE#         595
  C:CB4FH         LINE#         596
  C:CB55H         LINE#         597
  C:CB58H         LINE#         598
  C:CB5FH         LINE#         599
BL51 BANKED LINKER/LOCATER V6.00                                                      09/09/2017  17:29:44  PAGE 154


  C:CB6BH         LINE#         600
  -------         ENDPROC       QIANSHOU_8
  -------         PROC          _QIANSHOU_9
  X:0217H         SYMBOL        number
  -------         DO            
  X:0218H         SYMBOL        j
  X:0219H         SYMBOL        i
  -------         ENDDO         
  C:C3E6H         LINE#         607
  C:C3EBH         LINE#         608
  C:C3EBH         LINE#         612
  C:C400H         LINE#         613
  C:C400H         LINE#         614
  C:C403H         LINE#         615
  C:C408H         LINE#         616
  C:C408H         LINE#         617
  C:C40FH         LINE#         618
  C:C416H         LINE#         619
  C:C41CH         LINE#         620
  C:C422H         LINE#         621
  C:C425H         LINE#         622
  C:C42CH         LINE#         623
  C:C438H         LINE#         624
  C:C43BH         LINE#         625
  C:C43EH         LINE#         626
  C:C443H         LINE#         627
  C:C443H         LINE#         628
  C:C44AH         LINE#         629
  C:C451H         LINE#         630
  C:C457H         LINE#         631
  C:C45DH         LINE#         632
  C:C460H         LINE#         633
  C:C467H         LINE#         634
  C:C473H         LINE#         635
  C:C476H         LINE#         636
  C:C47FH         LINE#         638
  C:C491H         LINE#         639
  C:C491H         LINE#         640
  C:C494H         LINE#         641
  C:C499H         LINE#         642
  C:C499H         LINE#         643
  C:C4A0H         LINE#         644
  C:C4A7H         LINE#         645
  C:C4ADH         LINE#         646
  C:C4B3H         LINE#         647
  C:C4B6H         LINE#         648
  C:C4BDH         LINE#         649
  C:C4C9H         LINE#         650
  C:C4CEH         LINE#         651
  C:C4CEH         LINE#         652
  C:C4D5H         LINE#         653
  C:C4DCH         LINE#         654
  C:C4E2H         LINE#         655
  C:C4E8H         LINE#         656
  C:C4EBH         LINE#         657
  C:C4F2H         LINE#         658
  C:C4FEH         LINE#         659
BL51 BANKED LINKER/LOCATER V6.00                                                      09/09/2017  17:29:44  PAGE 155


  C:C501H         LINE#         660
  C:C50AH         LINE#         661
  -------         ENDPROC       _QIANSHOU_9
  -------         PROC          _QIANSHOU_10
  X:0217H         SYMBOL        number
  -------         DO            
  X:0218H         SYMBOL        j
  X:0219H         SYMBOL        i
  -------         ENDDO         
  C:9C02H         LINE#         667
  C:9C07H         LINE#         668
  C:9C07H         LINE#         671
  C:9C0AH         LINE#         672
  C:9C0AH         LINE#         673
  C:9C10H         LINE#         674
  C:9C16H         LINE#         675
  C:9C19H         LINE#         676
  C:9C20H         LINE#         677
  C:9C2CH         LINE#         678
  C:9C31H         LINE#         679
  C:9C31H         LINE#         680
  C:9C37H         LINE#         681
  C:9C3DH         LINE#         682
  C:9C43H         LINE#         683
  C:9C49H         LINE#         684
  C:9C4CH         LINE#         685
  C:9C53H         LINE#         686
  C:9C5FH         LINE#         688
  C:9C64H         LINE#         689
  C:9C64H         LINE#         690
  C:9C6AH         LINE#         691
  C:9C70H         LINE#         692
  C:9C76H         LINE#         693
  C:9C7CH         LINE#         694
  C:9C7FH         LINE#         695
  C:9C86H         LINE#         696
  C:9C92H         LINE#         698
  C:9C97H         LINE#         699
  C:9C97H         LINE#         700
  C:9C9DH         LINE#         701
  C:9CA3H         LINE#         702
  C:9CA9H         LINE#         703
  C:9CAFH         LINE#         704
  C:9CB2H         LINE#         705
  C:9CB9H         LINE#         706
  C:9CC5H         LINE#         707
  C:9CC8H         LINE#         710
  C:9CCDH         LINE#         711
  C:9CCDH         LINE#         712
  C:9CD3H         LINE#         713
  C:9CD9H         LINE#         714
  C:9CDFH         LINE#         715
  C:9CE5H         LINE#         716
  C:9CE8H         LINE#         717
  C:9CEFH         LINE#         718
  C:9CFBH         LINE#         719
  C:9D10H         LINE#         720
BL51 BANKED LINKER/LOCATER V6.00                                                      09/09/2017  17:29:44  PAGE 156


  C:9D10H         LINE#         721
  C:9D15H         LINE#         722
  C:9D15H         LINE#         723
  C:9D1BH         LINE#         724
  C:9D21H         LINE#         725
  C:9D27H         LINE#         726
  C:9D2DH         LINE#         727
  C:9D30H         LINE#         728
  C:9D37H         LINE#         729
  C:9D43H         LINE#         731
  C:9D48H         LINE#         732
  C:9D48H         LINE#         733
  C:9D4EH         LINE#         734
  C:9D54H         LINE#         735
  C:9D5AH         LINE#         736
  C:9D60H         LINE#         737
  C:9D63H         LINE#         738
  C:9D6AH         LINE#         739
  C:9D76H         LINE#         741
  C:9D7BH         LINE#         742
  C:9D7BH         LINE#         743
  C:9D81H         LINE#         744
  C:9D87H         LINE#         745
  C:9D8DH         LINE#         746
  C:9D93H         LINE#         747
  C:9D96H         LINE#         748
  C:9D9DH         LINE#         749
  C:9DA9H         LINE#         750
  C:9DAEH         LINE#         751
  C:9DAEH         LINE#         752
  C:9DB4H         LINE#         753
  C:9DBAH         LINE#         754
  C:9DC0H         LINE#         755
  C:9DC6H         LINE#         756
  C:9DC9H         LINE#         757
  C:9DD0H         LINE#         758
  C:9DDCH         LINE#         759
  C:9DE5H         LINE#         760
  C:9DE8H         LINE#         763
  C:9DEDH         LINE#         764
  C:9DEDH         LINE#         765
  C:9DF3H         LINE#         766
  C:9DF9H         LINE#         767
  C:9DFCH         LINE#         768
  C:9E03H         LINE#         769
  C:9E0FH         LINE#         770
  -------         ENDPROC       _QIANSHOU_10
  -------         PROC          QIANSHOU
  -------         DO            
  X:0216H         SYMBOL        j
  -------         ENDDO         
  C:D300H         LINE#         777
  C:D300H         LINE#         778
  C:D300H         LINE#         780
  C:D305H         LINE#         781
  C:D305H         LINE#         782
  C:D30CH         LINE#         783
BL51 BANKED LINKER/LOCATER V6.00                                                      09/09/2017  17:29:44  PAGE 157


  C:D313H         LINE#         784
  C:D319H         LINE#         785
  C:D31DH         LINE#         786
  C:D320H         LINE#         787
  C:D327H         LINE#         788
  C:D333H         LINE#         790
  C:D338H         LINE#         792
  C:D33BH         LINE#         793
  C:D33EH         LINE#         794
  C:D343H         LINE#         795
  C:D348H         LINE#         796
  C:D34DH         LINE#         797
  C:D352H         LINE#         798
  C:D359H         LINE#         799
  C:D360H         LINE#         800
  C:D367H         LINE#         801
  C:D36EH         LINE#         802
  C:D375H         LINE#         803
  C:D37AH         LINE#         804
  C:D37DH         LINE#         805
  C:D382H         LINE#         806
  C:D385H         LINE#         808
  C:D38AH         LINE#         809
  C:D38AH         LINE#         810
  C:D391H         LINE#         811
  C:D398H         LINE#         812
  C:D39EH         LINE#         813
  C:D3A2H         LINE#         814
  C:D3A5H         LINE#         815
  C:D3ACH         LINE#         816
  C:D3B8H         LINE#         817
  -------         ENDPROC       QIANSHOU
  -------         ENDMOD        QIANSHOU

  -------         MODULE        QIAOXIYANG
  C:0000H         SYMBOL        _ICE_DUMMY_
  D:0080H         PUBLIC        P0
  D:0090H         PUBLIC        P1
  D:00A0H         PUBLIC        P2
  D:00B0H         PUBLIC        P3
  D:00C0H         PUBLIC        P4
  D:00C8H         PUBLIC        P5
  D:00E8H         PUBLIC        P6
  D:00F8H         PUBLIC        P7
  D:00A8H         PUBLIC        IE
  D:00B8H         PUBLIC        IP
  D:00D8H         PUBLIC        CCON
  C:000AH         PUBLIC        xiyang_1
  C:001EH         PUBLIC        xiyang_2
  C:001FH         PUBLIC        xiyang_3
  C:0020H         PUBLIC        xiyang_4
  C:B670H         PUBLIC        xiyang_5
  C:353EH         PUBLIC        xiyang_6
  C:6357H         PUBLIC        xiyang_7
  C:D477H         PUBLIC        xiyang_8
  C:8C65H         PUBLIC        xiyang_9
  D:0098H         PUBLIC        SCON
BL51 BANKED LINKER/LOCATER V6.00                                                      09/09/2017  17:29:44  PAGE 158


  D:0088H         PUBLIC        TCON
  C:EBBBH         PUBLIC        qiaoxiyang
  D:00F0H         PUBLIC        B
  C:8EC9H         PUBLIC        xiyang_10
  C:E079H         PUBLIC        _xiyang_xiao7
  D:00D0H         PUBLIC        PSW
  -------         PROC          XIYANG_1
  C:000AH         LINE#         14
  C:000AH         LINE#         15
  C:000AH         LINE#         168
  -------         ENDPROC       XIYANG_1
  -------         PROC          XIYANG_2
  C:001EH         LINE#         175
  C:001EH         LINE#         176
  C:001EH         LINE#         425
  -------         ENDPROC       XIYANG_2
  -------         PROC          XIYANG_3
  C:001FH         LINE#         432
  C:001FH         LINE#         433
  C:001FH         LINE#         501
  -------         ENDPROC       XIYANG_3
  -------         PROC          XIYANG_4
  C:0020H         LINE#         508
  C:0020H         LINE#         509
  C:0020H         LINE#         766
  -------         ENDPROC       XIYANG_4
  -------         PROC          XIYANG_5
  -------         DO            
  X:0216H         SYMBOL        j
  X:0217H         SYMBOL        i
  -------         ENDDO         
  C:B670H         LINE#         774
  C:B670H         LINE#         775
  C:B670H         LINE#         777
  C:B675H         LINE#         778
  C:B675H         LINE#         779
  C:B67BH         LINE#         780
  C:B67FH         LINE#         781
  C:B683H         LINE#         782
  C:B687H         LINE#         783
  C:B68AH         LINE#         784
  C:B691H         LINE#         785
  C:B69DH         LINE#         786
  C:B6A2H         LINE#         787
  C:B6A5H         LINE#         788
  C:B6A8H         LINE#         789
  C:B6ABH         LINE#         790
  C:B6AEH         LINE#         791
  C:B6B1H         LINE#         792
  C:B6B4H         LINE#         793
  C:B6B7H         LINE#         794
  C:B6BAH         LINE#         795
  C:B6BFH         LINE#         796
  C:B6BFH         LINE#         797
  C:B6C4H         LINE#         798
  C:B6C4H         LINE#         799
  C:B6CBH         LINE#         800
BL51 BANKED LINKER/LOCATER V6.00                                                      09/09/2017  17:29:44  PAGE 159


  C:B6D0H         LINE#         801
  C:B6D5H         LINE#         802
  C:B6DCH         LINE#         803
  C:B6DFH         LINE#         804
  C:B6E6H         LINE#         805
  C:B6F2H         LINE#         806
  C:B6F7H         LINE#         807
  C:B6FCH         LINE#         808
  C:B6FCH         LINE#         809
  C:B703H         LINE#         810
  C:B708H         LINE#         811
  C:B70DH         LINE#         812
  C:B714H         LINE#         813
  C:B717H         LINE#         814
  C:B71EH         LINE#         815
  C:B72AH         LINE#         816
  C:B72FH         LINE#         817
  C:B73BH         LINE#         818
  C:B73EH         LINE#         819
  C:B741H         LINE#         820
  C:B744H         LINE#         821
  C:B747H         LINE#         822
  C:B74AH         LINE#         823
  C:B74DH         LINE#         824
  C:B750H         LINE#         825
  C:B753H         LINE#         826
  C:B758H         LINE#         827
  C:B758H         LINE#         828
  C:B75DH         LINE#         829
  C:B75DH         LINE#         830
  C:B764H         LINE#         831
  C:B769H         LINE#         832
  C:B76EH         LINE#         833
  C:B775H         LINE#         834
  C:B778H         LINE#         835
  C:B77FH         LINE#         836
  C:B78BH         LINE#         837
  C:B790H         LINE#         838
  C:B790H         LINE#         839
  C:B797H         LINE#         840
  C:B79CH         LINE#         841
  C:B7A1H         LINE#         842
  C:B7A8H         LINE#         843
  C:B7ABH         LINE#         844
  C:B7B2H         LINE#         845
  C:B7BEH         LINE#         846
  C:B7CAH         LINE#         847
  C:B7CFH         LINE#         848
  C:B7D4H         LINE#         849
  C:B7D4H         LINE#         850
  C:B7DAH         LINE#         851
  C:B7DEH         LINE#         852
  C:B7E2H         LINE#         853
  C:B7E6H         LINE#         854
  C:B7E9H         LINE#         855
  C:B7F0H         LINE#         856
  C:B7FCH         LINE#         857
BL51 BANKED LINKER/LOCATER V6.00                                                      09/09/2017  17:29:44  PAGE 160


  C:B801H         LINE#         858
  -------         ENDPROC       XIYANG_5
  -------         PROC          XIYANG_6
  -------         DO            
  X:0216H         SYMBOL        j
  X:0217H         SYMBOL        i
  X:0218H         SYMBOL        k
  X:0219H         SYMBOL        l
  -------         ENDDO         
  C:353EH         LINE#         867
  C:353EH         LINE#         868
  C:353EH         LINE#         870
  C:3543H         LINE#         871
  C:3543H         LINE#         872
  C:354AH         LINE#         873
  C:3551H         LINE#         874
  C:3554H         LINE#         875
  C:355BH         LINE#         876
  C:3567H         LINE#         877
  C:356CH         LINE#         878
  C:356CH         LINE#         879
  C:3573H         LINE#         880
  C:357AH         LINE#         881
  C:357DH         LINE#         882
  C:3584H         LINE#         883
  C:3590H         LINE#         884
  C:3595H         LINE#         885
  C:359AH         LINE#         886
  C:359AH         LINE#         887
  C:359FH         LINE#         888
  C:359FH         LINE#         889
  C:35A5H         LINE#         890
  C:35A9H         LINE#         891
  C:35ADH         LINE#         892
  C:35B1H         LINE#         893
  C:35B6H         LINE#         894
  C:35BBH         LINE#         895
  C:35C0H         LINE#         896
  C:35C5H         LINE#         897
  C:35CAH         LINE#         898
  C:35CDH         LINE#         899
  C:35D4H         LINE#         900
  C:35E0H         LINE#         901
  C:35E5H         LINE#         902
  C:35EAH         LINE#         903
  C:35EAH         LINE#         904
  C:35F0H         LINE#         905
  C:35F4H         LINE#         906
  C:35F8H         LINE#         907
  C:35FCH         LINE#         908
  C:3601H         LINE#         909
  C:3606H         LINE#         910
  C:360BH         LINE#         911
  C:3610H         LINE#         912
  C:3615H         LINE#         913
  C:3618H         LINE#         914
  C:361FH         LINE#         915
BL51 BANKED LINKER/LOCATER V6.00                                                      09/09/2017  17:29:44  PAGE 161


  C:362BH         LINE#         916
  C:3630H         LINE#         917
  C:363FH         LINE#         918
  C:3644H         LINE#         919
  C:3644H         LINE#         920
  C:364BH         LINE#         921
  C:3652H         LINE#         922
  C:3655H         LINE#         923
  C:365CH         LINE#         924
  C:3668H         LINE#         925
  C:366DH         LINE#         926
  C:366DH         LINE#         927
  C:3672H         LINE#         928
  C:3672H         LINE#         929
  C:3678H         LINE#         930
  C:367CH         LINE#         931
  C:3680H         LINE#         932
  C:3684H         LINE#         933
  C:3689H         LINE#         934
  C:368EH         LINE#         935
  C:3693H         LINE#         936
  C:3698H         LINE#         937
  C:369DH         LINE#         938
  C:36A0H         LINE#         939
  C:36A7H         LINE#         940
  C:36B3H         LINE#         941
  C:36B8H         LINE#         942
  C:36BDH         LINE#         943
  C:36BDH         LINE#         944
  C:36C3H         LINE#         945
  C:36C7H         LINE#         946
  C:36CBH         LINE#         947
  C:36CFH         LINE#         948
  C:36D4H         LINE#         949
  C:36D9H         LINE#         950
  C:36DEH         LINE#         951
  C:36E3H         LINE#         952
  C:36E8H         LINE#         953
  C:36EBH         LINE#         954
  C:36F2H         LINE#         955
  C:36FEH         LINE#         956
  C:3703H         LINE#         957
  C:3712H         LINE#         958
  C:3717H         LINE#         959
  C:3717H         LINE#         960
  C:371EH         LINE#         961
  C:3725H         LINE#         962
  C:372CH         LINE#         963
  C:372FH         LINE#         964
  C:3736H         LINE#         965
  C:3742H         LINE#         966
  C:3747H         LINE#         967
  C:374DH         LINE#         968
  C:3752H         LINE#         969
  C:3752H         LINE#         970
  C:3757H         LINE#         971
  C:3757H         LINE#         972
BL51 BANKED LINKER/LOCATER V6.00                                                      09/09/2017  17:29:44  PAGE 162


  C:375DH         LINE#         973
  C:3761H         LINE#         974
  C:3765H         LINE#         975
  C:3769H         LINE#         976
  C:3774H         LINE#         977
  C:377BH         LINE#         978
  C:377EH         LINE#         979
  C:3785H         LINE#         980
  C:3791H         LINE#         981
  C:3796H         LINE#         982
  C:379BH         LINE#         983
  C:379BH         LINE#         984
  C:37A1H         LINE#         985
  C:37A5H         LINE#         986
  C:37A9H         LINE#         987
  C:37ADH         LINE#         988
  C:37BCH         LINE#         989
  C:37C2H         LINE#         990
  C:37C5H         LINE#         991
  C:37CCH         LINE#         992
  C:37D8H         LINE#         993
  C:37DDH         LINE#         994
  C:37E4H         LINE#         995
  C:37F3H         LINE#         996
  C:37F8H         LINE#         997
  C:37F8H         LINE#         998
  C:37FFH         LINE#         999
  C:3804H         LINE#         1000
  C:3807H         LINE#         1001
  C:380EH         LINE#         1002
  C:381AH         LINE#         1003
  C:381FH         LINE#         1004
  C:3825H         LINE#         1005
  C:382AH         LINE#         1006
  C:382AH         LINE#         1007
  C:382FH         LINE#         1008
  C:382FH         LINE#         1009
  C:3835H         LINE#         1010
  C:3839H         LINE#         1011
  C:383DH         LINE#         1012
  C:3841H         LINE#         1013
  C:384CH         LINE#         1014
  C:3853H         LINE#         1015
  C:385AH         LINE#         1016
  C:385DH         LINE#         1017
  C:3864H         LINE#         1018
  C:3870H         LINE#         1019
  C:3875H         LINE#         1020
  C:387AH         LINE#         1021
  C:387AH         LINE#         1022
  C:3880H         LINE#         1023
  C:3884H         LINE#         1024
  C:3888H         LINE#         1025
  C:388CH         LINE#         1026
  C:389BH         LINE#         1027
  C:38A1H         LINE#         1028
  C:38A8H         LINE#         1029
BL51 BANKED LINKER/LOCATER V6.00                                                      09/09/2017  17:29:44  PAGE 163


  C:38ABH         LINE#         1030
  C:38B2H         LINE#         1031
  C:38BEH         LINE#         1032
  C:38C3H         LINE#         1033
  C:38CAH         LINE#         1034
  C:38D9H         LINE#         1035
  C:38DEH         LINE#         1036
  C:38DEH         LINE#         1037
  C:38E5H         LINE#         1038
  C:38E8H         LINE#         1039
  C:38EFH         LINE#         1040
  C:38FBH         LINE#         1041
  C:3900H         LINE#         1042
  C:3905H         LINE#         1043
  C:3905H         LINE#         1044
  C:390AH         LINE#         1045
  C:390AH         LINE#         1046
  C:3911H         LINE#         1047
  C:3916H         LINE#         1048
  C:391BH         LINE#         1049
  C:3920H         LINE#         1050
  C:3923H         LINE#         1051
  C:392AH         LINE#         1052
  C:3936H         LINE#         1053
  C:393BH         LINE#         1054
  C:3940H         LINE#         1055
  C:3940H         LINE#         1056
  C:3947H         LINE#         1057
  C:394CH         LINE#         1058
  C:3951H         LINE#         1059
  C:3956H         LINE#         1060
  C:3959H         LINE#         1061
  C:3960H         LINE#         1062
  C:396CH         LINE#         1063
  C:3971H         LINE#         1064
  C:397DH         LINE#         1065
  C:3982H         LINE#         1066
  C:3982H         LINE#         1067
  C:3989H         LINE#         1068
  C:398EH         LINE#         1069
  C:3991H         LINE#         1070
  C:3998H         LINE#         1071
  C:39A4H         LINE#         1072
  C:39A9H         LINE#         1073
  C:39AEH         LINE#         1074
  C:39AEH         LINE#         1075
  C:39B5H         LINE#         1076
  C:39BCH         LINE#         1077
  C:39BFH         LINE#         1078
  C:39C6H         LINE#         1079
  C:39D2H         LINE#         1080
  C:39D7H         LINE#         1081
  -------         ENDPROC       XIYANG_6
  -------         PROC          _XIYANG_XIAO7
  X:0219H         SYMBOL        sudu1
  -------         DO            
  X:021AH         SYMBOL        i
BL51 BANKED LINKER/LOCATER V6.00                                                      09/09/2017  17:29:44  PAGE 164


  -------         ENDDO         
  C:E079H         LINE#         1091
  C:E07EH         LINE#         1092
  C:E07EH         LINE#         1095
  C:E081H         LINE#         1096
  C:E081H         LINE#         1097
  C:E088H         LINE#         1098
  C:E08DH         LINE#         1099
  C:E090H         LINE#         1100
  C:E09AH         LINE#         1102
  C:E0A6H         LINE#         1103
  C:E0ABH         LINE#         1104
  C:E0ABH         LINE#         1105
  C:E0B2H         LINE#         1106
  C:E0B7H         LINE#         1107
  C:E0BAH         LINE#         1108
  C:E0C4H         LINE#         1109
  C:E0D0H         LINE#         1112
  -------         ENDPROC       _XIYANG_XIAO7
  -------         PROC          XIYANG_7
  -------         DO            
  X:0216H         SYMBOL        k
  X:0217H         SYMBOL        i
  X:0218H         SYMBOL        j
  -------         ENDDO         
  C:6357H         LINE#         1120
  C:6357H         LINE#         1121
  C:6357H         LINE#         1123
  C:635CH         LINE#         1124
  C:635CH         LINE#         1125
  C:6362H         LINE#         1126
  C:6368H         LINE#         1127
  C:636BH         LINE#         1128
  C:6372H         LINE#         1129
  C:637EH         LINE#         1130
  C:6383H         LINE#         1131
  C:6383H         LINE#         1132
  C:6388H         LINE#         1133
  C:6388H         LINE#         1134
  C:638EH         LINE#         1135
  C:6392H         LINE#         1136
  C:6396H         LINE#         1137
  C:639AH         LINE#         1138
  C:639EH         LINE#         1139
  C:63A4H         LINE#         1140
  C:63A7H         LINE#         1141
  C:63AEH         LINE#         1142
  C:63BAH         LINE#         1143
  C:63BFH         LINE#         1144
  C:63BFH         LINE#         1145
  C:63C5H         LINE#         1146
  C:63C9H         LINE#         1148
  C:63CDH         LINE#         1149
  C:63D1H         LINE#         1151
  C:63D5H         LINE#         1153
  C:63DBH         LINE#         1154
  C:63DEH         LINE#         1155
BL51 BANKED LINKER/LOCATER V6.00                                                      09/09/2017  17:29:44  PAGE 165


  C:63E5H         LINE#         1156
  C:63F1H         LINE#         1157
  C:63F6H         LINE#         1158
  C:63F6H         LINE#         1159
  C:63FCH         LINE#         1160
  C:6400H         LINE#         1161
  C:6404H         LINE#         1162
  C:6408H         LINE#         1163
  C:640CH         LINE#         1164
  C:6412H         LINE#         1165
  C:6415H         LINE#         1166
  C:641CH         LINE#         1167
  C:6428H         LINE#         1168
  C:6437H         LINE#         1169
  C:643CH         LINE#         1170
  C:643CH         LINE#         1171
  C:6442H         LINE#         1172
  C:6448H         LINE#         1173
  C:644BH         LINE#         1174
  C:6452H         LINE#         1175
  C:645EH         LINE#         1177
  C:6463H         LINE#         1178
  C:6463H         LINE#         1179
  C:6469H         LINE#         1180
  C:646FH         LINE#         1181
  C:6472H         LINE#         1182
  C:6479H         LINE#         1183
  C:6485H         LINE#         1185
  C:648AH         LINE#         1186
  C:648FH         LINE#         1187
  C:6494H         LINE#         1188
  C:6499H         LINE#         1189
  C:649EH         LINE#         1190
  C:649EH         LINE#         1191
  C:64A8H         LINE#         1192
  C:64A8H         LINE#         1194
  C:64ADH         LINE#         1195
  C:64ADH         LINE#         1196
  C:64B3H         LINE#         1197
  C:64B7H         LINE#         1198
  C:64BBH         LINE#         1199
  C:64BFH         LINE#         1200
  C:64C2H         LINE#         1201
  C:64C9H         LINE#         1202
  C:64D5H         LINE#         1203
  C:64DAH         LINE#         1204
  C:64DFH         LINE#         1205
  C:64DFH         LINE#         1206
  C:64E6H         LINE#         1207
  C:64EBH         LINE#         1208
  C:64F0H         LINE#         1209
  C:64F7H         LINE#         1210
  C:64FCH         LINE#         1211
  C:64FFH         LINE#         1212
  C:6506H         LINE#         1214
  C:6512H         LINE#         1215
  C:6517H         LINE#         1216
BL51 BANKED LINKER/LOCATER V6.00                                                      09/09/2017  17:29:44  PAGE 166


  C:651CH         LINE#         1217
  C:651CH         LINE#         1218
  C:6523H         LINE#         1219
  C:6528H         LINE#         1220
  C:652DH         LINE#         1221
  C:6534H         LINE#         1222
  C:6539H         LINE#         1223
  C:653CH         LINE#         1224
  C:6543H         LINE#         1225
  C:654FH         LINE#         1226
  C:6554H         LINE#         1227
  C:6559H         LINE#         1228
  C:6559H         LINE#         1229
  C:655FH         LINE#         1230
  C:6563H         LINE#         1231
  C:6567H         LINE#         1232
  C:656BH         LINE#         1233
  C:656EH         LINE#         1234
  C:6575H         LINE#         1235
  C:6584H         LINE#         1237
  C:6584H         LINE#         1241
  C:6584H         LINE#         1242
  C:6589H         LINE#         1243
  C:6589H         LINE#         1244
  C:658FH         LINE#         1245
  C:6593H         LINE#         1246
  C:6597H         LINE#         1247
  C:659BH         LINE#         1248
  C:659EH         LINE#         1249
  C:65A5H         LINE#         1250
  C:65B1H         LINE#         1251
  C:65B6H         LINE#         1252
  C:65BBH         LINE#         1253
  C:65BBH         LINE#         1254
  C:65C2H         LINE#         1255
  C:65C7H         LINE#         1256
  C:65CCH         LINE#         1257
  C:65D3H         LINE#         1258
  C:65D8H         LINE#         1259
  C:65DBH         LINE#         1260
  C:65E2H         LINE#         1262
  C:65EEH         LINE#         1263
  C:65F3H         LINE#         1264
  C:65F8H         LINE#         1265
  C:65F8H         LINE#         1266
  C:65FFH         LINE#         1267
  C:6604H         LINE#         1268
  C:6609H         LINE#         1269
  C:6610H         LINE#         1270
  C:6615H         LINE#         1271
  C:6618H         LINE#         1272
  C:661FH         LINE#         1273
  C:662BH         LINE#         1274
  C:6630H         LINE#         1275
  C:6635H         LINE#         1276
  C:6635H         LINE#         1277
  C:663BH         LINE#         1278
BL51 BANKED LINKER/LOCATER V6.00                                                      09/09/2017  17:29:44  PAGE 167


  C:663FH         LINE#         1279
  C:6643H         LINE#         1280
  C:6647H         LINE#         1281
  C:664AH         LINE#         1282
  C:6651H         LINE#         1283
  C:665DH         LINE#         1285
  C:665DH         LINE#         1286
  C:6663H         LINE#         1287
  C:6672H         LINE#         1288
  C:6679H         LINE#         1289
  C:667EH         LINE#         1290
  C:667EH         LINE#         1291
  C:6683H         LINE#         1292
  C:6683H         LINE#         1293
  C:668AH         LINE#         1294
  C:6691H         LINE#         1295
  C:6694H         LINE#         1296
  C:669BH         LINE#         1297
  C:66A7H         LINE#         1298
  C:66ACH         LINE#         1299
  C:66B8H         LINE#         1301
  C:66BDH         LINE#         1302
  C:66BDH         LINE#         1303
  C:66C4H         LINE#         1304
  C:66C9H         LINE#         1305
  C:66CEH         LINE#         1306
  C:66D3H         LINE#         1307
  C:66D6H         LINE#         1308
  C:66DDH         LINE#         1309
  C:66E9H         LINE#         1310
  C:66EEH         LINE#         1311
  -------         ENDPROC       XIYANG_7
  -------         PROC          XIYANG_8
  -------         DO            
  X:0216H         SYMBOL        i
  -------         ENDDO         
  C:D477H         LINE#         1320
  C:D477H         LINE#         1321
  C:D477H         LINE#         1325
  C:D47CH         LINE#         1326
  C:D47CH         LINE#         1327
  C:D483H         LINE#         1328
  C:D48AH         LINE#         1329
  C:D490H         LINE#         1330
  C:D493H         LINE#         1331
  C:D49AH         LINE#         1332
  C:D4A6H         LINE#         1334
  C:D4ABH         LINE#         1335
  C:D4ABH         LINE#         1336
  C:D4B1H         LINE#         1337
  C:D4B7H         LINE#         1338
  C:D4BAH         LINE#         1339
  C:D4C1H         LINE#         1340
  C:D4CDH         LINE#         1341
  C:D4D2H         LINE#         1343
  C:D4D7H         LINE#         1344
  C:D4D7H         LINE#         1345
BL51 BANKED LINKER/LOCATER V6.00                                                      09/09/2017  17:29:44  PAGE 168


  C:D4DDH         LINE#         1346
  C:D4E3H         LINE#         1347
  C:D4E6H         LINE#         1348
  C:D4EDH         LINE#         1349
  C:D4F9H         LINE#         1350
  C:D4FEH         LINE#         1351
  C:D4FEH         LINE#         1352
  C:D505H         LINE#         1353
  C:D50CH         LINE#         1354
  C:D512H         LINE#         1355
  C:D515H         LINE#         1356
  C:D51CH         LINE#         1357
  C:D528H         LINE#         1358
  -------         ENDPROC       XIYANG_8
  -------         PROC          XIYANG_9
  -------         DO            
  X:0216H         SYMBOL        j
  X:0217H         SYMBOL        i
  -------         ENDDO         
  C:8C65H         LINE#         1366
  C:8C65H         LINE#         1367
  C:8C65H         LINE#         1369
  C:8C6AH         LINE#         1370
  C:8C6AH         LINE#         1371
  C:8C70H         LINE#         1372
  C:8C75H         LINE#         1373
  C:8C79H         LINE#         1375
  C:8C7DH         LINE#         1376
  C:8C82H         LINE#         1377
  C:8C86H         LINE#         1378
  C:8C89H         LINE#         1379
  C:8C90H         LINE#         1380
  C:8C9CH         LINE#         1381
  C:8CA1H         LINE#         1382
  C:8CA1H         LINE#         1383
  C:8CA6H         LINE#         1384
  C:8CA6H         LINE#         1385
  C:8CACH         LINE#         1386
  C:8CB0H         LINE#         1388
  C:8CB4H         LINE#         1389
  C:8CB8H         LINE#         1391
  C:8CBFH         LINE#         1392
  C:8CC6H         LINE#         1393
  C:8CC9H         LINE#         1394
  C:8CD0H         LINE#         1395
  C:8CDCH         LINE#         1396
  C:8CE1H         LINE#         1397
  C:8CE1H         LINE#         1398
  C:8CE7H         LINE#         1399
  C:8CECH         LINE#         1400
  C:8CF0H         LINE#         1401
  C:8CF6H         LINE#         1402
  C:8CFAH         LINE#         1404
  C:8D01H         LINE#         1405
  C:8D08H         LINE#         1406
  C:8D0BH         LINE#         1407
  C:8D12H         LINE#         1408
BL51 BANKED LINKER/LOCATER V6.00                                                      09/09/2017  17:29:44  PAGE 169


  C:8D1EH         LINE#         1410
  C:8D23H         LINE#         1411
  C:8D23H         LINE#         1412
  C:8D29H         LINE#         1413
  C:8D2EH         LINE#         1414
  C:8D32H         LINE#         1415
  C:8D38H         LINE#         1416
  C:8D3CH         LINE#         1418
  C:8D43H         LINE#         1419
  C:8D4AH         LINE#         1420
  C:8D4DH         LINE#         1421
  C:8D54H         LINE#         1422
  C:8D60H         LINE#         1424
  C:8D65H         LINE#         1425
  C:8D65H         LINE#         1426
  C:8D6BH         LINE#         1427
  C:8D6FH         LINE#         1429
  C:8D73H         LINE#         1430
  C:8D77H         LINE#         1432
  C:8D7DH         LINE#         1433
  C:8D83H         LINE#         1435
  C:8D89H         LINE#         1436
  C:8D8FH         LINE#         1437
  C:8D92H         LINE#         1438
  C:8D99H         LINE#         1439
  C:8DA5H         LINE#         1440
  C:8DAAH         LINE#         1441
  C:8DAAH         LINE#         1442
  C:8DB0H         LINE#         1443
  C:8DB4H         LINE#         1445
  C:8DBBH         LINE#         1446
  C:8DC2H         LINE#         1448
  C:8DC9H         LINE#         1449
  C:8DD0H         LINE#         1450
  C:8DD3H         LINE#         1451
  C:8DDAH         LINE#         1452
  C:8DE6H         LINE#         1453
  C:8DF5H         LINE#         1454
  C:8DF5H         LINE#         1455
  C:8DFBH         LINE#         1456
  C:8DFFH         LINE#         1458
  C:8E03H         LINE#         1459
  C:8E07H         LINE#         1461
  C:8E0DH         LINE#         1462
  C:8E13H         LINE#         1464
  C:8E19H         LINE#         1465
  C:8E1FH         LINE#         1467
  C:8E28H         LINE#         1468
  C:8E28H         LINE#         1469
  C:8E2EH         LINE#         1470
  C:8E34H         LINE#         1472
  C:8E3AH         LINE#         1473
  C:8E40H         LINE#         1474
  C:8E40H         LINE#         1475
  C:8E43H         LINE#         1476
  C:8E4AH         LINE#         1477
  C:8E52H         LINE#         1480
BL51 BANKED LINKER/LOCATER V6.00                                                      09/09/2017  17:29:44  PAGE 170


  C:8E57H         LINE#         1481
  C:8E57H         LINE#         1482
  C:8E5EH         LINE#         1483
  C:8E65H         LINE#         1484
  C:8E68H         LINE#         1485
  C:8E6FH         LINE#         1486
  C:8E7BH         LINE#         1487
  C:8E8AH         LINE#         1488
  C:8E8FH         LINE#         1489
  C:8E8FH         LINE#         1490
  C:8E95H         LINE#         1491
  C:8E9AH         LINE#         1492
  C:8E9EH         LINE#         1494
  C:8EA2H         LINE#         1495
  C:8EA7H         LINE#         1496
  C:8EABH         LINE#         1497
  C:8EAEH         LINE#         1498
  C:8EB5H         LINE#         1499
  C:8EC1H         LINE#         1500
  C:8EC6H         LINE#         1501
  -------         ENDPROC       XIYANG_9
  -------         PROC          XIYANG_10
  -------         DO            
  X:0216H         SYMBOL        j
  X:0217H         SYMBOL        i
  -------         ENDDO         
  C:8EC9H         LINE#         1510
  C:8EC9H         LINE#         1511
  C:8EC9H         LINE#         1513
  C:8ECEH         LINE#         1514
  C:8ECEH         LINE#         1515
  C:8ED4H         LINE#         1516
  C:8ED9H         LINE#         1517
  C:8EDDH         LINE#         1519
  C:8EE1H         LINE#         1520
  C:8EE6H         LINE#         1521
  C:8EEAH         LINE#         1522
  C:8EEDH         LINE#         1523
  C:8EF4H         LINE#         1524
  C:8F00H         LINE#         1526
  C:8F05H         LINE#         1527
  C:8F05H         LINE#         1528
  C:8F0AH         LINE#         1529
  C:8F0AH         LINE#         1530
  C:8F10H         LINE#         1531
  C:8F14H         LINE#         1533
  C:8F18H         LINE#         1534
  C:8F1CH         LINE#         1536
  C:8F23H         LINE#         1537
  C:8F2AH         LINE#         1538
  C:8F2DH         LINE#         1539
  C:8F34H         LINE#         1540
  C:8F40H         LINE#         1541
  C:8F45H         LINE#         1542
  C:8F45H         LINE#         1543
  C:8F4BH         LINE#         1544
  C:8F50H         LINE#         1545
BL51 BANKED LINKER/LOCATER V6.00                                                      09/09/2017  17:29:44  PAGE 171


  C:8F54H         LINE#         1546
  C:8F5AH         LINE#         1547
  C:8F5EH         LINE#         1548
  C:8F65H         LINE#         1549
  C:8F6CH         LINE#         1550
  C:8F6FH         LINE#         1551
  C:8F76H         LINE#         1552
  C:8F82H         LINE#         1554
  C:8F87H         LINE#         1555
  C:8F87H         LINE#         1556
  C:8F8DH         LINE#         1557
  C:8F92H         LINE#         1558
  C:8F96H         LINE#         1559
  C:8F9CH         LINE#         1560
  C:8FA0H         LINE#         1561
  C:8FA7H         LINE#         1562
  C:8FAEH         LINE#         1563
  C:8FB1H         LINE#         1564
  C:8FB8H         LINE#         1565
  C:8FC4H         LINE#         1567
  C:8FC9H         LINE#         1568
  C:8FC9H         LINE#         1569
  C:8FCFH         LINE#         1570
  C:8FD3H         LINE#         1572
  C:8FD7H         LINE#         1573
  C:8FDBH         LINE#         1575
  C:8FE1H         LINE#         1576
  C:8FE7H         LINE#         1578
  C:8FEDH         LINE#         1579
  C:8FF3H         LINE#         1580
  C:8FF6H         LINE#         1581
  C:8FFDH         LINE#         1582
  C:9009H         LINE#         1583
  C:900EH         LINE#         1584
  C:900EH         LINE#         1585
  C:9014H         LINE#         1586
  C:9018H         LINE#         1588
  C:901FH         LINE#         1589
  C:9026H         LINE#         1591
  C:902DH         LINE#         1592
  C:9034H         LINE#         1593
  C:9037H         LINE#         1594
  C:903EH         LINE#         1595
  C:904AH         LINE#         1596
  C:9059H         LINE#         1597
  C:9059H         LINE#         1598
  C:905FH         LINE#         1599
  C:9063H         LINE#         1601
  C:9067H         LINE#         1602
  C:906BH         LINE#         1604
  C:9071H         LINE#         1605
  C:9077H         LINE#         1607
  C:907DH         LINE#         1608
  C:9083H         LINE#         1610
  C:908CH         LINE#         1611
  C:908CH         LINE#         1612
  C:9092H         LINE#         1613
BL51 BANKED LINKER/LOCATER V6.00                                                      09/09/2017  17:29:44  PAGE 172


  C:9098H         LINE#         1615
  C:909EH         LINE#         1616
  C:90A4H         LINE#         1617
  C:90A4H         LINE#         1618
  C:90A7H         LINE#         1619
  C:90AEH         LINE#         1620
  C:90B6H         LINE#         1623
  C:90BBH         LINE#         1624
  C:90BBH         LINE#         1625
  C:90C2H         LINE#         1626
  C:90C9H         LINE#         1627
  C:90CCH         LINE#         1628
  C:90D3H         LINE#         1629
  C:90DFH         LINE#         1631
  C:90EEH         LINE#         1633
  C:90F3H         LINE#         1634
  C:90F3H         LINE#         1635
  C:90F9H         LINE#         1636
  C:90FEH         LINE#         1637
  C:9102H         LINE#         1639
  C:9106H         LINE#         1640
  C:910BH         LINE#         1641
  C:910FH         LINE#         1642
  C:9112H         LINE#         1643
  C:9119H         LINE#         1644
  C:9125H         LINE#         1645
  C:912AH         LINE#         1646
  -------         ENDPROC       XIYANG_10
  -------         PROC          QIAOXIYANG
  C:EBBBH         LINE#         1654
  C:EBBBH         LINE#         1655
  C:EBBBH         LINE#         1656
  C:EBBEH         LINE#         1657
  C:EBC1H         LINE#         1658
  C:EBC4H         LINE#         1659
  C:EBC7H         LINE#         1660
  C:EBCAH         LINE#         1661
  C:EBCDH         LINE#         1662
  C:EBD0H         LINE#         1663
  C:EBD3H         LINE#         1664
  C:EBD6H         LINE#         1665
  C:EBD9H         LINE#         1666
  -------         ENDPROC       QIAOXIYANG
  -------         ENDMOD        QIAOXIYANG

  -------         MODULE        HT1621
  C:0000H         SYMBOL        _ICE_DUMMY_
  D:0080H         PUBLIC        P0
  D:0090H         PUBLIC        P1
  D:00A0H         PUBLIC        P2
  D:00B0H         PUBLIC        P3
  D:00C0H         PUBLIC        P4
  D:00C8H         PUBLIC        P5
  D:00E8H         PUBLIC        P6
  D:00F8H         PUBLIC        P7
  X:0331H         PUBLIC        IR_SampleCnt
  D:00A8H         PUBLIC        IE
BL51 BANKED LINKER/LOCATER V6.00                                                      09/09/2017  17:29:44  PAGE 173


  X:0332H         PUBLIC        IR_DataShit
  C:ECE5H         PUBLIC        Inf_Init
  X:0333H         PUBLIC        IR_data
  X:0334H         PUBLIC        IR_code
  D:00B8H         PUBLIC        IP
  D:00D8H         PUBLIC        CCON
  B:0022H.3       PUBLIC        B_IrUserErr
  B:0022H.4       PUBLIC        B_IR_Press
  D:0098H         PUBLIC        SCON
  D:0089H         PUBLIC        TMOD
  D:0088H         PUBLIC        TCON
  B:00B0H.2       PUBLIC        P32
  B:0022H.5       PUBLIC        B_IR_Sync
  D:00F0H         PUBLIC        B
  X:0335H         PUBLIC        IR_BitCnt
  B:00A8H.3       PUBLIC        ET1
  B:0088H.7       PUBLIC        TF1
  D:008DH         PUBLIC        TH1
  B:0088H.0       PUBLIC        IT0
  B:00A8H.0       PUBLIC        EX0
  C:EC1BH         PUBLIC        INT0_Interrupt
  D:008BH         PUBLIC        TL1
  B:00B0H.2       PUBLIC        P_IR_RX
  B:0088H.6       PUBLIC        TR1
  X:0336H         PUBLIC        IR_UserH
  C:CE44H         PUBLIC        Timer1_Interrupt
  X:0337H         PUBLIC        IR_UserL
  B:0022H.6       PUBLIC        P_IR_RX_temp
  B:00D0H.5       PUBLIC        F0
  X:0338H         PUBLIC        SampleTime
  D:00D0H         PUBLIC        PSW
  -------         PROC          INF_INIT
  C:ECE5H         LINE#         180
  C:ECE5H         LINE#         181
  C:ECE5H         LINE#         182
  C:ECE7H         LINE#         183
  C:ECEAH         LINE#         184
  C:ECEDH         LINE#         185
  C:ECF0H         LINE#         186
  C:ECF2H         LINE#         187
  C:ECF4H         LINE#         188
  C:ECF6H         LINE#         190
  C:ECF8H         LINE#         191
  C:ECFAH         LINE#         194
  -------         ENDPROC       INF_INIT
  -------         PROC          INT0_INTERRUPT
  C:EC1BH         LINE#         197
  C:EC21H         LINE#         199
  C:EC23H         LINE#         200
  C:EC26H         LINE#         201
  C:EC29H         LINE#         202
  C:EC2EH         LINE#         203
  C:EC30H         LINE#         204
  C:EC32H         LINE#         205
  -------         ENDPROC       INT0_INTERRUPT
  -------         PROC          TIMER1_INTERRUPT
  C:CE44H         LINE#         208
BL51 BANKED LINKER/LOCATER V6.00                                                      09/09/2017  17:29:44  PAGE 174


  C:CE53H         LINE#         212
  C:CE59H         LINE#         214
  C:CE5DH         LINE#         215
  C:CE61H         LINE#         216
  C:CE6DH         LINE#         217
  C:CE6DH         LINE#         218
  C:CE73H         LINE#         219
  C:CE78H         LINE#         221
  C:CE83H         LINE#         222
  C:CE8DH         LINE#         223
  C:CE8DH         LINE#         224
  C:CE92H         LINE#         225
  C:CE92H         LINE#         226
  C:CE94H         LINE#         227
  C:CE9AH         LINE#         228
  C:CE9AH         LINE#         229
  C:CE9CH         LINE#         230
  C:CE9FH         LINE#         231
  C:CE9FH         LINE#         232
  C:CEA9H         LINE#         234
  C:CEA9H         LINE#         235
  C:CEB0H         LINE#         236
  C:CEC0H         LINE#         237
  C:CEC8H         LINE#         238
  C:CEC8H         LINE#         239
  C:CECAH         LINE#         240
  C:CED6H         LINE#         241
  C:CED6H         LINE#         242
  C:CEE2H         LINE#         244
  C:CEE6H         LINE#         245
  C:CEE8H         LINE#         247
  C:CEEDH         LINE#         248
  C:CEEFH         LINE#         249
  C:CEF1H         LINE#         251
  C:CEF1H         LINE#         252
  C:CEF3H         LINE#         253
  C:CEFBH         LINE#         254
  C:CEFBH         LINE#         255
  C:CEFFH         LINE#         256
  C:CF07H         LINE#         257
  C:CF0DH         LINE#         258
  C:CF0DH         LINE#         259
  C:CF0DH         LINE#         260
  C:CF0DH         LINE#         261
  C:CF0DH         LINE#         262
  -------         ENDPROC       TIMER1_INTERRUPT
  -------         ENDMOD        HT1621

  -------         MODULE        ?C?FPMUL
  C:1B4FH         PUBLIC        ?C?FPMUL
  -------         ENDMOD        ?C?FPMUL

  -------         MODULE        ?C?FPDIV
  C:1C58H         PUBLIC        ?C?FPDIV
  -------         ENDMOD        ?C?FPDIV

  -------         MODULE        ?C?FCAST
BL51 BANKED LINKER/LOCATER V6.00                                                      09/09/2017  17:29:44  PAGE 175


  C:1CFFH         PUBLIC        ?C?FCASTC
  C:1CFAH         PUBLIC        ?C?FCASTI
  C:1CF5H         PUBLIC        ?C?FCASTL
  -------         ENDMOD        ?C?FCAST

  -------         MODULE        ?C?CASTF
  C:1D33H         PUBLIC        ?C?CASTF
  -------         ENDMOD        ?C?CASTF

  -------         MODULE        PRINTF
  X:0203H         PUBLIC        ?_PRINTF?BYTE
  X:0203H         PUBLIC        ?_SPRINTF?BYTE
  C:3A45H         PUBLIC        _PRINTF
  C:3A3FH         PUBLIC        _SPRINTF
  -------         ENDMOD        PRINTF

  -------         MODULE        ?C?FPROUND
  C:1DB4H         PUBLIC        ?C?FPROUND
  -------         ENDMOD        ?C?FPROUND

  -------         MODULE        ?C?FPCONVERT
  C:1DF1H         PUBLIC        ?C?FPCONVERT
  -------         ENDMOD        ?C?FPCONVERT

  -------         MODULE        ?C?FPADD
  C:1EFDH         PUBLIC        ?C?FPADD
  C:1EF9H         PUBLIC        ?C?FPSUB
  -------         ENDMOD        ?C?FPADD

  -------         MODULE        ?C?FTNPWR
  C:201EH         PUBLIC        ?C?FTNPWR
  -------         ENDMOD        ?C?FTNPWR

  -------         MODULE        ?C?COPY
  C:212EH         PUBLIC        ?C?COPY
  -------         ENDMOD        ?C?COPY

  -------         MODULE        ?C?CLDPTR
  C:2154H         PUBLIC        ?C?CLDPTR
  -------         ENDMOD        ?C?CLDPTR

  -------         MODULE        ?C?CLDOPTR
  C:216DH         PUBLIC        ?C?CLDOPTR
  -------         ENDMOD        ?C?CLDOPTR

  -------         MODULE        ?C?CSTPTR
  C:219AH         PUBLIC        ?C?CSTPTR
  -------         ENDMOD        ?C?CSTPTR

  -------         MODULE        ?C?IMUL
  C:21ACH         PUBLIC        ?C?IMUL
  -------         ENDMOD        ?C?IMUL

  -------         MODULE        ?C?UIDIV
  C:21BEH         PUBLIC        ?C?UIDIV
  -------         ENDMOD        ?C?UIDIV

BL51 BANKED LINKER/LOCATER V6.00                                                      09/09/2017  17:29:44  PAGE 176


  -------         MODULE        ?C?IILDX
  C:2213H         PUBLIC        ?C?IILDX
  -------         ENDMOD        ?C?IILDX

  -------         MODULE        ?C?ILDPTR
  C:2229H         PUBLIC        ?C?ILDPTR
  -------         ENDMOD        ?C?ILDPTR

  -------         MODULE        ?C?IILDPTR
  C:2254H         PUBLIC        ?C?IILDPTR
  -------         ENDMOD        ?C?IILDPTR

  -------         MODULE        ?C?ISTPTR
  C:228CH         PUBLIC        ?C?ISTPTR
  -------         ENDMOD        ?C?ISTPTR

  -------         MODULE        ?C?LNEG
  C:22ABH         PUBLIC        ?C?LNEG
  -------         ENDMOD        ?C?LNEG

  -------         MODULE        ?C?SLCMP
  C:22B9H         PUBLIC        ?C?SLCMP
  -------         ENDMOD        ?C?SLCMP

  -------         MODULE        ?C?ULCMP
  C:22CFH         PUBLIC        ?C?ULCMP
  -------         ENDMOD        ?C?ULCMP

  -------         MODULE        ?C?ULSHR
  C:22E0H         PUBLIC        ?C?ULSHR
  -------         ENDMOD        ?C?ULSHR

  -------         MODULE        ?C?LSHL
  C:22F3H         PUBLIC        ?C?LSHL
  -------         ENDMOD        ?C?LSHL

  -------         MODULE        ?C?LLDPTR
  C:2306H         PUBLIC        ?C?LLDPTR
  -------         ENDMOD        ?C?LLDPTR

  -------         MODULE        ?C?LSTXDATA
  C:2326H         PUBLIC        ?C?LSTXDATA
  -------         ENDMOD        ?C?LSTXDATA

  -------         MODULE        ?C?LSTKXDATA
  C:2332H         PUBLIC        ?C?LSTKXDATA
  -------         ENDMOD        ?C?LSTKXDATA

  -------         MODULE        ?C?PLDIXDATA
  C:2363H         PUBLIC        ?C?PLDIXDATA
  -------         ENDMOD        ?C?PLDIXDATA

  -------         MODULE        ?C?PSTXDATA
  C:237AH         PUBLIC        ?C?PSTXDATA
  -------         ENDMOD        ?C?PSTXDATA

  -------         MODULE        ?C?CCASE
BL51 BANKED LINKER/LOCATER V6.00                                                      09/09/2017  17:29:44  PAGE 177


  C:2383H         PUBLIC        ?C?CCASE
  -------         ENDMOD        ?C?CCASE

  -------         MODULE        ?C?ICASE
  C:23A9H         PUBLIC        ?C?ICASE
  -------         ENDMOD        ?C?ICASE

  -------         MODULE        PUTCHAR
  C:EB09H         PUBLIC        _PUTCHAR
  -------         ENDMOD        PUTCHAR

  -------         MODULE        ABS
  C:EDE3H         PUBLIC        _ABS
  -------         ENDMOD        ABS

  -------         MODULE        ?C?STRCPY
  C:24A2H         PUBLIC        ?C?STRCPY
  -------         ENDMOD        ?C?STRCPY

  -------         MODULE        SETJMP
  C:DF9AH         PUBLIC        _LONGJMP
  C:DF69H         PUBLIC        _SETJMP
  -------         ENDMOD        SETJMP

  -------         MODULE        ?C?CSTOPTR
  C:24BFH         PUBLIC        ?C?CSTOPTR
  -------         ENDMOD        ?C?CSTOPTR

  -------         MODULE        ?C?ILDOPTR
  C:24E1H         PUBLIC        ?C?ILDOPTR
  -------         ENDMOD        ?C?ILDOPTR

  -------         MODULE        ?C?ISTOPTR
  C:2519H         PUBLIC        ?C?ISTOPTR
  -------         ENDMOD        ?C?ISTOPTR

  -------         MODULE        ?C?LLDIDATA
  C:2546H         PUBLIC        ?C?LLDIDATA
  -------         ENDMOD        ?C?LLDIDATA

  -------         MODULE        ?C?LLDXDATA
  C:2552H         PUBLIC        ?C?LLDXDATA
  -------         ENDMOD        ?C?LLDXDATA

  -------         MODULE        ?C?LLDPDATA
  C:255EH         PUBLIC        ?C?LLDPDATA
  -------         ENDMOD        ?C?LLDPDATA

  -------         MODULE        ?C?LLDCODE
  C:256AH         PUBLIC        ?C?LLDCODE
  -------         ENDMOD        ?C?LLDCODE

  -------         MODULE        ?C_XBP
  D:000DH         PUBLIC        ?C_XBP
  -------         ENDMOD        ?C_XBP

  -------         MODULE        ?C_IBP
BL51 BANKED LINKER/LOCATER V6.00                                                      09/09/2017  17:29:44  PAGE 178


  D:000FH         PUBLIC        ?C_IBP
  -------         ENDMOD        ?C_IBP

  -------         MODULE        ?C_PBP
  D:0010H         PUBLIC        ?C_PBP
  -------         ENDMOD        ?C_PBP

*** WARNING L13: RECURSIVE CALL TO SEGMENT
    SEGMENT: ?PR?PWM_24?MAIN
    CALLER:  ?PR?ADC_ADJUST?ADC

*** WARNING L13: RECURSIVE CALL TO SEGMENT
    SEGMENT: ?PR?_P_TO_P?BASAL
    CALLER:  ?PR?HPQ?BASAL

*** WARNING L13: RECURSIVE CALL TO SEGMENT
    SEGMENT: ?PR?_P_TO_P?BASAL
    CALLER:  ?PR?QIANPQ?BASAL

*** WARNING L16: UNCALLED SEGMENT, IGNORED FOR OVERLAY PROCESS
    SEGMENT: ?PR?_UART1_PRINTSTRING?MAIN

*** WARNING L16: UNCALLED SEGMENT, IGNORED FOR OVERLAY PROCESS
    SEGMENT: ?PR?MP3_PAUSE?MAIN

*** WARNING L16: UNCALLED SEGMENT, IGNORED FOR OVERLAY PROCESS
    SEGMENT: ?PR?MP3_REPLAY?MAIN

*** WARNING L16: UNCALLED SEGMENT, IGNORED FOR OVERLAY PROCESS
    SEGMENT: ?PR?CH376ENDDIRINFO?MAIN

*** WARNING L16: UNCALLED SEGMENT, IGNORED FOR OVERLAY PROCESS
    SEGMENT: ?PR?CH376GETDISKSTATUS?MAIN

*** WARNING L16: UNCALLED SEGMENT, IGNORED FOR OVERLAY PROCESS
    SEGMENT: ?PR?_FM300MS?BUZZ

*** WARNING L16: UNCALLED SEGMENT, IGNORED FOR OVERLAY PROCESS
    SEGMENT: ?PR?_FM50MS?BUZZ

*** WARNING L16: UNCALLED SEGMENT, IGNORED FOR OVERLAY PROCESS
    SEGMENT: ?PR?_FM1MS?BUZZ

*** WARNING L16: UNCALLED SEGMENT, IGNORED FOR OVERLAY PROCESS
    SEGMENT: ?PR?INITIAL_POSITION_SLOW?BASAL

*** WARNING L16: UNCALLED SEGMENT, IGNORED FOR OVERLAY PROCESS
    SEGMENT: ?PR?FUWEI?BASAL

Program Size: data=20.7 xdata=831 code=60969
LINK/LOCATE RUN COMPLETE.  13 WARNING(S),  0 ERROR(S)
